ccopy_reg
_reconstructor
p0
(cFWCore.ParameterSet.Config
Process
p1
c__builtin__
object
p2
Ntp3
Rp4
(dp5
S'MessageLogger'
p6
g0
(cFWCore.ParameterSet.Modules
Service
p7
g2
Ntp8
Rp9
(dp10
S'_isFrozen'
p11
I00
sS'suppressInfo'
p12
g0
(cFWCore.ParameterSet.Types
vstring
p13
c__builtin__
list
p14
(lp15
tp16
Rp17
(dp18
g11
I00
sS'_ParameterTypeBase__isTracked'
p19
I00
sS'_isModified'
p20
I00
sS'_nPerLine'
p21
I1
sbsS'suppressDebug'
p22
g0
(g13
g14
(lp23
tp24
Rp25
(dp26
g11
I00
sg19
I00
sg20
I00
sg21
I1
sbsS'cout'
p27
g0
(cFWCore.ParameterSet.Types
PSet
p28
g2
Ntp29
Rp30
(dp31
g11
I00
sg19
I00
sS'placeholder'
p32
g0
(cFWCore.ParameterSet.Types
bool
p33
g2
Ntp34
Rp35
(dp36
g11
I00
sg19
I00
sS'_value'
p37
I01
sg20
I00
sbsg20
I00
sS'_Parameterizable__parameterNames'
p38
(lp39
g32
asbsS'_lineNumber'
p40
I11
sS'debugModules'
p41
g0
(g13
g14
(lp42
tp43
Rp44
(dp45
g11
I00
sg19
I00
sg20
I00
sg21
I1
sbsS'_TypedParameterizable__type'
p46
g6
sS'fwkJobReports'
p47
g0
(g13
g14
(lp48
S'FrameworkJobReport'
p49
atp50
Rp51
(dp52
g11
I00
sg19
I00
sg20
I00
sg21
I1
sbsg38
(lp53
g12
aS'debugs'
p54
ag22
ag27
aS'cerr_stats'
p55
aS'warnings'
p56
aS'default'
p57
aS'statistics'
p58
aS'cerr'
p59
ag49
aS'suppressWarning'
p60
aS'errors'
p61
aS'destinations'
p62
ag41
aS'infos'
p63
aS'categories'
p64
ag47
asg58
g0
(g13
g14
(lp65
g55
atp66
Rp67
(dp68
g11
I00
sg19
I00
sg20
I00
sg21
I1
sbsS'_filename'
p69
S'/cvmfs/cms.cern.ch/slc7_amd64_gcc700/cms/cmssw-patch/CMSSW_10_2_4_patch1/python/FWCore/ParameterSet/Modules.py'
p70
sg62
g0
(g13
g14
(lp71
g56
ag61
ag63
ag54
ag27
ag59
atp72
Rp73
(dp74
g11
I00
sg19
I00
sg20
I00
sg21
I1
sbsg54
g0
(g28
g2
Ntp75
Rp76
(dp77
g11
I00
sg19
I00
sg32
g0
(g33
g2
Ntp78
Rp79
(dp80
g11
I00
sg19
I00
sg37
I01
sg20
I00
sbsg20
I00
sg38
(lp81
g32
asbsg56
g0
(g28
g2
Ntp82
Rp83
(dp84
g11
I00
sg19
I00
sg32
g0
(g33
g2
Ntp85
Rp86
(dp87
g11
I00
sg19
I00
sg37
I01
sg20
I00
sbsg20
I00
sg38
(lp88
g32
asbsg61
g0
(g28
g2
Ntp89
Rp90
(dp91
g11
I00
sg19
I00
sg32
g0
(g33
g2
Ntp92
Rp93
(dp94
g11
I00
sg19
I00
sg37
I01
sg20
I00
sbsg20
I00
sg38
(lp95
g32
asbsg49
g0
(g28
g2
Ntp96
Rp97
(dp98
g11
I00
sg19
I00
sg20
I00
sg57
g0
(g28
g2
Ntp99
Rp100
(dp101
g11
I00
sg19
I00
sS'limit'
p102
g0
(cFWCore.ParameterSet.Types
int32
p103
g2
Ntp104
Rp105
(dp106
g11
I00
sg19
I00
sg37
I0
sg20
I00
sbsg20
I00
sg38
(lp107
g102
asbsS'FwkJob'
p108
g0
(g28
g2
Ntp109
Rp110
(dp111
g11
I00
sg19
I00
sg20
I00
sg102
g0
(g103
g2
Ntp112
Rp113
(dp114
g11
I00
sg19
I00
sg37
I10000000
sg20
I00
sbsg38
(lp115
S'optionalPSet'
p116
ag102
asg116
g0
(g33
g2
Ntp117
Rp118
(dp119
g11
I00
sg19
I00
sg37
I01
sg20
I00
sbsbsg38
(lp120
g57
ag116
ag108
asg116
g0
(g33
g2
Ntp121
Rp122
(dp123
g11
I00
sg19
I00
sg37
I01
sg20
I00
sbsbsg60
g0
(g13
g14
(lp124
tp125
Rp126
(dp127
g11
I00
sg19
I00
sg20
I00
sg21
I1
sbsg63
g0
(g28
g2
Ntp128
Rp129
(dp130
g11
I00
sg19
I00
sg20
I00
sS'Root_NoDictionary'
p131
g0
(g28
g2
Ntp132
Rp133
(dp134
g11
I00
sg19
I00
sg20
I00
sg102
g0
(g103
g2
Ntp135
Rp136
(dp137
g11
I00
sg19
I00
sg37
I0
sg20
I00
sbsg38
(lp138
g116
ag102
asg116
g0
(g33
g2
Ntp139
Rp140
(dp141
g11
I00
sg19
I00
sg37
I01
sg20
I00
sbsbsg38
(lp142
g116
ag131
ag32
asg116
g0
(g33
g2
Ntp143
Rp144
(dp145
g11
I00
sg19
I00
sg37
I01
sg20
I00
sbsg32
g0
(g33
g2
Ntp146
Rp147
(dp148
g11
I00
sg19
I00
sg37
I01
sg20
I00
sbsbsg64
g0
(g13
g14
(lp149
g108
aS'FwkReport'
p150
aS'FwkSummary'
p151
ag131
atp152
Rp153
(dp154
g11
I00
sg19
I00
sg20
I00
sg21
I1
sbsg20
I00
sg55
g0
(g28
g2
Ntp155
Rp156
(dp157
g11
I00
sg19
I00
sg20
I00
sg116
g0
(g33
g2
Ntp158
Rp159
(dp160
g11
I00
sg19
I00
sg37
I01
sg20
I00
sbsg38
(lp161
S'threshold'
p162
aS'output'
p163
ag116
asg162
g0
(cFWCore.ParameterSet.Types
string
p164
g2
Ntp165
Rp166
(dp167
g11
I00
sg19
I00
sg37
S'WARNING'
p168
sg20
I00
sbsg163
g0
(g164
g2
Ntp169
Rp170
(dp171
g11
I00
sg19
I00
sg37
g59
sg20
I00
sbsbsg57
g0
(g28
g2
Ntp172
Rp173
(dp174
g11
I00
sg19
I00
sg20
I00
sg38
(lp175
sbsS'_inProcess'
p176
I01
sg59
g0
(g28
g2
Ntp177
Rp178
(dp179
g11
I00
sg19
I00
sS'noTimeStamps'
p180
g0
(g33
g2
Ntp181
Rp182
(dp183
g11
I00
sg19
I00
sg37
I00
sg20
I00
sbsg150
g0
(g28
g2
Ntp184
Rp185
(dp186
g11
I00
sg19
I00
sg20
I01
sS'reportEvery'
p187
g0
(g103
g2
Ntp188
Rp189
(dp190
g11
I00
sg19
I00
sg37
I1000
sg20
I01
sbsg102
g0
(g103
g2
Ntp191
Rp192
(dp193
g11
I00
sg19
I00
sg37
I10000000
sg20
I00
sbsg38
(lp194
g187
ag116
ag102
asg116
g0
(g33
g2
Ntp195
Rp196
(dp197
g11
I00
sg19
I00
sg37
I01
sg20
I00
sbsbsg20
I00
sg57
g0
(g28
g2
Ntp198
Rp199
(dp200
g11
I00
sg19
I00
sg102
g0
(g103
g2
Ntp201
Rp202
(dp203
g11
I00
sg19
I00
sg37
I10000000
sg20
I00
sbsg20
I00
sg38
(lp204
g102
asbsg131
g0
(g28
g2
Ntp205
Rp206
(dp207
g11
I00
sg19
I00
sg20
I00
sg102
g0
(g103
g2
Ntp208
Rp209
(dp210
g11
I00
sg19
I00
sg37
I0
sg20
I00
sbsg38
(lp211
g116
ag102
asg116
g0
(g33
g2
Ntp212
Rp213
(dp214
g11
I00
sg19
I00
sg37
I01
sg20
I00
sbsbsS'INFO'
p215
g0
(g28
g2
Ntp216
Rp217
(dp218
g11
I00
sg19
I00
sg102
g0
(g103
g2
Ntp219
Rp220
(dp221
g11
I00
sg19
I00
sg37
I0
sg20
I00
sbsg20
I00
sg38
(lp222
g102
asbsg116
g0
(g33
g2
Ntp223
Rp224
(dp225
g11
I00
sg19
I00
sg37
I01
sg20
I00
sbsg108
g0
(g28
g2
Ntp226
Rp227
(dp228
g11
I00
sg19
I00
sg20
I00
sg102
g0
(g103
g2
Ntp229
Rp230
(dp231
g11
I00
sg19
I00
sg37
I0
sg20
I00
sbsg38
(lp232
g116
ag102
asg116
g0
(g33
g2
Ntp233
Rp234
(dp235
g11
I00
sg19
I00
sg37
I01
sg20
I00
sbsbsg151
g0
(g28
g2
Ntp236
Rp237
(dp238
g11
I00
sg19
I00
sg20
I00
sg187
g0
(g103
g2
Ntp239
Rp240
(dp241
g11
I00
sg19
I00
sg37
I1
sg20
I00
sbsg102
g0
(g103
g2
Ntp242
Rp243
(dp244
g11
I00
sg19
I00
sg37
I10000000
sg20
I00
sbsg38
(lp245
g187
ag116
ag102
asg116
g0
(g33
g2
Ntp246
Rp247
(dp248
g11
I00
sg19
I00
sg37
I01
sg20
I00
sbsbsg38
(lp249
g215
ag180
ag150
ag57
ag131
ag162
ag108
ag151
ag116
asg162
g0
(g164
g2
Ntp250
Rp251
(dp252
g11
I00
sg19
I00
sg37
g215
sg20
I00
sbsbsbsS'_Process__sequences'
p253
(dp254
sS'p'
p255
g0
(cFWCore.ParameterSet.SequenceTypes
Path
p256
g2
Ntp257
Rp258
(dp259
g11
I00
sS'_seq'
p260
g0
(cFWCore.ParameterSet.SequenceTypes
_SequenceCollection
p261
g2
Ntp262
Rp263
(dp264
S'_collection'
p265
(lp266
g0
(cFWCore.ParameterSet.Modules
EDAnalyzer
p267
g2
Ntp268
Rp269
(dp270
g38
(lp271
S'PUPPI_AK4Collection'
p272
aS'fatJetCollection'
p273
aS'muonCollection'
p274
aS'bits'
p275
asg11
I00
sg20
I00
sg40
I13
sg272
g0
(cFWCore.ParameterSet.Types
InputTag
p276
g2
Ntp277
Rp278
(dp279
g11
I00
sg19
I01
sg20
I00
sS'_InputTag__moduleLabel'
p280
S'slimmedJetsPuppi'
p281
sS'_InputTag__processName'
p282
S''
p283
sS'_InputTag__productInstance'
p284
g283
sbsg69
S'/uscms_data/d3/cannaert/src/thrust/CMSSW_10_2_4_patch1/src/ttbarAnalyzer_cfg.py'
p285
sS'_Labelable__label'
p286
S'ttbarAnalyzer'
p287
sg273
g0
(g276
g2
Ntp288
Rp289
(dp290
g11
I00
sg19
I01
sg20
I00
sg280
S'slimmedJetsAK8'
p291
sg282
g283
sg284
g283
sbsg274
g0
(g276
g2
Ntp292
Rp293
(dp294
g11
I00
sg19
I01
sg20
I00
sg280
S'slimmedMuons'
p295
sg282
g283
sg284
g283
sbsg275
g0
(g276
g2
Ntp296
Rp297
(dp298
g11
I00
sg19
I01
sg20
I00
sg280
S'TriggerResults'
p299
sg282
S'HLT'
p300
sg284
g283
sbsg46
g287
sbasbsg286
g255
sg20
I00
sS'_tasks'
p301
g0
(cFWCore.ParameterSet.OrderedSet
OrderedSet
p302
g2
Ntp303
Rp304
(dp305
S'map'
p306
(dp307
sS'end'
p308
(lp309
Nag309
ag309
asbsbsS'_Process__services'
p310
(dp311
g6
g9
sS'TFileService'
p312
g0
(g7
g2
Ntp313
Rp314
(dp315
g38
(lp316
S'fileName'
p317
asg11
I00
sg176
I01
sg20
I00
sg40
I11
sg69
g70
sg317
g0
(g164
g2
Ntp318
Rp319
(dp320
g11
I00
sg19
I01
sg37
S'QCD_ttbar.root'
p321
sg20
I00
sbsg46
g312
sbssS'_Process__source'
p322
g0
(cFWCore.ParameterSet.Modules
Source
p323
g2
Ntp324
Rp325
(dp326
g38
(lp327
S'fileNames'
p328
asg11
I00
sg20
I00
sg40
I193
sg69
g70
sg328
g0
(g13
g14
(lp329
S'root://cmsxrootd.fnal.gov//store/data/Run2018A/SingleMuon/MINIAOD/17Sep2018-v2/110000/283E4555-2060-2143-8E30-F0B9AF92D65A.root'
p330
aS'root://cmsxrootd.fnal.gov//store/data/Run2018A/SingleMuon/MINIAOD/17Sep2018-v2/110000/27B00B71-0C5C-5B45-B7FA-BE42B02CBA9B.root'
p331
aS'root://cmsxrootd.fnal.gov//store/data/Run2018A/SingleMuon/MINIAOD/17Sep2018-v2/110000/270718DF-7AFD-1242-9CD0-97DE4ECB3BBA.root'
p332
aS'root://cmsxrootd.fnal.gov//store/data/Run2018A/SingleMuon/MINIAOD/17Sep2018-v2/110000/269C0E2E-5E38-1540-9657-8F5E4BED0547.root'
p333
aS'root://cmsxrootd.fnal.gov//store/data/Run2018A/SingleMuon/MINIAOD/17Sep2018-v2/110000/254F97A7-ECB6-6946-BE03-FA32613B8D68.root'
p334
aS'root://cmsxrootd.fnal.gov//store/data/Run2018A/SingleMuon/MINIAOD/17Sep2018-v2/110000/239A99F4-2A7A-C340-AACB-BE47E83DE969.root'
p335
aS'root://cmsxrootd.fnal.gov//store/data/Run2018A/SingleMuon/MINIAOD/17Sep2018-v2/110000/2378295D-D168-7F4C-9CA2-C2C730F2DC23.root'
p336
aS'root://cmsxrootd.fnal.gov//store/data/Run2018A/SingleMuon/MINIAOD/17Sep2018-v2/110000/22994C4E-3635-2B4D-9394-9A376B59C591.root'
p337
aS'root://cmsxrootd.fnal.gov//store/data/Run2018A/SingleMuon/MINIAOD/17Sep2018-v2/110000/225399D7-B37C-6C4C-AE91-309222939175.root'
p338
aS'root://cmsxrootd.fnal.gov//store/data/Run2018A/SingleMuon/MINIAOD/17Sep2018-v2/110000/21F2A6F1-C18C-CE41-992C-ECD23E24CE3C.root'
p339
aS'root://cmsxrootd.fnal.gov//store/data/Run2018A/SingleMuon/MINIAOD/17Sep2018-v2/110000/21ED900E-11B3-6E48-A133-D71912C85243.root'
p340
aS'root://cmsxrootd.fnal.gov//store/data/Run2018A/SingleMuon/MINIAOD/17Sep2018-v2/110000/21A282BE-964A-7045-9614-CF56688B7628.root'
p341
aS'root://cmsxrootd.fnal.gov//store/data/Run2018A/SingleMuon/MINIAOD/17Sep2018-v2/110000/218D374E-8B6E-4349-ADAE-6D1669FB9663.root'
p342
aS'root://cmsxrootd.fnal.gov//store/data/Run2018A/SingleMuon/MINIAOD/17Sep2018-v2/110000/1FE19E9E-E689-7445-8C4B-85A1EB4E8ADA.root'
p343
aS'root://cmsxrootd.fnal.gov//store/data/Run2018A/SingleMuon/MINIAOD/17Sep2018-v2/110000/1ECA3BC4-3EFC-5943-81E5-B921D7E615ED.root'
p344
aS'root://cmsxrootd.fnal.gov//store/data/Run2018A/SingleMuon/MINIAOD/17Sep2018-v2/110000/1E867A59-8002-9F4E-8868-22E0A2C90146.root'
p345
aS'root://cmsxrootd.fnal.gov//store/data/Run2018A/SingleMuon/MINIAOD/17Sep2018-v2/110000/1E68B991-9AA1-1D49-85E3-339E2085F11A.root'
p346
aS'root://cmsxrootd.fnal.gov//store/data/Run2018A/SingleMuon/MINIAOD/17Sep2018-v2/110000/1DCED38A-44E8-E44A-8AA2-58DBD2CD55DF.root'
p347
aS'root://cmsxrootd.fnal.gov//store/data/Run2018A/SingleMuon/MINIAOD/17Sep2018-v2/110000/1D98EFF7-999F-A94A-8030-808709D77B18.root'
p348
aS'root://cmsxrootd.fnal.gov//store/data/Run2018A/SingleMuon/MINIAOD/17Sep2018-v2/110000/1D54461F-4C45-054B-B752-BFF229EB68BF.root'
p349
atp350
Rp351
(dp352
g11
I00
sg19
I00
sg20
I00
sg21
I1
sbsg46
S'PoolSource'
p353
sbsS'StripCPEfromTrackAngleESProducer'
p354
g0
(cFWCore.ParameterSet.Modules
ESProducer
p355
g2
Ntp356
Rp357
(dp358
g38
(lp359
S'ComponentType'
p360
aS'ComponentName'
p361
aS'parameters'
p362
asg11
I00
sg20
I01
sg362
g0
(g28
g2
Ntp363
Rp364
(dp365
g11
I00
sg19
I01
sS'maxChgOneMIP'
p366
g0
(cFWCore.ParameterSet.Types
double
p367
g2
Ntp368
Rp369
(dp370
g11
I00
sg19
I01
sg37
F6000.0
sg20
I00
sbsS'mLC_P2'
p371
g0
(g367
g2
Ntp372
Rp373
(dp374
g11
I00
sg19
I01
sg37
F0.3
sg20
I00
sbsS'mLC_P1'
p375
g0
(g367
g2
Ntp376
Rp377
(dp378
g11
I00
sg19
I01
sg37
F0.618
sg20
I00
sbsS'mLC_P0'
p379
g0
(g367
g2
Ntp380
Rp381
(dp382
g11
I00
sg19
I01
sg37
F-0.326
sg20
I00
sbsS'useLegacyError'
p383
g0
(g33
g2
Ntp384
Rp385
(dp386
g11
I00
sg19
I01
sg37
I00
sg20
I00
sbsS'mTIB_P1'
p387
g0
(g367
g2
Ntp388
Rp389
(dp390
g11
I00
sg19
I01
sg37
F0.202
sg20
I00
sbsS'mTEC_P1'
p391
g0
(g367
g2
Ntp392
Rp393
(dp394
g11
I00
sg19
I01
sg37
F0.471
sg20
I00
sbsS'mTEC_P0'
p395
g0
(g367
g2
Ntp396
Rp397
(dp398
g11
I00
sg19
I01
sg37
F-1.885
sg20
I00
sbsS'mTOB_P0'
p399
g0
(g367
g2
Ntp400
Rp401
(dp402
g11
I00
sg19
I01
sg37
F-1.026
sg20
I00
sbsS'mTOB_P1'
p403
g0
(g367
g2
Ntp404
Rp405
(dp406
g11
I00
sg19
I01
sg37
F0.253
sg20
I00
sbsS'mTIB_P0'
p407
g0
(g367
g2
Ntp408
Rp409
(dp410
g11
I00
sg19
I01
sg37
F-0.742
sg20
I00
sbsg38
(lp411
g366
ag371
ag375
ag379
ag383
ag391
ag395
ag399
ag403
ag407
ag387
aS'mTID_P0'
p412
aS'mTID_P1'
p413
asg412
g0
(g367
g2
Ntp414
Rp415
(dp416
g11
I00
sg19
I01
sg37
F-1.427
sg20
I00
sbsg413
g0
(g367
g2
Ntp417
Rp418
(dp419
g11
I00
sg19
I01
sg37
F0.433
sg20
I00
sbsg20
I00
sbsg40
I4
sg361
g0
(g164
g2
Ntp420
Rp421
(dp422
g11
I00
sg19
I01
sg37
S'StripCPEfromTrackAngle'
p423
sg20
I00
sbsg360
g0
(g164
g2
Ntp424
Rp425
(dp426
g11
I00
sg19
I01
sg37
g423
sg20
I00
sbsg69
S'/cvmfs/cms.cern.ch/slc7_amd64_gcc700/cms/cmssw-patch/CMSSW_10_2_4_patch1/python/RecoLocalTracker/SiStripRecHitConverter/StripCPEfromTrackAngle_cfi.py'
p427
sg286
g354
sg46
S'StripCPEESProducer'
p428
sbsS'_Process__aliases'
p429
(dp430
sS'siStripBackPlaneCorrectionDepESProducer'
p431
g0
(g355
g2
Ntp432
Rp433
(dp434
g38
(lp435
S'LatencyRecord'
p436
aS'BackPlaneCorrectionDeconvMode'
p437
aS'BackPlaneCorrectionPeakMode'
p438
asg11
I00
sg20
I00
sg40
I53
sg69
g70
sg436
g0
(g28
g2
Ntp439
Rp440
(dp441
g11
I00
sg19
I01
sg20
I00
sS'label'
p442
g0
(g164
g2
Ntp443
Rp444
(dp445
g11
I00
sg19
I00
sg37
g283
sg20
I00
sbsS'record'
p446
g0
(g164
g2
Ntp447
Rp448
(dp449
g11
I00
sg19
I01
sg37
S'SiStripLatencyRcd'
p450
sg20
I00
sbsg38
(lp451
g446
ag442
asbsg438
g0
(g28
g2
Ntp452
Rp453
(dp454
g11
I00
sg19
I01
sg20
I00
sg442
g0
(g164
g2
Ntp455
Rp456
(dp457
g11
I00
sg19
I00
sg37
S'peak'
p458
sg20
I00
sbsg446
g0
(g164
g2
Ntp459
Rp460
(dp461
g11
I00
sg19
I01
sg37
S'SiStripBackPlaneCorrectionRcd'
p462
sg20
I00
sbsg38
(lp463
g446
ag442
asbsg286
g431
sg437
g0
(g28
g2
Ntp464
Rp465
(dp466
g11
I00
sg19
I01
sg20
I00
sg442
g0
(g164
g2
Ntp467
Rp468
(dp469
g11
I00
sg19
I00
sg37
S'deconvolution'
p470
sg20
I00
sbsg446
g0
(g164
g2
Ntp471
Rp472
(dp473
g11
I00
sg19
I01
sg37
g462
sg20
I00
sbsg38
(lp474
g446
ag442
asbsg46
S'SiStripBackPlaneCorrectionDepESProducer'
p475
sbsS'HFRecalParameterBlock'
p476
g0
(g28
g2
Ntp477
Rp478
(dp479
g11
I00
sg19
I01
sg20
I00
sS'HFdepthTwoParameterA'
p480
g0
(cFWCore.ParameterSet.Types
vdouble
p481
g14
(lp482
F0.002861
aF0.004168
aF0.0064
aF0.008388
aF0.011601
aF0.014425
aF0.018633
aF0.023232
aF0.028274
aF0.035447
aF0.051579
aF0.086593
atp483
Rp484
(dp485
g11
I00
sg19
I01
sg20
I00
sbsS'HFdepthOneParameterA'
p486
g0
(g481
g14
(lp487
F0.004123
aF0.00602
aF0.008201
aF0.010489
aF0.013379
aF0.016997
aF0.021464
aF0.027371
aF0.034195
aF0.044807
aF0.058939
aF0.125497
atp488
Rp489
(dp490
g11
I00
sg19
I01
sg20
I00
sbsS'HFdepthOneParameterB'
p491
g0
(g481
g14
(lp492
F-4e-06
aF-2e-06
aF0.0
aF4e-06
aF1.5e-05
aF2.6e-05
aF6.3e-05
aF8.4e-05
aF0.00016
aF0.000107
aF0.000425
aF0.000209
atp493
Rp494
(dp495
g11
I00
sg19
I01
sg20
I00
sbsS'HFdepthTwoParameterB'
p496
g0
(g481
g14
(lp497
F-2e-06
aF-0.0
aF-7e-06
aF-6e-06
aF-2e-06
aF1e-06
aF1.9e-05
aF3.1e-05
aF6.7e-05
aF1.2e-05
aF0.000157
aF-3e-06
atp498
Rp499
(dp500
g11
I00
sg19
I01
sg20
I00
sbsg38
(lp501
g486
ag491
ag496
ag480
asg286
g476
sbsS'stripCPEESProducer'
p502
g0
(g355
g2
Ntp503
Rp504
(dp505
g38
(lp506
g360
ag361
ag362
asg11
I00
sg20
I00
sg362
g0
(g28
g2
Ntp507
Rp508
(dp509
g11
I00
sg19
I01
sg20
I00
sg38
(lp510
sbsg40
I53
sg361
g0
(g164
g2
Ntp511
Rp512
(dp513
g11
I00
sg19
I01
sg37
S'stripCPE'
p514
sg20
I00
sbsg360
g0
(g164
g2
Ntp515
Rp516
(dp517
g11
I00
sg19
I01
sg37
S'SimpleStripCPE'
p518
sg20
I00
sbsg69
g70
sg286
g502
sg46
g428
sbsS'EcalLaserCorrectionService'
p519
g0
(g355
g2
Ntp520
Rp521
(dp522
g38
(lp523
sg11
I00
sg20
I00
sg40
I53
sg69
g70
sg286
g519
sg46
g519
sbsS'_Process__psets'
p524
(dp525
S'maxEvents'
p526
g0
(g28
g2
Ntp527
Rp528
(dp529
g11
I00
sg19
I00
sg20
I00
sg38
(lp530
S'input'
p531
asg286
g526
sg531
g0
(g103
g2
Ntp532
Rp533
(dp534
g11
I00
sg19
I00
sg37
I5000000
sg20
I00
sbsbsg476
g478
sS'options'
p535
g0
(g28
g2
Ntp536
Rp537
(dp538
g11
I00
sg19
I00
sg20
I00
sS'wantSummary'
p539
g0
(g33
g2
Ntp540
Rp541
(dp542
g11
I00
sg19
I00
sg37
I01
sg20
I00
sbsg38
(lp543
g539
asg286
g535
sbssS'hcal_db_producer'
p544
g0
(g355
g2
Ntp545
Rp546
(dp547
g38
(lp548
S'file'
p549
aS'dump'
p550
asg11
I00
sg20
I00
sg550
g0
(g13
g14
(lp551
g283
atp552
Rp553
(dp554
g11
I00
sg19
I00
sg20
I00
sg21
I1
sbsg40
I53
sg69
g70
sg549
g0
(g164
g2
Ntp555
Rp556
(dp557
g11
I00
sg19
I00
sg37
g283
sg20
I00
sbsg286
g544
sg46
S'HcalDbProducer'
p558
sbsg312
g314
sS'_Process__essources'
p559
(dp560
S'HepPDTESSource'
p561
g0
(cFWCore.ParameterSet.Modules
ESSource
p562
g2
Ntp563
Rp564
(dp565
g38
(lp566
S'pdtFileName'
p567
asg11
I00
sg567
g0
(cFWCore.ParameterSet.Types
FileInPath
p568
g2
Ntp569
Rp570
(dp571
g11
I00
sg19
I01
sg37
S'SimGeneral/HepPDTESSource/data/pythiaparticle.tbl'
p572
sg20
I00
sbsg20
I00
sg40
I4
sg69
S'/cvmfs/cms.cern.ch/slc7_amd64_gcc700/cms/cmssw-patch/CMSSW_10_2_4_patch1/python/SimGeneral/HepPDTESSource/pythiapdt_cfi.py'
p573
sg286
g561
sg46
g561
sbsS'es_hardcode'
p574
g0
(g562
g2
Ntp575
Rp576
(dp577
g11
I00
sg40
I172
sS'useHEUpgrade'
p578
g0
(g33
g2
Ntp579
Rp580
(dp581
g11
I00
sg19
I01
sg37
I00
sg20
I00
sbsS'HBRecalibration'
p582
g0
(g33
g2
Ntp583
Rp584
(dp585
g11
I00
sg19
I01
sg37
I00
sg20
I00
sbsS'useLayer0Weight'
p586
g0
(g33
g2
Ntp587
Rp588
(dp589
g11
I00
sg19
I01
sg37
I00
sg20
I00
sbsS'HEmeanenergies'
p590
g0
(g568
g2
Ntp591
Rp592
(dp593
g11
I00
sg19
I01
sg37
S'CalibCalorimetry/HcalPlugins/data/meanenergiesHE.txt'
p594
sg20
I00
sbsg476
g478
sS'heUpgrade'
p595
g0
(g28
g2
Ntp596
Rp597
(dp598
g11
I00
sg19
I01
sS'qieType'
p599
g0
(g103
g2
Ntp600
Rp601
(dp602
g11
I00
sg19
I01
sg37
I2
sg20
I00
sbsg20
I00
sS'pedestalWidth'
p603
g0
(g367
g2
Ntp604
Rp605
(dp606
g11
I00
sg19
I01
sg37
F1.5
sg20
I00
sbsS'recoShape'
p607
g0
(g103
g2
Ntp608
Rp609
(dp610
g11
I00
sg19
I01
sg37
I206
sg20
I00
sbsS'zsThreshold'
p611
g0
(g103
g2
Ntp612
Rp613
(dp614
g11
I00
sg19
I01
sg37
I16
sg20
I00
sbsS'darkCurrent'
p615
g0
(g481
g14
(lp616
F0.01
aF0.015
atp617
Rp618
(dp619
g11
I00
sg19
I01
sg20
I00
sbsS'qieOffset'
p620
g0
(g481
g14
(lp621
F0.0
aF0.0
aF0.0
aF0.0
atp622
Rp623
(dp624
g11
I00
sg19
I01
sg20
I00
sbsS'qieSlope'
p625
g0
(g481
g14
(lp626
F0.05376
aF0.05376
aF0.05376
aF0.05376
atp627
Rp628
(dp629
g11
I00
sg19
I01
sg20
I00
sbsS'radiationDamage'
p630
g0
(g28
g2
Ntp631
Rp632
(dp633
g11
I00
sg19
I01
sS'temperatureNew'
p634
g0
(g367
g2
Ntp635
Rp636
(dp637
g11
I00
sg19
I01
sg37
I5
sg20
I00
sbsg20
I00
sS'depVsNeutrons'
p638
g0
(g481
g14
(lp639
F5.543e-10
aF8.012e-10
atp640
Rp641
(dp642
g11
I00
sg19
I01
sg20
I00
sbsS'temperatureBase'
p643
g0
(g367
g2
Ntp644
Rp645
(dp646
g11
I00
sg19
I01
sg37
I20
sg20
I00
sbsS'depVsTemp'
p647
g0
(g367
g2
Ntp648
Rp649
(dp650
g11
I00
sg19
I01
sg37
F0.0631
sg20
I00
sbsS'intlumiOffset'
p651
g0
(g367
g2
Ntp652
Rp653
(dp654
g11
I00
sg19
I01
sg37
I75
sg20
I00
sbsg38
(lp655
g634
ag638
ag643
ag647
ag651
aS'intlumiToNeutrons'
p656
asg656
g0
(g367
g2
Ntp657
Rp658
(dp659
g11
I00
sg19
I01
sg37
F29200000.0
sg20
I00
sbsbsS'doRadiationDamage'
p660
g0
(g33
g2
Ntp661
Rp662
(dp663
g11
I00
sg19
I01
sg37
I01
sg20
I00
sbsg38
(lp664
g599
ag603
ag607
ag611
aS'photoelectronsToAnalog'
p665
ag620
ag625
ag630
ag660
ag615
aS'pedestal'
p666
aS'mcShape'
p667
aS'gainWidth'
p668
aS'gain'
p669
asg665
g0
(g367
g2
Ntp670
Rp671
(dp672
g11
I00
sg19
I01
sg37
F40.0
sg20
I00
sbsg666
g0
(g367
g2
Ntp673
Rp674
(dp675
g11
I00
sg19
I01
sg37
F17.3
sg20
I00
sbsg667
g0
(g103
g2
Ntp676
Rp677
(dp678
g11
I00
sg19
I01
sg37
I206
sg20
I00
sbsg668
g0
(g481
g14
(lp679
I0
atp680
Rp681
(dp682
g11
I00
sg19
I01
sg20
I00
sbsg669
g0
(g481
g14
(lp683
F0.0006252
atp684
Rp685
(dp686
g11
I00
sg19
I01
sg20
I00
sbsbsg38
(lp687
S'toGet'
p688
ag582
ag586
ag590
ag476
ag595
aS'useIeta18depth1'
p689
aS'killHE'
p690
aS'useHBUpgrade'
p691
aS'hbUpgrade'
p692
aS'testHEPlan1'
p693
aS'iLumi'
p694
aS'testHFQIE10'
p695
aS'HBmeanenergies'
p696
ag578
aS'GainWidthsForTrigPrims'
p697
aS'HBreCalibCutoff'
p698
aS'HFRecalibration'
p699
aS'ho'
p700
aS'hb'
p701
aS'hf'
p702
aS'he'
p703
aS'HERecalibration'
p704
aS'useHFUpgrade'
p705
aS'HEreCalibCutoff'
p706
aS'SiPMCharacteristics'
p707
aS'useHOUpgrade'
p708
aS'hfUpgrade'
p709
asg69
S'/cvmfs/cms.cern.ch/slc7_amd64_gcc700/cms/cmssw-patch/CMSSW_10_2_4_patch1/python/CalibCalorimetry/HcalPlugins/Hcal_Conditions_forGlobalTag_cff.py'
p710
sg689
g0
(g33
g2
Ntp711
Rp712
(dp713
g11
I00
sg19
I01
sg37
I01
sg20
I00
sbsg690
g0
(g33
g2
Ntp714
Rp715
(dp716
g11
I00
sg19
I01
sg37
I00
sg20
I00
sbsg691
g0
(g33
g2
Ntp717
Rp718
(dp719
g11
I00
sg19
I01
sg37
I00
sg20
I00
sbsg692
g0
(g28
g2
Ntp720
Rp721
(dp722
g11
I00
sg19
I01
sg599
g0
(g103
g2
Ntp723
Rp724
(dp725
g11
I00
sg19
I01
sg37
I2
sg20
I00
sbsg20
I00
sg603
g0
(g367
g2
Ntp726
Rp727
(dp728
g11
I00
sg19
I01
sg37
F1.5
sg20
I00
sbsg607
g0
(g103
g2
Ntp729
Rp730
(dp731
g11
I00
sg19
I01
sg37
I206
sg20
I00
sbsg611
g0
(g103
g2
Ntp732
Rp733
(dp734
g11
I00
sg19
I01
sg37
I16
sg20
I00
sbsg615
g0
(g481
g14
(lp735
F0.01
aF0.015
atp736
Rp737
(dp738
g11
I00
sg19
I01
sg20
I00
sbsg620
g0
(g481
g14
(lp739
F0.0
aF0.0
aF0.0
aF0.0
atp740
Rp741
(dp742
g11
I00
sg19
I01
sg20
I00
sbsg625
g0
(g481
g14
(lp743
F0.05376
aF0.05376
aF0.05376
aF0.05376
atp744
Rp745
(dp746
g11
I00
sg19
I01
sg20
I00
sbsg630
g0
(g28
g2
Ntp747
Rp748
(dp749
g11
I00
sg19
I01
sg634
g0
(g367
g2
Ntp750
Rp751
(dp752
g11
I00
sg19
I01
sg37
I-5
sg20
I00
sbsg20
I00
sg638
g0
(g481
g14
(lp753
F5.543e-10
aF8.012e-10
atp754
Rp755
(dp756
g11
I00
sg19
I01
sg20
I00
sbsg643
g0
(g367
g2
Ntp757
Rp758
(dp759
g11
I00
sg19
I01
sg37
I20
sg20
I00
sbsg647
g0
(g367
g2
Ntp760
Rp761
(dp762
g11
I00
sg19
I01
sg37
F0.0631
sg20
I00
sbsg651
g0
(g367
g2
Ntp763
Rp764
(dp765
g11
I00
sg19
I01
sg37
I150
sg20
I00
sbsg38
(lp766
g634
ag638
ag643
ag647
ag651
ag656
asg656
g0
(g367
g2
Ntp767
Rp768
(dp769
g11
I00
sg19
I01
sg37
F367000000.0
sg20
I00
sbsbsg660
g0
(g33
g2
Ntp770
Rp771
(dp772
g11
I00
sg19
I01
sg37
I01
sg20
I00
sbsg38
(lp773
g599
ag603
ag607
ag611
ag665
ag620
ag625
ag630
ag660
ag615
ag666
ag667
ag668
ag669
asg665
g0
(g367
g2
Ntp774
Rp775
(dp776
g11
I00
sg19
I01
sg37
F40.0
sg20
I00
sbsg666
g0
(g367
g2
Ntp777
Rp778
(dp779
g11
I00
sg19
I01
sg37
F17.3
sg20
I00
sbsg667
g0
(g103
g2
Ntp780
Rp781
(dp782
g11
I00
sg19
I01
sg37
I206
sg20
I00
sbsg668
g0
(g481
g14
(lp783
I0
atp784
Rp785
(dp786
g11
I00
sg19
I01
sg20
I00
sbsg669
g0
(g481
g14
(lp787
F0.0006252
atp788
Rp789
(dp790
g11
I00
sg19
I01
sg20
I00
sbsbsg46
S'HcalHardcodeCalibrations'
p791
sg693
g0
(g33
g2
Ntp792
Rp793
(dp794
g11
I00
sg19
I01
sg37
I00
sg20
I00
sbsg694
g0
(g367
g2
Ntp795
Rp796
(dp797
g11
I00
sg19
I01
sg37
F-1.0
sg20
I00
sbsg695
g0
(g33
g2
Ntp798
Rp799
(dp800
g11
I00
sg19
I01
sg37
I00
sg20
I00
sbsg696
g0
(g568
g2
Ntp801
Rp802
(dp803
g11
I00
sg19
I01
sg37
S'CalibCalorimetry/HcalPlugins/data/meanenergiesHB.txt'
p804
sg20
I00
sbsg688
g0
(g13
g14
(lp805
S'GainWidths'
p806
atp807
Rp808
(dp809
g11
I00
sg19
I00
sg20
I00
sg21
I1
sbsg697
g0
(g33
g2
Ntp810
Rp811
(dp812
g11
I00
sg19
I01
sg37
I00
sg20
I00
sbsg698
g0
(g367
g2
Ntp813
Rp814
(dp815
g11
I00
sg19
I01
sg37
F20.0
sg20
I00
sbsg699
g0
(g33
g2
Ntp816
Rp817
(dp818
g11
I00
sg19
I01
sg37
I00
sg20
I00
sbsg700
g0
(g28
g2
Ntp819
Rp820
(dp821
g11
I00
sg19
I01
sg599
g0
(g103
g2
Ntp822
Rp823
(dp824
g11
I00
sg19
I01
sg37
I0
sg20
I00
sbsg20
I00
sg603
g0
(g367
g2
Ntp825
Rp826
(dp827
g11
I00
sg19
I01
sg37
F0.6285
sg20
I00
sbsg607
g0
(g103
g2
Ntp828
Rp829
(dp830
g11
I00
sg19
I01
sg37
I201
sg20
I00
sbsg611
g0
(g103
g2
Ntp831
Rp832
(dp833
g11
I00
sg19
I01
sg37
I24
sg20
I00
sbsg615
g0
(g481
g14
(lp834
F0.0
atp835
Rp836
(dp837
g11
I00
sg19
I01
sg20
I00
sbsg620
g0
(g481
g14
(lp838
F-0.44
aF1.4
aF7.1
aF38.5
atp839
Rp840
(dp841
g11
I00
sg19
I01
sg20
I00
sbsg625
g0
(g481
g14
(lp842
F0.907
aF0.915
aF0.92
aF0.921
atp843
Rp844
(dp845
g11
I00
sg19
I01
sg20
I00
sbsg669
g0
(g481
g14
(lp846
F0.006
aF0.0087
atp847
Rp848
(dp849
g11
I00
sg19
I01
sg20
I00
sbsg660
g0
(g33
g2
Ntp850
Rp851
(dp852
g11
I00
sg19
I01
sg37
I00
sg20
I00
sbsg38
(lp853
g599
ag603
ag607
ag611
ag665
ag620
ag625
ag669
ag660
ag615
ag666
ag667
ag668
asg665
g0
(g367
g2
Ntp854
Rp855
(dp856
g11
I00
sg19
I01
sg37
F4.0
sg20
I00
sbsg666
g0
(g367
g2
Ntp857
Rp858
(dp859
g11
I00
sg19
I01
sg37
F12.06
sg20
I00
sbsg667
g0
(g103
g2
Ntp860
Rp861
(dp862
g11
I00
sg19
I01
sg37
I201
sg20
I00
sbsg668
g0
(g481
g14
(lp863
F0.0
aF0.0
atp864
Rp865
(dp866
g11
I00
sg19
I01
sg20
I00
sbsbsg701
g0
(g28
g2
Ntp867
Rp868
(dp869
g11
I00
sg19
I01
sg599
g0
(g103
g2
Ntp870
Rp871
(dp872
g11
I00
sg19
I01
sg37
I0
sg20
I00
sbsg20
I00
sg603
g0
(g367
g2
Ntp873
Rp874
(dp875
g11
I00
sg19
I01
sg37
F0.809
sg20
I00
sbsg607
g0
(g103
g2
Ntp876
Rp877
(dp878
g11
I00
sg19
I01
sg37
I105
sg20
I00
sbsg611
g0
(g103
g2
Ntp879
Rp880
(dp881
g11
I00
sg19
I01
sg37
I8
sg20
I00
sbsg615
g0
(g481
g14
(lp882
F0.0
atp883
Rp884
(dp885
g11
I00
sg19
I01
sg20
I00
sbsg620
g0
(g481
g14
(lp886
F-0.49
aF1.8
aF7.2
aF37.9
atp887
Rp888
(dp889
g11
I00
sg19
I01
sg20
I00
sbsg625
g0
(g481
g14
(lp890
F0.912
aF0.917
aF0.922
aF0.923
atp891
Rp892
(dp893
g11
I00
sg19
I01
sg20
I00
sbsg669
g0
(g481
g14
(lp894
F0.19
atp895
Rp896
(dp897
g11
I00
sg19
I01
sg20
I00
sbsg660
g0
(g33
g2
Ntp898
Rp899
(dp900
g11
I00
sg19
I01
sg37
I00
sg20
I00
sbsg38
(lp901
g599
ag603
ag607
ag611
ag665
ag620
ag625
ag669
ag660
ag615
ag666
ag667
ag668
asg665
g0
(g367
g2
Ntp902
Rp903
(dp904
g11
I00
sg19
I01
sg37
F0.3305
sg20
I00
sbsg666
g0
(g367
g2
Ntp905
Rp906
(dp907
g11
I00
sg19
I01
sg37
F3.285
sg20
I00
sbsg667
g0
(g103
g2
Ntp908
Rp909
(dp910
g11
I00
sg19
I01
sg37
I125
sg20
I00
sbsg668
g0
(g481
g14
(lp911
F0.0
atp912
Rp913
(dp914
g11
I00
sg19
I01
sg20
I00
sbsbsg702
g0
(g28
g2
Ntp915
Rp916
(dp917
g11
I00
sg19
I01
sg599
g0
(g103
g2
Ntp918
Rp919
(dp920
g11
I00
sg19
I01
sg37
I0
sg20
I00
sbsg20
I00
sg603
g0
(g367
g2
Ntp921
Rp922
(dp923
g11
I00
sg19
I01
sg37
F2.516
sg20
I00
sbsg607
g0
(g103
g2
Ntp924
Rp925
(dp926
g11
I00
sg19
I01
sg37
I301
sg20
I00
sbsg611
g0
(g103
g2
Ntp927
Rp928
(dp929
g11
I00
sg19
I01
sg37
I-9999
sg20
I00
sbsg615
g0
(g481
g14
(lp930
F0.0
atp931
Rp932
(dp933
g11
I00
sg19
I01
sg20
I00
sbsg620
g0
(g481
g14
(lp934
F-0.87
aF1.4
aF7.8
aF-29.6
atp935
Rp936
(dp937
g11
I00
sg19
I01
sg20
I00
sbsg625
g0
(g481
g14
(lp938
F0.359
aF0.358
aF0.36
aF0.367
atp939
Rp940
(dp941
g11
I00
sg19
I01
sg20
I00
sbsg669
g0
(g481
g14
(lp942
F0.14
aF0.135
atp943
Rp944
(dp945
g11
I00
sg19
I01
sg20
I00
sbsg660
g0
(g33
g2
Ntp946
Rp947
(dp948
g11
I00
sg19
I01
sg37
I00
sg20
I00
sbsg38
(lp949
g599
ag603
ag607
ag611
ag665
ag620
ag625
ag669
ag660
ag615
ag666
ag667
ag668
asg665
g0
(g367
g2
Ntp950
Rp951
(dp952
g11
I00
sg19
I01
sg37
F0.0
sg20
I00
sbsg666
g0
(g367
g2
Ntp953
Rp954
(dp955
g11
I00
sg19
I01
sg37
F9.354
sg20
I00
sbsg667
g0
(g103
g2
Ntp956
Rp957
(dp958
g11
I00
sg19
I01
sg37
I301
sg20
I00
sbsg668
g0
(g481
g14
(lp959
F0.0
aF0.0
atp960
Rp961
(dp962
g11
I00
sg19
I01
sg20
I00
sbsbsg703
g0
(g28
g2
Ntp963
Rp964
(dp965
g11
I00
sg19
I01
sg599
g0
(g103
g2
Ntp966
Rp967
(dp968
g11
I00
sg19
I01
sg37
I0
sg20
I00
sbsg20
I00
sg603
g0
(g367
g2
Ntp969
Rp970
(dp971
g11
I00
sg19
I01
sg37
F0.9698
sg20
I00
sbsg607
g0
(g103
g2
Ntp972
Rp973
(dp974
g11
I00
sg19
I01
sg37
I105
sg20
I00
sbsg611
g0
(g103
g2
Ntp975
Rp976
(dp977
g11
I00
sg19
I01
sg37
I9
sg20
I00
sbsg615
g0
(g481
g14
(lp978
F0.0
atp979
Rp980
(dp981
g11
I00
sg19
I01
sg20
I00
sbsg620
g0
(g481
g14
(lp982
F-0.38
aF2.0
aF7.6
aF39.6
atp983
Rp984
(dp985
g11
I00
sg19
I01
sg20
I00
sbsg625
g0
(g481
g14
(lp986
F0.912
aF0.916
aF0.92
aF0.922
atp987
Rp988
(dp989
g11
I00
sg19
I01
sg20
I00
sbsg669
g0
(g481
g14
(lp990
F0.23
atp991
Rp992
(dp993
g11
I00
sg19
I01
sg20
I00
sbsg660
g0
(g33
g2
Ntp994
Rp995
(dp996
g11
I00
sg19
I01
sg37
I00
sg20
I00
sbsg38
(lp997
g599
ag603
ag607
ag611
ag665
ag620
ag625
ag669
ag660
ag615
ag666
ag667
ag668
asg665
g0
(g367
g2
Ntp998
Rp999
(dp1000
g11
I00
sg19
I01
sg37
F0.3305
sg20
I00
sbsg666
g0
(g367
g2
Ntp1001
Rp1002
(dp1003
g11
I00
sg19
I01
sg37
F3.163
sg20
I00
sbsg667
g0
(g103
g2
Ntp1004
Rp1005
(dp1006
g11
I00
sg19
I01
sg37
I125
sg20
I00
sbsg668
g0
(g481
g14
(lp1007
I0
atp1008
Rp1009
(dp1010
g11
I00
sg19
I01
sg20
I00
sbsbsg20
I00
sg704
g0
(g33
g2
Ntp1011
Rp1012
(dp1013
g11
I00
sg19
I01
sg37
I00
sg20
I00
sbsg705
g0
(g33
g2
Ntp1014
Rp1015
(dp1016
g11
I00
sg19
I01
sg37
I00
sg20
I00
sbsg706
g0
(g367
g2
Ntp1017
Rp1018
(dp1019
g11
I00
sg19
I01
sg37
F20.0
sg20
I00
sbsg707
g0
(cFWCore.ParameterSet.Types
VPSet
p1020
g14
(lp1021
g0
(g28
g2
Ntp1022
Rp1023
(dp1024
g11
I00
sg19
I01
sg20
I00
sS'crosstalk'
p1025
g0
(g367
g2
Ntp1026
Rp1027
(dp1028
g11
I00
sg19
I01
sg37
F0.0
sg20
I00
sbsS'nonlin1'
p1029
g0
(g367
g2
Ntp1030
Rp1031
(dp1032
g11
I00
sg19
I01
sg37
F1.0
sg20
I00
sbsS'nonlin3'
p1033
g0
(g367
g2
Ntp1034
Rp1035
(dp1036
g11
I00
sg19
I01
sg37
F0.0
sg20
I00
sbsS'nonlin2'
p1037
g0
(g367
g2
Ntp1038
Rp1039
(dp1040
g11
I00
sg19
I01
sg37
F0.0
sg20
I00
sbsg38
(lp1041
g1029
ag1033
ag1037
aS'pixels'
p1042
ag1025
asg1042
g0
(g103
g2
Ntp1043
Rp1044
(dp1045
g11
I00
sg19
I01
sg37
I36000
sg20
I00
sbsbag0
(g28
g2
Ntp1046
Rp1047
(dp1048
g11
I00
sg19
I01
sg20
I00
sg1025
g0
(g367
g2
Ntp1049
Rp1050
(dp1051
g11
I00
sg19
I01
sg37
F0.0
sg20
I00
sbsg1029
g0
(g367
g2
Ntp1052
Rp1053
(dp1054
g11
I00
sg19
I01
sg37
F1.0
sg20
I00
sbsg1033
g0
(g367
g2
Ntp1055
Rp1056
(dp1057
g11
I00
sg19
I01
sg37
F0.0
sg20
I00
sbsg1037
g0
(g367
g2
Ntp1058
Rp1059
(dp1060
g11
I00
sg19
I01
sg37
F0.0
sg20
I00
sbsg38
(lp1061
g1029
ag1033
ag1037
ag1042
ag1025
asg1042
g0
(g103
g2
Ntp1062
Rp1063
(dp1064
g11
I00
sg19
I01
sg37
I2500
sg20
I00
sbsbag0
(g28
g2
Ntp1065
Rp1066
(dp1067
g11
I00
sg19
I01
sg20
I00
sg1025
g0
(g367
g2
Ntp1068
Rp1069
(dp1070
g11
I00
sg19
I01
sg37
F0.17
sg20
I00
sbsg1029
g0
(g367
g2
Ntp1071
Rp1072
(dp1073
g11
I00
sg19
I01
sg37
F1.00985
sg20
I00
sbsg1033
g0
(g367
g2
Ntp1074
Rp1075
(dp1076
g11
I00
sg19
I01
sg37
F2.86282e-10
sg20
I00
sbsg1037
g0
(g367
g2
Ntp1077
Rp1078
(dp1079
g11
I00
sg19
I01
sg37
F7.84089e-06
sg20
I00
sbsg38
(lp1080
g1029
ag1033
ag1037
ag1042
ag1025
asg1042
g0
(g103
g2
Ntp1081
Rp1082
(dp1083
g11
I00
sg19
I01
sg37
I27370
sg20
I00
sbsbag0
(g28
g2
Ntp1084
Rp1085
(dp1086
g11
I00
sg19
I01
sg20
I00
sg1025
g0
(g367
g2
Ntp1087
Rp1088
(dp1089
g11
I00
sg19
I01
sg37
F0.196
sg20
I00
sbsg1029
g0
(g367
g2
Ntp1090
Rp1091
(dp1092
g11
I00
sg19
I01
sg37
F1.00546
sg20
I00
sbsg1033
g0
(g367
g2
Ntp1093
Rp1094
(dp1095
g11
I00
sg19
I01
sg37
F1.27011e-10
sg20
I00
sbsg1037
g0
(g367
g2
Ntp1096
Rp1097
(dp1098
g11
I00
sg19
I01
sg37
F6.40239e-06
sg20
I00
sbsg38
(lp1099
g1029
ag1033
ag1037
ag1042
ag1025
asg1042
g0
(g103
g2
Ntp1100
Rp1101
(dp1102
g11
I00
sg19
I01
sg37
I38018
sg20
I00
sbsbag0
(g28
g2
Ntp1103
Rp1104
(dp1105
g11
I00
sg19
I01
sg20
I00
sg1025
g0
(g367
g2
Ntp1106
Rp1107
(dp1108
g11
I00
sg19
I01
sg37
F0.17
sg20
I00
sbsg1029
g0
(g367
g2
Ntp1109
Rp1110
(dp1111
g11
I00
sg19
I01
sg37
F1.00985
sg20
I00
sbsg1033
g0
(g367
g2
Ntp1112
Rp1113
(dp1114
g11
I00
sg19
I01
sg37
F2.86282e-10
sg20
I00
sbsg1037
g0
(g367
g2
Ntp1115
Rp1116
(dp1117
g11
I00
sg19
I01
sg37
F7.84089e-06
sg20
I00
sbsg38
(lp1118
g1029
ag1033
ag1037
ag1042
ag1025
asg1042
g0
(g103
g2
Ntp1119
Rp1120
(dp1121
g11
I00
sg19
I01
sg37
I27370
sg20
I00
sbsbag0
(g28
g2
Ntp1122
Rp1123
(dp1124
g11
I00
sg19
I01
sg20
I00
sg1025
g0
(g367
g2
Ntp1125
Rp1126
(dp1127
g11
I00
sg19
I01
sg37
F0.196
sg20
I00
sbsg1029
g0
(g367
g2
Ntp1128
Rp1129
(dp1130
g11
I00
sg19
I01
sg37
F1.00546
sg20
I00
sbsg1033
g0
(g367
g2
Ntp1131
Rp1132
(dp1133
g11
I00
sg19
I01
sg37
F1.27011e-10
sg20
I00
sbsg1037
g0
(g367
g2
Ntp1134
Rp1135
(dp1136
g11
I00
sg19
I01
sg37
F6.40239e-06
sg20
I00
sbsg38
(lp1137
g1029
ag1033
ag1037
ag1042
ag1025
asg1042
g0
(g103
g2
Ntp1138
Rp1139
(dp1140
g11
I00
sg19
I01
sg37
I38018
sg20
I00
sbsbag0
(g28
g2
Ntp1141
Rp1142
(dp1143
g11
I00
sg19
I01
sg20
I00
sg1025
g0
(g367
g2
Ntp1144
Rp1145
(dp1146
g11
I00
sg19
I01
sg37
F0.0
sg20
I00
sbsg1029
g0
(g367
g2
Ntp1147
Rp1148
(dp1149
g11
I00
sg19
I01
sg37
F1.0
sg20
I00
sbsg1033
g0
(g367
g2
Ntp1150
Rp1151
(dp1152
g11
I00
sg19
I01
sg37
F0.0
sg20
I00
sbsg1037
g0
(g367
g2
Ntp1153
Rp1154
(dp1155
g11
I00
sg19
I01
sg37
F0.0
sg20
I00
sbsg38
(lp1156
g1029
ag1033
ag1037
ag1042
ag1025
asg1042
g0
(g103
g2
Ntp1157
Rp1158
(dp1159
g11
I00
sg19
I01
sg37
I0
sg20
I00
sbsbatp1160
Rp1161
(dp1162
g11
I00
sg19
I01
sg20
I00
sg21
I1
sbsg286
g574
sg708
g0
(g33
g2
Ntp1163
Rp1164
(dp1165
g11
I00
sg19
I01
sg37
I01
sg20
I00
sbsg709
g0
(g28
g2
Ntp1166
Rp1167
(dp1168
g11
I00
sg19
I01
sg599
g0
(g103
g2
Ntp1169
Rp1170
(dp1171
g11
I00
sg19
I01
sg37
I1
sg20
I00
sbsg20
I00
sg603
g0
(g367
g2
Ntp1172
Rp1173
(dp1174
g11
I00
sg19
I01
sg37
F3.33
sg20
I00
sbsg607
g0
(g103
g2
Ntp1175
Rp1176
(dp1177
g11
I00
sg19
I01
sg37
I301
sg20
I00
sbsg611
g0
(g103
g2
Ntp1178
Rp1179
(dp1180
g11
I00
sg19
I01
sg37
I-9999
sg20
I00
sbsg615
g0
(g481
g14
(lp1181
F0.0
atp1182
Rp1183
(dp1184
g11
I00
sg19
I01
sg20
I00
sbsg620
g0
(g481
g14
(lp1185
F0.0697
aF-0.7405
aF12.38
aF-671.9
atp1186
Rp1187
(dp1188
g11
I00
sg19
I01
sg20
I00
sbsg625
g0
(g481
g14
(lp1189
F0.297
aF0.298
aF0.298
aF0.313
atp1190
Rp1191
(dp1192
g11
I00
sg19
I01
sg20
I00
sbsg669
g0
(g481
g14
(lp1193
F0.14
aF0.135
atp1194
Rp1195
(dp1196
g11
I00
sg19
I01
sg20
I00
sbsg660
g0
(g33
g2
Ntp1197
Rp1198
(dp1199
g11
I00
sg19
I01
sg37
I00
sg20
I00
sbsg38
(lp1200
g599
ag603
ag607
ag611
ag665
ag620
ag625
ag669
ag660
ag615
ag666
ag667
ag668
asg665
g0
(g367
g2
Ntp1201
Rp1202
(dp1203
g11
I00
sg19
I01
sg37
F0.0
sg20
I00
sbsg666
g0
(g367
g2
Ntp1204
Rp1205
(dp1206
g11
I00
sg19
I01
sg37
F13.33
sg20
I00
sbsg667
g0
(g103
g2
Ntp1207
Rp1208
(dp1209
g11
I00
sg19
I01
sg37
I301
sg20
I00
sbsg668
g0
(g481
g14
(lp1210
F0.0
aF0.0
atp1211
Rp1212
(dp1213
g11
I00
sg19
I01
sg20
I00
sbsbsbsS'GlobalTag'
p1214
g0
(g562
g2
Ntp1215
Rp1216
(dp1217
g38
(lp1218
S'DBParameters'
p1219
aS'connect'
p1220
aS'globaltag'
p1221
aS'RefreshEachRun'
p1222
aS'pfnPrefix'
p1223
aS'snapshotTime'
p1224
ag688
aS'pfnPostfix'
p1225
aS'RefreshAlways'
p1226
aS'ReconnectEachRun'
p1227
aS'RefreshOpenIOVs'
p1228
aS'DumpStat'
p1229
asg11
I00
sg69
S'/cvmfs/cms.cern.ch/slc7_amd64_gcc700/cms/cmssw-patch/CMSSW_10_2_4_patch1/python/CondCore/ESSources/CondDBESSource_cfi.py'
p1230
sg20
I01
sg1221
g0
(g164
g2
Ntp1231
Rp1232
(dp1233
g11
I00
sg19
I01
sg37
S'92X_dataRun2_Prompt_v4'
p1234
sg20
I01
sbsg1222
g0
(g33
g2
Ntp1235
Rp1236
(dp1237
g11
I00
sg19
I00
sg37
I00
sg20
I00
sbsg1223
g0
(g164
g2
Ntp1238
Rp1239
(dp1240
g11
I00
sg19
I00
sg37
g283
sg20
I00
sbsg1224
g0
(g164
g2
Ntp1241
Rp1242
(dp1243
g11
I00
sg19
I01
sg37
g283
sg20
I00
sbsg688
g0
(g1020
g14
(lp1244
tp1245
Rp1246
(dp1247
g11
I00
sg19
I01
sg20
I00
sg21
I1
sbsg1225
g0
(g164
g2
Ntp1248
Rp1249
(dp1250
g11
I00
sg19
I00
sg37
g283
sg20
I00
sbsg1219
g0
(g28
g2
Ntp1251
Rp1252
(dp1253
g11
I00
sg19
I01
sS'authenticationPath'
p1254
g0
(g164
g2
Ntp1255
Rp1256
(dp1257
g11
I00
sg19
I00
sg37
g283
sg20
I00
sbsg20
I00
sS'messageLevel'
p1258
g0
(g103
g2
Ntp1259
Rp1260
(dp1261
g11
I00
sg19
I00
sg37
I0
sg20
I00
sbsg38
(lp1262
g1258
aS'security'
p1263
aS'authenticationSystem'
p1264
ag1254
asg1263
g0
(g164
g2
Ntp1265
Rp1266
(dp1267
g11
I00
sg19
I00
sg37
g283
sg20
I00
sbsg1264
g0
(g103
g2
Ntp1268
Rp1269
(dp1270
g11
I00
sg19
I00
sg37
I0
sg20
I00
sbsbsg1226
g0
(g33
g2
Ntp1271
Rp1272
(dp1273
g11
I00
sg19
I00
sg37
I00
sg20
I00
sbsg40
I19
sg1220
g0
(g164
g2
Ntp1274
Rp1275
(dp1276
g11
I00
sg19
I01
sg37
S'frontier://FrontierProd/CMS_CONDITIONS'
p1277
sg20
I00
sbsg1227
g0
(g33
g2
Ntp1278
Rp1279
(dp1280
g11
I00
sg19
I00
sg37
I00
sg20
I00
sbsg286
g1214
sg1228
g0
(g33
g2
Ntp1281
Rp1282
(dp1283
g11
I00
sg19
I00
sg37
I00
sg20
I00
sbsg1229
g0
(g33
g2
Ntp1284
Rp1285
(dp1286
g11
I00
sg19
I00
sg37
I00
sg20
I00
sbsg46
S'PoolDBESSource'
p1287
sbsS'HcalTimeSlewEP'
p1288
g0
(g562
g2
Ntp1289
Rp1290
(dp1291
g38
(lp1292
S'timeSlewParametersM3'
p1293
aS'timeSlewParametersM2'
p1294
aS'appendToDataLabel'
p1295
asg11
I00
sg1293
g0
(g1020
g14
(lp1296
g0
(g28
g2
Ntp1297
Rp1298
(dp1299
g11
I00
sg19
I01
sS'tspar2'
p1300
g0
(g367
g2
Ntp1301
Rp1302
(dp1303
g11
I00
sg19
I01
sg37
F0.0
sg20
I00
sbsg20
I00
sS'tspar0'
p1304
g0
(g367
g2
Ntp1305
Rp1306
(dp1307
g11
I00
sg19
I01
sg37
F12.2999
sg20
I00
sbsS'tspar1'
p1308
g0
(g367
g2
Ntp1309
Rp1310
(dp1311
g11
I00
sg19
I01
sg37
F-2.19142
sg20
I00
sbsS'tspar1_siPM'
p1312
g0
(g367
g2
Ntp1313
Rp1314
(dp1315
g11
I00
sg19
I01
sg37
F0.0
sg20
I00
sbsS'cap'
p1316
g0
(g367
g2
Ntp1317
Rp1318
(dp1319
g11
I00
sg19
I01
sg37
F6.0
sg20
I00
sbsS'tspar0_siPM'
p1320
g0
(g367
g2
Ntp1321
Rp1322
(dp1323
g11
I00
sg19
I01
sg37
F0.0
sg20
I00
sbsg38
(lp1324
g1300
ag1304
ag1308
ag1312
ag1316
ag1320
aS'tspar2_siPM'
p1325
asg1325
g0
(g367
g2
Ntp1326
Rp1327
(dp1328
g11
I00
sg19
I01
sg37
F0.0
sg20
I00
sbsbag0
(g28
g2
Ntp1329
Rp1330
(dp1331
g11
I00
sg19
I01
sg1300
g0
(g367
g2
Ntp1332
Rp1333
(dp1334
g11
I00
sg19
I01
sg37
F32.0
sg20
I00
sbsg20
I00
sg1304
g0
(g367
g2
Ntp1335
Rp1336
(dp1337
g11
I00
sg19
I01
sg37
F15.5
sg20
I00
sbsg1308
g0
(g367
g2
Ntp1338
Rp1339
(dp1340
g11
I00
sg19
I01
sg37
F-3.2
sg20
I00
sbsg1312
g0
(g367
g2
Ntp1341
Rp1342
(dp1343
g11
I00
sg19
I01
sg37
F0.0
sg20
I00
sbsg1316
g0
(g367
g2
Ntp1344
Rp1345
(dp1346
g11
I00
sg19
I01
sg37
F6.0
sg20
I00
sbsg1320
g0
(g367
g2
Ntp1347
Rp1348
(dp1349
g11
I00
sg19
I01
sg37
F0.0
sg20
I00
sbsg38
(lp1350
g1300
ag1304
ag1308
ag1312
ag1316
ag1320
ag1325
asg1325
g0
(g367
g2
Ntp1351
Rp1352
(dp1353
g11
I00
sg19
I01
sg37
F0.0
sg20
I00
sbsbag0
(g28
g2
Ntp1354
Rp1355
(dp1356
g11
I00
sg19
I01
sg1300
g0
(g367
g2
Ntp1357
Rp1358
(dp1359
g11
I00
sg19
I01
sg37
F0.0
sg20
I00
sbsg20
I00
sg1304
g0
(g367
g2
Ntp1360
Rp1361
(dp1362
g11
I00
sg19
I01
sg37
F12.2999
sg20
I00
sbsg1308
g0
(g367
g2
Ntp1363
Rp1364
(dp1365
g11
I00
sg19
I01
sg37
F-2.19142
sg20
I00
sbsg1312
g0
(g367
g2
Ntp1366
Rp1367
(dp1368
g11
I00
sg19
I01
sg37
F0.0
sg20
I00
sbsg1316
g0
(g367
g2
Ntp1369
Rp1370
(dp1371
g11
I00
sg19
I01
sg37
F6.0
sg20
I00
sbsg1320
g0
(g367
g2
Ntp1372
Rp1373
(dp1374
g11
I00
sg19
I01
sg37
F0.0
sg20
I00
sbsg38
(lp1375
g1300
ag1304
ag1308
ag1312
ag1316
ag1320
ag1325
asg1325
g0
(g367
g2
Ntp1376
Rp1377
(dp1378
g11
I00
sg19
I01
sg37
F0.0
sg20
I00
sbsbag0
(g28
g2
Ntp1379
Rp1380
(dp1381
g11
I00
sg19
I01
sg1300
g0
(g367
g2
Ntp1382
Rp1383
(dp1384
g11
I00
sg19
I01
sg37
F0.0
sg20
I00
sbsg20
I00
sg1304
g0
(g367
g2
Ntp1385
Rp1386
(dp1387
g11
I00
sg19
I01
sg37
F12.2999
sg20
I00
sbsg1308
g0
(g367
g2
Ntp1388
Rp1389
(dp1390
g11
I00
sg19
I01
sg37
F-2.19142
sg20
I00
sbsg1312
g0
(g367
g2
Ntp1391
Rp1392
(dp1393
g11
I00
sg19
I01
sg37
F0.0
sg20
I00
sbsg1316
g0
(g367
g2
Ntp1394
Rp1395
(dp1396
g11
I00
sg19
I01
sg37
F6.0
sg20
I00
sbsg1320
g0
(g367
g2
Ntp1397
Rp1398
(dp1399
g11
I00
sg19
I01
sg37
F0.0
sg20
I00
sbsg38
(lp1400
g1300
ag1304
ag1308
ag1312
ag1316
ag1320
ag1325
asg1325
g0
(g367
g2
Ntp1401
Rp1402
(dp1403
g11
I00
sg19
I01
sg37
F0.0
sg20
I00
sbsbatp1404
Rp1405
(dp1406
g11
I00
sg19
I01
sg20
I00
sg21
I1
sbsg1294
g0
(g1020
g14
(lp1407
g0
(g28
g2
Ntp1408
Rp1409
(dp1410
g11
I00
sg19
I01
sg20
I00
sS'slope'
p1411
g0
(g367
g2
Ntp1412
Rp1413
(dp1414
g11
I00
sg19
I01
sg37
F-3.178648
sg20
I00
sbsS'tmax'
p1415
g0
(g367
g2
Ntp1416
Rp1417
(dp1418
g11
I00
sg19
I01
sg37
F16.0
sg20
I00
sbsS'tzero'
p1419
g0
(g367
g2
Ntp1420
Rp1421
(dp1422
g11
I00
sg19
I01
sg37
F23.960177
sg20
I00
sbsg38
(lp1423
g1411
ag1415
ag1419
asbag0
(g28
g2
Ntp1424
Rp1425
(dp1426
g11
I00
sg19
I01
sg20
I00
sg1411
g0
(g367
g2
Ntp1427
Rp1428
(dp1429
g11
I00
sg19
I01
sg37
F-1.556668
sg20
I00
sbsg1415
g0
(g367
g2
Ntp1430
Rp1431
(dp1432
g11
I00
sg19
I01
sg37
F10.0
sg20
I00
sbsg1419
g0
(g367
g2
Ntp1433
Rp1434
(dp1435
g11
I00
sg19
I01
sg37
F13.307784
sg20
I00
sbsg38
(lp1436
g1411
ag1415
ag1419
asbag0
(g28
g2
Ntp1437
Rp1438
(dp1439
g11
I00
sg19
I01
sg20
I00
sg1411
g0
(g367
g2
Ntp1440
Rp1441
(dp1442
g11
I00
sg19
I01
sg37
F-1.075824
sg20
I00
sbsg1415
g0
(g367
g2
Ntp1443
Rp1444
(dp1445
g11
I00
sg19
I01
sg37
F6.25
sg20
I00
sbsg1419
g0
(g367
g2
Ntp1446
Rp1447
(dp1448
g11
I00
sg19
I01
sg37
F9.109694
sg20
I00
sbsg38
(lp1449
g1411
ag1415
ag1419
asbatp1450
Rp1451
(dp1452
g11
I00
sg19
I01
sg20
I00
sg21
I1
sbsg20
I00
sg40
I23
sg69
S'/cvmfs/cms.cern.ch/slc7_amd64_gcc700/cms/cmssw-patch/CMSSW_10_2_4_patch1/python/CalibCalorimetry/HcalPlugins/HcalTimeSlew_cff.py'
p1453
sg1295
g0
(g164
g2
Ntp1454
Rp1455
(dp1456
g11
I00
sg19
I01
sg37
S'HBHE'
p1457
sg20
I00
sbsg286
g1288
sg46
g1288
sbssg353
g325
sg526
g528
sS'source'
p1458
g325
sS'CastorDbProducer'
p1459
g0
(g355
g2
Ntp1460
Rp1461
(dp1462
g38
(lp1463
g1295
asg11
I00
sg1295
g0
(g164
g2
Ntp1464
Rp1465
(dp1466
g11
I00
sg19
I01
sg37
g283
sg20
I00
sbsg20
I00
sg40
I53
sg69
g70
sg286
g1459
sg46
g1459
sbsS'_Process__vpsets'
p1467
(dp1468
sS'_Process__name'
p1469
S'analysis'
p1470
sg1288
g1290
sS'es_prefer_hcalHardcode'
p1471
g0
(cFWCore.ParameterSet.Modules
ESPrefer
p1472
g2
Ntp1473
Rp1474
(dp1475
g38
(lp1476
sg11
I00
sg20
I00
sS'_targetLabel'
p1477
g574
sg40
I89
sg69
g70
sg286
g1471
sg46
g791
sbsS'_Process__subProcesses'
p1478
(lp1479
sS'_cloneToObjectDict'
p1480
(dp1481
I140475512542288
g564
sI140475512542352
g258
sI140475512926096
g433
sI140475512440528
g0
(g355
g2
Ntp1482
Rp1483
(dp1484
g38
(lp1485
S'PreFilter'
p1486
ag361
aS'NSigmaInside'
p1487
asg11
I00
sg20
I00
sg69
g70
sg361
g0
(g164
g2
Ntp1488
Rp1489
(dp1490
g11
I00
sg19
I01
sg37
S'StandardMatcher'
p1491
sg20
I00
sbsg1486
g0
(g33
g2
Ntp1492
Rp1493
(dp1494
g11
I00
sg19
I01
sg37
I00
sg20
I00
sbsg40
I53
sg1487
g0
(g367
g2
Ntp1495
Rp1496
(dp1497
g11
I00
sg19
I01
sg37
F3.0
sg20
I00
sbsg286
S'SiStripRecHitMatcherESProducer'
p1498
sg46
g1498
sbsI140475512825616
g478
sI140475512440656
g0
(g355
g2
Ntp1499
Rp1500
(dp1501
g38
(lp1502
sg11
I00
sg20
I00
sg40
I53
sg69
g70
sg286
S'sistripconn'
p1503
sg46
S'SiStripConnectivity'
p1504
sbsI140475512441104
g269
sI140475512924496
g0
(g355
g2
Ntp1505
Rp1506
(dp1507
g38
(lp1508
S'printDebug'
p1509
ag1295
aS'APVGain'
p1510
aS'AutomaticNormalization'
p1511
asg11
I00
sg1295
g0
(g164
g2
Ntp1512
Rp1513
(dp1514
g11
I00
sg19
I01
sg37
g283
sg20
I00
sbsg20
I00
sg1511
g0
(g33
g2
Ntp1515
Rp1516
(dp1517
g11
I00
sg19
I01
sg37
I00
sg20
I00
sbsg40
I53
sg1509
g0
(g33
g2
Ntp1518
Rp1519
(dp1520
g11
I00
sg19
I00
sg37
I00
sg20
I00
sbsg69
g70
sg1510
g0
(g1020
g14
(lp1521
g0
(g28
g2
Ntp1522
Rp1523
(dp1524
g11
I00
sg19
I01
sg20
I00
sS'Label'
p1525
g0
(g164
g2
Ntp1526
Rp1527
(dp1528
g11
I00
sg19
I00
sg37
g283
sg20
I00
sbsS'Record'
p1529
g0
(g164
g2
Ntp1530
Rp1531
(dp1532
g11
I00
sg19
I01
sg37
S'SiStripApvGainRcd'
p1533
sg20
I00
sbsS'NormalizationFactor'
p1534
g0
(g367
g2
Ntp1535
Rp1536
(dp1537
g11
I00
sg19
I00
sg37
F1.0
sg20
I00
sbsg38
(lp1538
g1529
ag1534
ag1525
asbag0
(g28
g2
Ntp1539
Rp1540
(dp1541
g11
I00
sg19
I01
sg20
I00
sg1525
g0
(g164
g2
Ntp1542
Rp1543
(dp1544
g11
I00
sg19
I00
sg37
g283
sg20
I00
sbsg1529
g0
(g164
g2
Ntp1545
Rp1546
(dp1547
g11
I00
sg19
I01
sg37
S'SiStripApvGain2Rcd'
p1548
sg20
I00
sbsg1534
g0
(g367
g2
Ntp1549
Rp1550
(dp1551
g11
I00
sg19
I00
sg37
F1.0
sg20
I00
sbsg38
(lp1552
g1529
ag1534
ag1525
asbatp1553
Rp1554
(dp1555
g11
I00
sg19
I01
sg20
I00
sg21
I1
sbsg286
S'siStripGainESProducer'
p1556
sg46
S'SiStripGainESProducer'
p1557
sbsI140475512441296
g0
(g355
g2
Ntp1558
Rp1559
(dp1560
g38
(lp1561
S'ListOfRecordToMerge'
p1562
asg11
I00
sg20
I01
sg40
I53
sg69
g70
sg1562
g0
(g1020
g14
(lp1563
g0
(g28
g2
Ntp1564
Rp1565
(dp1566
g11
I00
sg19
I01
sg20
I00
sg446
g0
(g164
g2
Ntp1567
Rp1568
(dp1569
g11
I00
sg19
I01
sg37
S'SiPixelQualityFromDbRcd'
p1570
sg20
I00
sbsS'tag'
p1571
g0
(g164
g2
Ntp1572
Rp1573
(dp1574
g11
I00
sg19
I01
sg37
g283
sg20
I00
sbsg38
(lp1575
g446
ag1571
asbag0
(g28
g2
Ntp1576
Rp1577
(dp1578
g11
I00
sg19
I01
sg20
I00
sg446
g0
(g164
g2
Ntp1579
Rp1580
(dp1581
g11
I00
sg19
I01
sg37
S'SiPixelDetVOffRcd'
p1582
sg20
I00
sbsg1571
g0
(g164
g2
Ntp1583
Rp1584
(dp1585
g11
I00
sg19
I01
sg37
g283
sg20
I00
sbsg38
(lp1586
g446
ag1571
asbatp1587
Rp1588
(dp1589
g11
I00
sg19
I01
sg20
I00
sg21
I1
sbsg286
S'siPixelQualityESProducer'
p1590
sg46
S'SiPixelQualityESProducer'
p1591
sbsI140475512887824
g576
sI140475512442000
g528
sI140475512925392
g0
(g355
g2
Ntp1592
Rp1593
(dp1594
g38
(lp1595
g436
aS'LorentzAngleDeconvMode'
p1596
aS'LorentzAnglePeakMode'
p1597
asg11
I00
sg20
I00
sg40
I53
sg69
g70
sg436
g0
(g28
g2
Ntp1598
Rp1599
(dp1600
g11
I00
sg19
I01
sg20
I00
sg442
g0
(g164
g2
Ntp1601
Rp1602
(dp1603
g11
I00
sg19
I00
sg37
g283
sg20
I00
sbsg446
g0
(g164
g2
Ntp1604
Rp1605
(dp1606
g11
I00
sg19
I01
sg37
g450
sg20
I00
sbsg38
(lp1607
g446
ag442
asbsg286
S'siStripLorentzAngleDepESProducer'
p1608
sg1597
g0
(g28
g2
Ntp1609
Rp1610
(dp1611
g11
I00
sg19
I01
sg20
I00
sg442
g0
(g164
g2
Ntp1612
Rp1613
(dp1614
g11
I00
sg19
I00
sg37
g458
sg20
I00
sbsg446
g0
(g164
g2
Ntp1615
Rp1616
(dp1617
g11
I00
sg19
I01
sg37
S'SiStripLorentzAngleRcd'
p1618
sg20
I00
sbsg38
(lp1619
g446
ag442
asbsg46
S'SiStripLorentzAngleDepESProducer'
p1620
sg1596
g0
(g28
g2
Ntp1621
Rp1622
(dp1623
g11
I00
sg19
I01
sg20
I00
sg442
g0
(g164
g2
Ntp1624
Rp1625
(dp1626
g11
I00
sg19
I00
sg37
g470
sg20
I00
sbsg446
g0
(g164
g2
Ntp1627
Rp1628
(dp1629
g11
I00
sg19
I01
sg37
g1618
sg20
I00
sbsg38
(lp1630
g446
ag442
asbsbsI140475514158416
g1216
sI140475512825680
g546
sI140475512442448
g0
(g355
g2
Ntp1631
Rp1632
(dp1633
g38
(lp1634
g1295
aS'PrintDebugOutput'
p1635
aS'ThresholdForReducedGranularity'
p1636
aS'UseEmptyRunInfo'
p1637
aS'ReduceGranularity'
p1638
ag1562
asg11
I00
sg1295
g0
(g164
g2
Ntp1639
Rp1640
(dp1641
g11
I00
sg19
I01
sg37
g283
sg20
I00
sbsg20
I01
sg40
I53
sg69
g70
sg1636
g0
(g367
g2
Ntp1642
Rp1643
(dp1644
g11
I00
sg19
I01
sg37
F0.3
sg20
I00
sbsg286
S'siStripQualityESProducer'
p1645
sg1637
g0
(g33
g2
Ntp1646
Rp1647
(dp1648
g11
I00
sg19
I01
sg37
I00
sg20
I00
sbsg1638
g0
(g33
g2
Ntp1649
Rp1650
(dp1651
g11
I00
sg19
I01
sg37
I00
sg20
I00
sbsg1562
g0
(g1020
g14
(lp1652
g0
(g28
g2
Ntp1653
Rp1654
(dp1655
g11
I00
sg19
I01
sg20
I00
sg446
g0
(g164
g2
Ntp1656
Rp1657
(dp1658
g11
I00
sg19
I01
sg37
S'SiStripDetVOffRcd'
p1659
sg20
I00
sbsg1571
g0
(g164
g2
Ntp1660
Rp1661
(dp1662
g11
I00
sg19
I01
sg37
g283
sg20
I00
sbsg38
(lp1663
g446
ag1571
asbag0
(g28
g2
Ntp1664
Rp1665
(dp1666
g11
I00
sg19
I01
sg20
I00
sg446
g0
(g164
g2
Ntp1667
Rp1668
(dp1669
g11
I00
sg19
I01
sg37
S'SiStripDetCablingRcd'
p1670
sg20
I00
sbsg1571
g0
(g164
g2
Ntp1671
Rp1672
(dp1673
g11
I00
sg19
I01
sg37
g283
sg20
I00
sbsg38
(lp1674
g446
ag1571
asbag0
(g28
g2
Ntp1675
Rp1676
(dp1677
g11
I00
sg19
I01
sg20
I00
sg446
g0
(g164
g2
Ntp1678
Rp1679
(dp1680
g11
I00
sg19
I01
sg37
S'RunInfoRcd'
p1681
sg20
I00
sbsg1571
g0
(g164
g2
Ntp1682
Rp1683
(dp1684
g11
I00
sg19
I01
sg37
g283
sg20
I00
sbsg38
(lp1685
g446
ag1571
asbag0
(g28
g2
Ntp1686
Rp1687
(dp1688
g11
I00
sg19
I01
sg20
I00
sg446
g0
(g164
g2
Ntp1689
Rp1690
(dp1691
g11
I00
sg19
I01
sg37
S'SiStripBadChannelRcd'
p1692
sg20
I00
sbsg1571
g0
(g164
g2
Ntp1693
Rp1694
(dp1695
g11
I00
sg19
I01
sg37
g283
sg20
I00
sbsg38
(lp1696
g446
ag1571
asbag0
(g28
g2
Ntp1697
Rp1698
(dp1699
g11
I00
sg19
I01
sg20
I00
sg446
g0
(g164
g2
Ntp1700
Rp1701
(dp1702
g11
I00
sg19
I01
sg37
S'SiStripBadFiberRcd'
p1703
sg20
I00
sbsg1571
g0
(g164
g2
Ntp1704
Rp1705
(dp1706
g11
I00
sg19
I01
sg37
g283
sg20
I00
sbsg38
(lp1707
g446
ag1571
asbag0
(g28
g2
Ntp1708
Rp1709
(dp1710
g11
I00
sg19
I01
sg20
I00
sg446
g0
(g164
g2
Ntp1711
Rp1712
(dp1713
g11
I00
sg19
I01
sg37
S'SiStripBadModuleRcd'
p1714
sg20
I00
sbsg1571
g0
(g164
g2
Ntp1715
Rp1716
(dp1717
g11
I00
sg19
I01
sg37
g283
sg20
I00
sbsg38
(lp1718
g446
ag1571
asbag0
(g28
g2
Ntp1719
Rp1720
(dp1721
g11
I00
sg19
I01
sg20
I00
sg446
g0
(g164
g2
Ntp1722
Rp1723
(dp1724
g11
I00
sg19
I01
sg37
S'SiStripBadStripRcd'
p1725
sg20
I00
sbsg1571
g0
(g164
g2
Ntp1726
Rp1727
(dp1728
g11
I00
sg19
I01
sg37
g283
sg20
I00
sbsg38
(lp1729
g446
ag1571
asbatp1730
Rp1731
(dp1732
g11
I00
sg19
I01
sg20
I00
sg21
I1
sbsg46
S'SiStripQualityESProducer'
p1733
sg1635
g0
(g33
g2
Ntp1734
Rp1735
(dp1736
g11
I00
sg19
I01
sg37
I00
sg20
I00
sbsbsI140475512889040
g1474
sI140475514128848
g521
sI140475512439056
g504
sI140475512439184
g357
sI140475512468560
g537
sI140475512824528
g1290
sI140475512922896
g1461
ssg1556
g1506
sg1503
g1500
sS'_Process__esprefers'
p1737
(dp1738
g1471
g1474
ssg1498
g1483
sg287
g269
sS'_Process__schedule'
p1739
Nsg1645
g1632
sg561
g564
sS'_Process__outputmodules'
p1740
(dp1741
sS'_Process__analyzers'
p1742
(dp1743
g287
g269
ssS'_Process__InExtendCall'
p1744
I00
sg1608
g1593
sS'_Process__modifiers'
p1745
(tsS'_Process__producers'
p1746
(dp1747
sg1590
g1559
sg1214
g1216
sS'_Process__filters'
p1748
(dp1749
sg574
g576
sS'_Process__looper'
p1750
NsS'_Process__endpaths'
p1751
g0
(cFWCore.ParameterSet.DictTypes
SortedKeysDict
p1752
c__builtin__
dict
p1753
(dp1754
tp1755
Rp1756
(dp1757
S'list'
p1758
(lp1759
sbsS'_Process__esproducers'
p1760
(dp1761
g1608
g1593
sg502
g504
sg1498
g1483
sg1590
g1559
sg544
g546
sg1556
g1506
sg1503
g1500
sg354
g357
sg1459
g1461
sg519
g521
sg431
g433
sg1645
g1632
ssS'_Process__tasks'
p1762
(dp1763
sS'_Process__paths'
p1764
g0
(g1752
g1753
(dp1765
g255
g258
stp1766
Rp1767
(dp1768
g1758
(lp1769
g255
asbsS'_Process__partialschedules'
p1770
(dp1771
sg535
g537
sS'_Process__isStrict'
p1772
I00
sb.