(dp1
S'OriginalConfig'
p2
ccopy_reg
_reconstructor
p3
(cWMCore.Configuration
Configuration
p4
c__builtin__
object
p5
NtRp6
(dp7
S'Site'
p8
g3
(cWMCore.Configuration
ConfigSection
p9
g5
NtRp10
(dp11
S'_internal_skipChecks'
p12
I00
sS'_internal_documentation'
p13
S''
sS'_internal_settings'
p14
c__builtin__
set
p15
((lp16
S'storageSite'
p17
atRp18
sS'_internal_name'
p19
g8
sS'_internal_docstrings'
p20
(dp21
sS'_internal_children'
p22
g15
((ltRp23
sg17
S'T3_US_FNALLPC'
p24
sS'_internal_parent_ref'
p25
NsbsS'_internal_sections'
p26
(lp27
S'General'
p28
aS'JobType'
p29
aS'Data'
p30
ag8
aS'User'
p31
aS'Debug'
p32
asg28
g3
(g9
g5
NtRp33
(dp34
g12
I00
sg13
S''
sg14
g15
((lp35
S'transferOutputs'
p36
aS'workArea'
p37
aS'requestName'
p38
atRp39
sg19
g28
sg20
(dp40
sg36
I01
sg22
g15
((ltRp41
sg38
S'MC_prod_chi850GeV_Suu4TeV_MINIAOD_0002'
p42
sg25
Nsg37
S'crab_projects'
p43
sbsS'_internal_webapps'
p44
(lp45
sg31
g3
(g9
g5
NtRp46
(dp47
g12
I00
sg13
S''
sg14
g15
((ltRp48
sg19
g31
sg20
(dp49
sg22
g15
((ltRp50
sg25
NsbsS'_internal_components'
p51
(lp52
sg32
g3
(g9
g5
NtRp53
(dp54
g12
I00
sg13
S''
sg14
g15
((ltRp55
sg19
g32
sg20
(dp56
sg22
g15
((ltRp57
sg25
Nsbsg30
g3
(g9
g5
NtRp58
(dp59
S'inputDataset'
p60
S'/SuuToChiChi_MSuu4-TeV_Mchi850-GeV_TuneCP5_13TeV-pythia8/ecannaer-B2G-RunIISummer20UL18p_RECO-a5d501e738bc46974ac8d371aaff19e9/USER'
p61
sS'outputDatasetTag'
p62
S'B2G-RunIISummer20UL18p_MINIAOD'
p63
sS'publishDBS'
p64
S'phys03'
p65
sg12
I00
sS'unitsPerJob'
p66
I1
sg13
S''
sg14
g15
((lp67
g60
ag62
ag64
aS'publication'
p68
ag66
aS'inputDBS'
p69
aS'splitting'
p70
aS'totalUnits'
p71
atRp72
sg19
g30
sg70
S'FileBased'
p73
sg20
(dp74
sg22
g15
((ltRp75
sg68
I01
sg69
g65
sg25
Nsg71
I-1
sbsg29
g3
(g9
g5
NtRp76
(dp77
g12
I00
sg13
S''
sg14
g15
((lp78
S'psetName'
p79
aS'pluginName'
p80
aS'allowUndistributedCMSSW'
p81
atRp82
sg19
g29
sg20
(dp83
sg80
S'Analysis'
p84
sg22
g15
((ltRp85
sg81
I01
sg79
S'B2G-RunIISummer20UL18MiniAODv2-00001_1_cfg.py'
p86
sg25
NsbsbsS'voGroup'
p87
S''
sS'Server'
p88
S'cmsweb.cern.ch'
p89
sS'instance'
p90
S'prod'
p91
sS'RequestName'
p92
V210421_090347:ecannaer_crab_MC_prod_chi850GeV_Suu4TeV_MINIAOD_0002
p93
sS'voRole'
p94
S'NULL'
p95
sS'Port'
p96
S''
s.