(dp1
S'OriginalConfig'
p2
ccopy_reg
_reconstructor
p3
(cWMCore.Configuration
Configuration
p4
c__builtin__
object
p5
NtRp6
(dp7
S'Site'
p8
g3
(cWMCore.Configuration
ConfigSection
p9
g5
NtRp10
(dp11
S'_internal_skipChecks'
p12
I00
sS'_internal_documentation'
p13
S''
sS'_internal_settings'
p14
c__builtin__
set
p15
((lp16
S'storageSite'
p17
atRp18
sS'_internal_name'
p19
g8
sS'_internal_docstrings'
p20
(dp21
sS'_internal_children'
p22
g15
((ltRp23
sg17
S'T3_US_FNALLPC'
p24
sS'_internal_parent_ref'
p25
NsbsS'_internal_sections'
p26
(lp27
S'General'
p28
aS'JobType'
p29
aS'Data'
p30
ag8
aS'User'
p31
aS'Debug'
p32
asg28
g3
(g9
g5
NtRp33
(dp34
g12
I00
sg13
S''
sg14
g15
((lp35
S'transferOutputs'
p36
aS'workArea'
p37
aS'requestName'
p38
atRp39
sg19
g28
sg20
(dp40
sg36
I01
sg22
g15
((ltRp41
sg38
S'semilept_ttbar_QCD_background_02'
p42
sg25
Nsg37
S'crab_projects'
p43
sbsS'_internal_webapps'
p44
(lp45
sg31
g3
(g9
g5
NtRp46
(dp47
g12
I00
sg13
S''
sg14
g15
((ltRp48
sg19
g31
sg20
(dp49
sg22
g15
((ltRp50
sg25
NsbsS'_internal_components'
p51
(lp52
sg32
g3
(g9
g5
NtRp53
(dp54
g12
I00
sg13
S''
sg14
g15
((ltRp55
sg19
g32
sg20
(dp56
sg22
g15
((ltRp57
sg25
Nsbsg30
g3
(g9
g5
NtRp58
(dp59
S'inputDataset'
p60
S'/TTToSemiLeptonic_widthx1p15_TuneCP5_13TeV-powheg-pythia8/RunIIAutumn18MiniAOD-102X_upgrade2018_realistic_v15-v1/MINIAODSIM'
p61
sS'outputDatasetTag'
p62
S'semilept_ttbar_QCD_background'
p63
sg12
I00
sS'splitting'
p64
S'Automatic'
p65
sg13
S''
sg14
g15
((lp66
g60
ag62
ag64
aS'publication'
p67
aS'inputDBS'
p68
atRp69
sg19
g30
sg68
S'global'
p70
sg20
(dp71
sg22
g15
((ltRp72
sg25
Nsg67
I00
sbsg29
g3
(g9
g5
NtRp73
(dp74
g12
I00
sg13
S''
sg14
g15
((lp75
S'psetName'
p76
aS'pluginName'
p77
aS'allowUndistributedCMSSW'
p78
atRp79
sg19
g29
sg20
(dp80
sg77
S'Analysis'
p81
sg22
g15
((ltRp82
sg78
I01
sg76
S'ttbarAnalyzer_cfg.py'
p83
sg25
NsbsbsS'voGroup'
p84
S''
sS'Server'
p85
S'cmsweb.cern.ch'
p86
sS'instance'
p87
S'prod'
p88
sS'RequestName'
p89
V200908_003433:ecannaer_crab_semilept_ttbar_QCD_background_02
p90
sS'voRole'
p91
S'NULL'
p92
sS'Port'
p93
S''
s.