(dp1
S'OriginalConfig'
p2
ccopy_reg
_reconstructor
p3
(cWMCore.Configuration
Configuration
p4
c__builtin__
object
p5
NtRp6
(dp7
S'Site'
p8
g3
(cWMCore.Configuration
ConfigSection
p9
g5
NtRp10
(dp11
S'_internal_skipChecks'
p12
I00
sS'_internal_documentation'
p13
S''
sS'_internal_settings'
p14
c__builtin__
set
p15
((lp16
S'storageSite'
p17
atRp18
sS'_internal_name'
p19
g8
sS'_internal_docstrings'
p20
(dp21
sS'_internal_children'
p22
g15
((ltRp23
sg17
S'T3_US_FNALLPC'
p24
sS'_internal_parent_ref'
p25
NsbsS'_internal_sections'
p26
(lp27
S'General'
p28
aS'JobType'
p29
aS'Data'
p30
ag8
aS'User'
p31
aS'Debug'
p32
asg28
g3
(g9
g5
NtRp33
(dp34
g12
I00
sg13
S''
sg14
g15
((lp35
S'transferOutputs'
p36
aS'workArea'
p37
aS'requestName'
p38
atRp39
sg19
g28
sg20
(dp40
sg36
I01
sg22
g15
((ltRp41
sg38
S'diquark_QCD_background_data_2018D_0000'
p42
sg25
Nsg37
S'crab_projects'
p43
sbsS'_internal_webapps'
p44
(lp45
sg31
g3
(g9
g5
NtRp46
(dp47
g12
I00
sg13
S''
sg14
g15
((ltRp48
sg19
g31
sg20
(dp49
sg22
g15
((ltRp50
sg25
NsbsS'_internal_components'
p51
(lp52
sg32
g3
(g9
g5
NtRp53
(dp54
g12
I00
sg13
S''
sg14
g15
((ltRp55
sg19
g32
sg20
(dp56
sg22
g15
((ltRp57
sg25
Nsbsg30
g3
(g9
g5
NtRp58
(dp59
S'inputDataset'
p60
S'/JetHT/Run2018D-PromptReco-v2/MINIAOD'
p61
sS'outputDatasetTag'
p62
S'diquark_QCD_background'
p63
sg12
I00
sS'splitting'
p64
S'FileBased'
p65
sS'unitsPerJob'
p66
I10
sg13
S''
sg14
g15
((lp67
g60
ag62
aS'publication'
p68
ag66
ag64
aS'lumiMask'
p69
aS'inputDBS'
p70
atRp71
sg19
g30
sg70
S'global'
p72
sg20
(dp73
sg22
g15
((ltRp74
sg25
Nsg69
S'Cert_314472-325175_13TeV_17SeptEarlyReReco2018ABC_PromptEraD_Collisions18_JSON.txt'
p75
sg68
I00
sbsg29
g3
(g9
g5
NtRp76
(dp77
g12
I00
sg13
S''
sg14
g15
((lp78
S'psetName'
p79
aS'pluginName'
p80
aS'allowUndistributedCMSSW'
p81
atRp82
sg19
g29
sg20
(dp83
sg80
S'Analysis'
p84
sg22
g15
((ltRp85
sg81
I01
sg79
S'/uscms_data/d3/cannaert/src/thrust/CMSSW_10_6_0/src/diquarkAnalyzer_cfg.py'
p86
sg25
NsbsbsS'voGroup'
p87
S''
sS'Server'
p88
S'cmsweb.cern.ch'
p89
sS'instance'
p90
S'prod'
p91
sS'RequestName'
p92
V201202_232733:ecannaer_crab_diquark_QCD_background_data_2018D_0000
p93
sS'voRole'
p94
S'NULL'
p95
sS'Port'
p96
S''
s.