ccopy_reg
_reconstructor
p0
(cFWCore.ParameterSet.Config
Process
p1
c__builtin__
object
p2
Ntp3
Rp4
(dp5
S'MessageLogger'
p6
g0
(cFWCore.ParameterSet.Modules
Service
p7
g2
Ntp8
Rp9
(dp10
S'_isFrozen'
p11
I00
sS'suppressInfo'
p12
g0
(cFWCore.ParameterSet.Types
vstring
p13
c__builtin__
list
p14
(lp15
tp16
Rp17
(dp18
g11
I00
sS'_ParameterTypeBase__isTracked'
p19
I00
sS'_isModified'
p20
I00
sS'_nPerLine'
p21
I1
sbsS'suppressDebug'
p22
g0
(g13
g14
(lp23
tp24
Rp25
(dp26
g11
I00
sg19
I00
sg20
I00
sg21
I1
sbsS'cout'
p27
g0
(cFWCore.ParameterSet.Types
PSet
p28
g2
Ntp29
Rp30
(dp31
g11
I00
sg19
I00
sS'placeholder'
p32
g0
(cFWCore.ParameterSet.Types
bool
p33
g2
Ntp34
Rp35
(dp36
g11
I00
sg19
I00
sS'_value'
p37
I01
sg20
I00
sbsg20
I00
sS'_Parameterizable__parameterNames'
p38
(lp39
g32
asbsS'_lineNumber'
p40
I11
sS'debugModules'
p41
g0
(g13
g14
(lp42
tp43
Rp44
(dp45
g11
I00
sg19
I00
sg20
I00
sg21
I1
sbsS'_TypedParameterizable__type'
p46
g6
sS'fwkJobReports'
p47
g0
(g13
g14
(lp48
S'FrameworkJobReport'
p49
atp50
Rp51
(dp52
g11
I00
sg19
I00
sg20
I00
sg21
I1
sbsg38
(lp53
g12
aS'debugs'
p54
ag22
ag27
aS'cerr_stats'
p55
aS'warnings'
p56
aS'default'
p57
aS'statistics'
p58
aS'cerr'
p59
ag49
aS'suppressWarning'
p60
aS'errors'
p61
aS'destinations'
p62
ag41
aS'infos'
p63
aS'categories'
p64
ag47
asg58
g0
(g13
g14
(lp65
g55
atp66
Rp67
(dp68
g11
I00
sg19
I00
sg20
I00
sg21
I1
sbsS'_filename'
p69
S'/cvmfs/cms.cern.ch/slc7_amd64_gcc700/cms/cmssw-patch/CMSSW_10_2_4_patch1/python/FWCore/ParameterSet/Modules.py'
p70
sg62
g0
(g13
g14
(lp71
g56
ag61
ag63
ag54
ag27
ag59
atp72
Rp73
(dp74
g11
I00
sg19
I00
sg20
I00
sg21
I1
sbsg54
g0
(g28
g2
Ntp75
Rp76
(dp77
g11
I00
sg19
I00
sg32
g0
(g33
g2
Ntp78
Rp79
(dp80
g11
I00
sg19
I00
sg37
I01
sg20
I00
sbsg20
I00
sg38
(lp81
g32
asbsg56
g0
(g28
g2
Ntp82
Rp83
(dp84
g11
I00
sg19
I00
sg32
g0
(g33
g2
Ntp85
Rp86
(dp87
g11
I00
sg19
I00
sg37
I01
sg20
I00
sbsg20
I00
sg38
(lp88
g32
asbsg61
g0
(g28
g2
Ntp89
Rp90
(dp91
g11
I00
sg19
I00
sg32
g0
(g33
g2
Ntp92
Rp93
(dp94
g11
I00
sg19
I00
sg37
I01
sg20
I00
sbsg20
I00
sg38
(lp95
g32
asbsg49
g0
(g28
g2
Ntp96
Rp97
(dp98
g11
I00
sg19
I00
sg20
I00
sg57
g0
(g28
g2
Ntp99
Rp100
(dp101
g11
I00
sg19
I00
sS'limit'
p102
g0
(cFWCore.ParameterSet.Types
int32
p103
g2
Ntp104
Rp105
(dp106
g11
I00
sg19
I00
sg37
I0
sg20
I00
sbsg20
I00
sg38
(lp107
g102
asbsS'FwkJob'
p108
g0
(g28
g2
Ntp109
Rp110
(dp111
g11
I00
sg19
I00
sg20
I00
sg102
g0
(g103
g2
Ntp112
Rp113
(dp114
g11
I00
sg19
I00
sg37
I10000000
sg20
I00
sbsg38
(lp115
S'optionalPSet'
p116
ag102
asg116
g0
(g33
g2
Ntp117
Rp118
(dp119
g11
I00
sg19
I00
sg37
I01
sg20
I00
sbsbsg38
(lp120
g57
ag116
ag108
asg116
g0
(g33
g2
Ntp121
Rp122
(dp123
g11
I00
sg19
I00
sg37
I01
sg20
I00
sbsbsg60
g0
(g13
g14
(lp124
tp125
Rp126
(dp127
g11
I00
sg19
I00
sg20
I00
sg21
I1
sbsg63
g0
(g28
g2
Ntp128
Rp129
(dp130
g11
I00
sg19
I00
sg20
I00
sS'Root_NoDictionary'
p131
g0
(g28
g2
Ntp132
Rp133
(dp134
g11
I00
sg19
I00
sg20
I00
sg102
g0
(g103
g2
Ntp135
Rp136
(dp137
g11
I00
sg19
I00
sg37
I0
sg20
I00
sbsg38
(lp138
g116
ag102
asg116
g0
(g33
g2
Ntp139
Rp140
(dp141
g11
I00
sg19
I00
sg37
I01
sg20
I00
sbsbsg38
(lp142
g116
ag131
ag32
asg116
g0
(g33
g2
Ntp143
Rp144
(dp145
g11
I00
sg19
I00
sg37
I01
sg20
I00
sbsg32
g0
(g33
g2
Ntp146
Rp147
(dp148
g11
I00
sg19
I00
sg37
I01
sg20
I00
sbsbsg64
g0
(g13
g14
(lp149
g108
aS'FwkReport'
p150
aS'FwkSummary'
p151
ag131
atp152
Rp153
(dp154
g11
I00
sg19
I00
sg20
I00
sg21
I1
sbsg20
I00
sg55
g0
(g28
g2
Ntp155
Rp156
(dp157
g11
I00
sg19
I00
sg20
I00
sg116
g0
(g33
g2
Ntp158
Rp159
(dp160
g11
I00
sg19
I00
sg37
I01
sg20
I00
sbsg38
(lp161
S'threshold'
p162
aS'output'
p163
ag116
asg162
g0
(cFWCore.ParameterSet.Types
string
p164
g2
Ntp165
Rp166
(dp167
g11
I00
sg19
I00
sg37
S'WARNING'
p168
sg20
I00
sbsg163
g0
(g164
g2
Ntp169
Rp170
(dp171
g11
I00
sg19
I00
sg37
g59
sg20
I00
sbsbsg57
g0
(g28
g2
Ntp172
Rp173
(dp174
g11
I00
sg19
I00
sg20
I00
sg38
(lp175
sbsS'_inProcess'
p176
I01
sg59
g0
(g28
g2
Ntp177
Rp178
(dp179
g11
I00
sg19
I00
sS'noTimeStamps'
p180
g0
(g33
g2
Ntp181
Rp182
(dp183
g11
I00
sg19
I00
sg37
I00
sg20
I00
sbsg150
g0
(g28
g2
Ntp184
Rp185
(dp186
g11
I00
sg19
I00
sg20
I01
sS'reportEvery'
p187
g0
(g103
g2
Ntp188
Rp189
(dp190
g11
I00
sg19
I00
sg37
I1000
sg20
I01
sbsg102
g0
(g103
g2
Ntp191
Rp192
(dp193
g11
I00
sg19
I00
sg37
I10000000
sg20
I00
sbsg38
(lp194
g187
ag116
ag102
asg116
g0
(g33
g2
Ntp195
Rp196
(dp197
g11
I00
sg19
I00
sg37
I01
sg20
I00
sbsbsg20
I00
sg57
g0
(g28
g2
Ntp198
Rp199
(dp200
g11
I00
sg19
I00
sg102
g0
(g103
g2
Ntp201
Rp202
(dp203
g11
I00
sg19
I00
sg37
I10000000
sg20
I00
sbsg20
I00
sg38
(lp204
g102
asbsg131
g0
(g28
g2
Ntp205
Rp206
(dp207
g11
I00
sg19
I00
sg20
I00
sg102
g0
(g103
g2
Ntp208
Rp209
(dp210
g11
I00
sg19
I00
sg37
I0
sg20
I00
sbsg38
(lp211
g116
ag102
asg116
g0
(g33
g2
Ntp212
Rp213
(dp214
g11
I00
sg19
I00
sg37
I01
sg20
I00
sbsbsS'INFO'
p215
g0
(g28
g2
Ntp216
Rp217
(dp218
g11
I00
sg19
I00
sg102
g0
(g103
g2
Ntp219
Rp220
(dp221
g11
I00
sg19
I00
sg37
I0
sg20
I00
sbsg20
I00
sg38
(lp222
g102
asbsg116
g0
(g33
g2
Ntp223
Rp224
(dp225
g11
I00
sg19
I00
sg37
I01
sg20
I00
sbsg108
g0
(g28
g2
Ntp226
Rp227
(dp228
g11
I00
sg19
I00
sg20
I00
sg102
g0
(g103
g2
Ntp229
Rp230
(dp231
g11
I00
sg19
I00
sg37
I0
sg20
I00
sbsg38
(lp232
g116
ag102
asg116
g0
(g33
g2
Ntp233
Rp234
(dp235
g11
I00
sg19
I00
sg37
I01
sg20
I00
sbsbsg151
g0
(g28
g2
Ntp236
Rp237
(dp238
g11
I00
sg19
I00
sg20
I00
sg187
g0
(g103
g2
Ntp239
Rp240
(dp241
g11
I00
sg19
I00
sg37
I1
sg20
I00
sbsg102
g0
(g103
g2
Ntp242
Rp243
(dp244
g11
I00
sg19
I00
sg37
I10000000
sg20
I00
sbsg38
(lp245
g187
ag116
ag102
asg116
g0
(g33
g2
Ntp246
Rp247
(dp248
g11
I00
sg19
I00
sg37
I01
sg20
I00
sbsbsg38
(lp249
g215
ag180
ag150
ag57
ag131
ag162
ag108
ag151
ag116
asg162
g0
(g164
g2
Ntp250
Rp251
(dp252
g11
I00
sg19
I00
sg37
g215
sg20
I00
sbsbsbsS'_Process__sequences'
p253
(dp254
sS'p'
p255
g0
(cFWCore.ParameterSet.SequenceTypes
Path
p256
g2
Ntp257
Rp258
(dp259
g11
I00
sS'_seq'
p260
g0
(cFWCore.ParameterSet.SequenceTypes
_SequenceCollection
p261
g2
Ntp262
Rp263
(dp264
S'_collection'
p265
(lp266
g0
(cFWCore.ParameterSet.Modules
EDAnalyzer
p267
g2
Ntp268
Rp269
(dp270
g38
(lp271
S'PUPPI_AK4Collection'
p272
aS'fatJetCollection'
p273
aS'muonCollection'
p274
aS'bits'
p275
asg11
I00
sg20
I00
sg40
I14
sg272
g0
(cFWCore.ParameterSet.Types
InputTag
p276
g2
Ntp277
Rp278
(dp279
g11
I00
sg19
I01
sg20
I00
sS'_InputTag__moduleLabel'
p280
S'slimmedJetsPuppi'
p281
sS'_InputTag__processName'
p282
S''
p283
sS'_InputTag__productInstance'
p284
g283
sbsg69
S'/uscms_data/d3/cannaert/src/thrust/CMSSW_10_2_4_patch1/src/ttbarAnalyzer_cfg.py'
p285
sS'_Labelable__label'
p286
S'ttbarAnalyzer'
p287
sg273
g0
(g276
g2
Ntp288
Rp289
(dp290
g11
I00
sg19
I01
sg20
I00
sg280
S'slimmedJetsAK8'
p291
sg282
g283
sg284
g283
sbsg274
g0
(g276
g2
Ntp292
Rp293
(dp294
g11
I00
sg19
I01
sg20
I00
sg280
S'slimmedMuons'
p295
sg282
g283
sg284
g283
sbsg275
g0
(g276
g2
Ntp296
Rp297
(dp298
g11
I00
sg19
I01
sg20
I00
sg280
S'TriggerResults'
p299
sg282
S'HLT'
p300
sg284
g283
sbsg46
g287
sbasbsg286
g255
sg20
I00
sS'_tasks'
p301
g0
(cFWCore.ParameterSet.OrderedSet
OrderedSet
p302
g2
Ntp303
Rp304
(dp305
S'map'
p306
(dp307
sS'end'
p308
(lp309
Nag309
ag309
asbsbsS'_Process__services'
p310
(dp311
g6
g9
sS'TFileService'
p312
g0
(g7
g2
Ntp313
Rp314
(dp315
g38
(lp316
S'fileName'
p317
asg11
I00
sg176
I01
sg20
I00
sg40
I11
sg69
g70
sg317
g0
(g164
g2
Ntp318
Rp319
(dp320
g11
I00
sg19
I01
sg37
S'QCD_ttbar_test.root'
p321
sg20
I00
sbsg46
g312
sbssS'_Process__source'
p322
g0
(cFWCore.ParameterSet.Modules
Source
p323
g2
Ntp324
Rp325
(dp326
g38
(lp327
S'fileNames'
p328
asg11
I00
sg20
I00
sg40
I193
sg69
g70
sg328
g0
(g13
g14
(lp329
S'/store/mc/RunIIAutumn18MiniAOD/TTToSemiLeptonic_widthx1p3_TuneCP5_13TeV-powheg-pythia8/MINIAODSIM/102X_upgrade2018_realistic_v15-v1/90000/FD15A642-B164-9942-A410-EBE9991827AA.root'
p330
aS'/store/mc/RunIIAutumn18MiniAOD/TTToSemiLeptonic_widthx1p3_TuneCP5_13TeV-powheg-pythia8/MINIAODSIM/102X_upgrade2018_realistic_v15-v1/90000/F68799DB-2630-6F4A-ACC1-BEBE6CAC348D.root'
p331
aS'/store/mc/RunIIAutumn18MiniAOD/TTToSemiLeptonic_widthx1p3_TuneCP5_13TeV-powheg-pythia8/MINIAODSIM/102X_upgrade2018_realistic_v15-v1/90000/F47F9770-3224-A64B-A8A9-F2C2B663434A.root'
p332
aS'/store/mc/RunIIAutumn18MiniAOD/TTToSemiLeptonic_widthx1p3_TuneCP5_13TeV-powheg-pythia8/MINIAODSIM/102X_upgrade2018_realistic_v15-v1/90000/EF2610C9-ECB1-4542-849C-292254CE409B.root'
p333
aS'/store/mc/RunIIAutumn18MiniAOD/TTToSemiLeptonic_widthx1p3_TuneCP5_13TeV-powheg-pythia8/MINIAODSIM/102X_upgrade2018_realistic_v15-v1/90000/EF25CB28-DB09-044F-AA64-758C54CD65E2.root'
p334
aS'/store/mc/RunIIAutumn18MiniAOD/TTToSemiLeptonic_widthx1p3_TuneCP5_13TeV-powheg-pythia8/MINIAODSIM/102X_upgrade2018_realistic_v15-v1/90000/E721F5B7-8928-B14E-AE1C-53E164903DCB.root'
p335
aS'/store/mc/RunIIAutumn18MiniAOD/TTToSemiLeptonic_widthx1p3_TuneCP5_13TeV-powheg-pythia8/MINIAODSIM/102X_upgrade2018_realistic_v15-v1/90000/E17293BF-1AFD-C349-B325-357D462AB2F1.root'
p336
aS'/store/mc/RunIIAutumn18MiniAOD/TTToSemiLeptonic_widthx1p3_TuneCP5_13TeV-powheg-pythia8/MINIAODSIM/102X_upgrade2018_realistic_v15-v1/90000/DEBD99CA-3C11-0746-B5E0-04AC7E150986.root'
p337
aS'/store/mc/RunIIAutumn18MiniAOD/TTToSemiLeptonic_widthx1p3_TuneCP5_13TeV-powheg-pythia8/MINIAODSIM/102X_upgrade2018_realistic_v15-v1/90000/D753B61C-0A05-FE49-B0C5-718FC9D95595.root'
p338
aS'/store/mc/RunIIAutumn18MiniAOD/TTToSemiLeptonic_widthx1p3_TuneCP5_13TeV-powheg-pythia8/MINIAODSIM/102X_upgrade2018_realistic_v15-v1/90000/D2076A6F-9FEE-7E49-B7AD-7B2028E3CB9D.root'
p339
aS'/store/mc/RunIIAutumn18MiniAOD/TTToSemiLeptonic_widthx1p3_TuneCP5_13TeV-powheg-pythia8/MINIAODSIM/102X_upgrade2018_realistic_v15-v1/90000/CB43BCA1-2F16-204A-A88A-B3181EFCED5A.root'
p340
aS'/store/mc/RunIIAutumn18MiniAOD/TTToSemiLeptonic_widthx1p3_TuneCP5_13TeV-powheg-pythia8/MINIAODSIM/102X_upgrade2018_realistic_v15-v1/90000/A27D2C47-AEE0-C24E-BB4B-3B462B7E28A7.root'
p341
aS'/store/mc/RunIIAutumn18MiniAOD/TTToSemiLeptonic_widthx1p3_TuneCP5_13TeV-powheg-pythia8/MINIAODSIM/102X_upgrade2018_realistic_v15-v1/90000/98986DB2-9A1A-8F43-B306-D5BCAAC8C0FE.root'
p342
aS'/store/mc/RunIIAutumn18MiniAOD/TTToSemiLeptonic_widthx1p3_TuneCP5_13TeV-powheg-pythia8/MINIAODSIM/102X_upgrade2018_realistic_v15-v1/90000/97791FB3-CDAF-AE48-8D16-765D29D11161.root'
p343
aS'/store/mc/RunIIAutumn18MiniAOD/TTToSemiLeptonic_widthx1p3_TuneCP5_13TeV-powheg-pythia8/MINIAODSIM/102X_upgrade2018_realistic_v15-v1/90000/96BBB396-2FD1-684C-B852-41237A2A8C6E.root'
p344
aS'/store/mc/RunIIAutumn18MiniAOD/TTToSemiLeptonic_widthx1p3_TuneCP5_13TeV-powheg-pythia8/MINIAODSIM/102X_upgrade2018_realistic_v15-v1/90000/965B9DEB-8D3E-C441-BDCA-C2CBE1CE494D.root'
p345
aS'/store/mc/RunIIAutumn18MiniAOD/TTToSemiLeptonic_widthx1p3_TuneCP5_13TeV-powheg-pythia8/MINIAODSIM/102X_upgrade2018_realistic_v15-v1/90000/8F863A4C-BA5D-B246-A4D1-393870399BE9.root'
p346
aS'/store/mc/RunIIAutumn18MiniAOD/TTToSemiLeptonic_widthx1p3_TuneCP5_13TeV-powheg-pythia8/MINIAODSIM/102X_upgrade2018_realistic_v15-v1/90000/8EF5A092-804F-8A40-BBBA-259BA9864B64.root'
p347
aS'/store/mc/RunIIAutumn18MiniAOD/TTToSemiLeptonic_widthx1p3_TuneCP5_13TeV-powheg-pythia8/MINIAODSIM/102X_upgrade2018_realistic_v15-v1/90000/8CA3E60C-F0D5-8548-AB70-B56351805A8E.root'
p348
aS'/store/mc/RunIIAutumn18MiniAOD/TTToSemiLeptonic_widthx1p3_TuneCP5_13TeV-powheg-pythia8/MINIAODSIM/102X_upgrade2018_realistic_v15-v1/90000/8AB9E328-018B-C549-8FF3-CF21545F9AA7.root'
p349
aS'/store/mc/RunIIAutumn18MiniAOD/TTToSemiLeptonic_widthx1p3_TuneCP5_13TeV-powheg-pythia8/MINIAODSIM/102X_upgrade2018_realistic_v15-v1/90000/855C7EA8-BD62-0042-9443-549C6A45B10A.root'
p350
aS'/store/mc/RunIIAutumn18MiniAOD/TTToSemiLeptonic_widthx1p3_TuneCP5_13TeV-powheg-pythia8/MINIAODSIM/102X_upgrade2018_realistic_v15-v1/90000/81555E54-704B-AB40-ADE3-BA4274B0D7FD.root'
p351
aS'/store/mc/RunIIAutumn18MiniAOD/TTToSemiLeptonic_widthx1p3_TuneCP5_13TeV-powheg-pythia8/MINIAODSIM/102X_upgrade2018_realistic_v15-v1/90000/8066E626-200F-7549-8750-A3CC22192362.root'
p352
aS'/store/mc/RunIIAutumn18MiniAOD/TTToSemiLeptonic_widthx1p3_TuneCP5_13TeV-powheg-pythia8/MINIAODSIM/102X_upgrade2018_realistic_v15-v1/90000/8016EF0E-8ABD-274D-AE32-BD23303CB17F.root'
p353
atp354
Rp355
(dp356
g11
I00
sg19
I00
sg20
I00
sg21
I1
sbsg46
S'PoolSource'
p357
sbsS'StripCPEfromTrackAngleESProducer'
p358
g0
(cFWCore.ParameterSet.Modules
ESProducer
p359
g2
Ntp360
Rp361
(dp362
g38
(lp363
S'ComponentType'
p364
aS'ComponentName'
p365
aS'parameters'
p366
asg11
I00
sg20
I01
sg366
g0
(g28
g2
Ntp367
Rp368
(dp369
g11
I00
sg19
I01
sS'maxChgOneMIP'
p370
g0
(cFWCore.ParameterSet.Types
double
p371
g2
Ntp372
Rp373
(dp374
g11
I00
sg19
I01
sg37
F6000.0
sg20
I00
sbsS'mLC_P2'
p375
g0
(g371
g2
Ntp376
Rp377
(dp378
g11
I00
sg19
I01
sg37
F0.3
sg20
I00
sbsS'mLC_P1'
p379
g0
(g371
g2
Ntp380
Rp381
(dp382
g11
I00
sg19
I01
sg37
F0.618
sg20
I00
sbsS'mLC_P0'
p383
g0
(g371
g2
Ntp384
Rp385
(dp386
g11
I00
sg19
I01
sg37
F-0.326
sg20
I00
sbsS'useLegacyError'
p387
g0
(g33
g2
Ntp388
Rp389
(dp390
g11
I00
sg19
I01
sg37
I00
sg20
I00
sbsS'mTIB_P1'
p391
g0
(g371
g2
Ntp392
Rp393
(dp394
g11
I00
sg19
I01
sg37
F0.202
sg20
I00
sbsS'mTEC_P1'
p395
g0
(g371
g2
Ntp396
Rp397
(dp398
g11
I00
sg19
I01
sg37
F0.471
sg20
I00
sbsS'mTEC_P0'
p399
g0
(g371
g2
Ntp400
Rp401
(dp402
g11
I00
sg19
I01
sg37
F-1.885
sg20
I00
sbsS'mTOB_P0'
p403
g0
(g371
g2
Ntp404
Rp405
(dp406
g11
I00
sg19
I01
sg37
F-1.026
sg20
I00
sbsS'mTOB_P1'
p407
g0
(g371
g2
Ntp408
Rp409
(dp410
g11
I00
sg19
I01
sg37
F0.253
sg20
I00
sbsS'mTIB_P0'
p411
g0
(g371
g2
Ntp412
Rp413
(dp414
g11
I00
sg19
I01
sg37
F-0.742
sg20
I00
sbsg38
(lp415
g370
ag375
ag379
ag383
ag387
ag395
ag399
ag403
ag407
ag411
ag391
aS'mTID_P0'
p416
aS'mTID_P1'
p417
asg416
g0
(g371
g2
Ntp418
Rp419
(dp420
g11
I00
sg19
I01
sg37
F-1.427
sg20
I00
sbsg417
g0
(g371
g2
Ntp421
Rp422
(dp423
g11
I00
sg19
I01
sg37
F0.433
sg20
I00
sbsg20
I00
sbsg40
I4
sg365
g0
(g164
g2
Ntp424
Rp425
(dp426
g11
I00
sg19
I01
sg37
S'StripCPEfromTrackAngle'
p427
sg20
I00
sbsg364
g0
(g164
g2
Ntp428
Rp429
(dp430
g11
I00
sg19
I01
sg37
g427
sg20
I00
sbsg69
S'/cvmfs/cms.cern.ch/slc7_amd64_gcc700/cms/cmssw-patch/CMSSW_10_2_4_patch1/python/RecoLocalTracker/SiStripRecHitConverter/StripCPEfromTrackAngle_cfi.py'
p431
sg286
g358
sg46
S'StripCPEESProducer'
p432
sbsS'_Process__aliases'
p433
(dp434
sS'siStripBackPlaneCorrectionDepESProducer'
p435
g0
(g359
g2
Ntp436
Rp437
(dp438
g38
(lp439
S'LatencyRecord'
p440
aS'BackPlaneCorrectionDeconvMode'
p441
aS'BackPlaneCorrectionPeakMode'
p442
asg11
I00
sg20
I00
sg40
I53
sg69
g70
sg440
g0
(g28
g2
Ntp443
Rp444
(dp445
g11
I00
sg19
I01
sg20
I00
sS'label'
p446
g0
(g164
g2
Ntp447
Rp448
(dp449
g11
I00
sg19
I00
sg37
g283
sg20
I00
sbsS'record'
p450
g0
(g164
g2
Ntp451
Rp452
(dp453
g11
I00
sg19
I01
sg37
S'SiStripLatencyRcd'
p454
sg20
I00
sbsg38
(lp455
g450
ag446
asbsg442
g0
(g28
g2
Ntp456
Rp457
(dp458
g11
I00
sg19
I01
sg20
I00
sg446
g0
(g164
g2
Ntp459
Rp460
(dp461
g11
I00
sg19
I00
sg37
S'peak'
p462
sg20
I00
sbsg450
g0
(g164
g2
Ntp463
Rp464
(dp465
g11
I00
sg19
I01
sg37
S'SiStripBackPlaneCorrectionRcd'
p466
sg20
I00
sbsg38
(lp467
g450
ag446
asbsg286
g435
sg441
g0
(g28
g2
Ntp468
Rp469
(dp470
g11
I00
sg19
I01
sg20
I00
sg446
g0
(g164
g2
Ntp471
Rp472
(dp473
g11
I00
sg19
I00
sg37
S'deconvolution'
p474
sg20
I00
sbsg450
g0
(g164
g2
Ntp475
Rp476
(dp477
g11
I00
sg19
I01
sg37
g466
sg20
I00
sbsg38
(lp478
g450
ag446
asbsg46
S'SiStripBackPlaneCorrectionDepESProducer'
p479
sbsS'HFRecalParameterBlock'
p480
g0
(g28
g2
Ntp481
Rp482
(dp483
g11
I00
sg19
I01
sg20
I00
sS'HFdepthTwoParameterA'
p484
g0
(cFWCore.ParameterSet.Types
vdouble
p485
g14
(lp486
F0.002861
aF0.004168
aF0.0064
aF0.008388
aF0.011601
aF0.014425
aF0.018633
aF0.023232
aF0.028274
aF0.035447
aF0.051579
aF0.086593
atp487
Rp488
(dp489
g11
I00
sg19
I01
sg20
I00
sbsS'HFdepthOneParameterA'
p490
g0
(g485
g14
(lp491
F0.004123
aF0.00602
aF0.008201
aF0.010489
aF0.013379
aF0.016997
aF0.021464
aF0.027371
aF0.034195
aF0.044807
aF0.058939
aF0.125497
atp492
Rp493
(dp494
g11
I00
sg19
I01
sg20
I00
sbsS'HFdepthOneParameterB'
p495
g0
(g485
g14
(lp496
F-4e-06
aF-2e-06
aF0.0
aF4e-06
aF1.5e-05
aF2.6e-05
aF6.3e-05
aF8.4e-05
aF0.00016
aF0.000107
aF0.000425
aF0.000209
atp497
Rp498
(dp499
g11
I00
sg19
I01
sg20
I00
sbsS'HFdepthTwoParameterB'
p500
g0
(g485
g14
(lp501
F-2e-06
aF-0.0
aF-7e-06
aF-6e-06
aF-2e-06
aF1e-06
aF1.9e-05
aF3.1e-05
aF6.7e-05
aF1.2e-05
aF0.000157
aF-3e-06
atp502
Rp503
(dp504
g11
I00
sg19
I01
sg20
I00
sbsg38
(lp505
g490
ag495
ag500
ag484
asg286
g480
sbsS'stripCPEESProducer'
p506
g0
(g359
g2
Ntp507
Rp508
(dp509
g38
(lp510
g364
ag365
ag366
asg11
I00
sg20
I00
sg366
g0
(g28
g2
Ntp511
Rp512
(dp513
g11
I00
sg19
I01
sg20
I00
sg38
(lp514
sbsg40
I53
sg365
g0
(g164
g2
Ntp515
Rp516
(dp517
g11
I00
sg19
I01
sg37
S'stripCPE'
p518
sg20
I00
sbsg364
g0
(g164
g2
Ntp519
Rp520
(dp521
g11
I00
sg19
I01
sg37
S'SimpleStripCPE'
p522
sg20
I00
sbsg69
g70
sg286
g506
sg46
g432
sbsS'EcalLaserCorrectionService'
p523
g0
(g359
g2
Ntp524
Rp525
(dp526
g38
(lp527
sg11
I00
sg20
I00
sg40
I53
sg69
g70
sg286
g523
sg46
g523
sbsS'_Process__psets'
p528
(dp529
S'maxEvents'
p530
g0
(g28
g2
Ntp531
Rp532
(dp533
g11
I00
sg19
I00
sg20
I00
sg38
(lp534
S'input'
p535
asg286
g530
sg535
g0
(g103
g2
Ntp536
Rp537
(dp538
g11
I00
sg19
I00
sg37
I3000000
sg20
I00
sbsbsg480
g482
sS'options'
p539
g0
(g28
g2
Ntp540
Rp541
(dp542
g11
I00
sg19
I00
sg20
I00
sS'wantSummary'
p543
g0
(g33
g2
Ntp544
Rp545
(dp546
g11
I00
sg19
I00
sg37
I01
sg20
I00
sbsg38
(lp547
g543
asg286
g539
sbssS'hcal_db_producer'
p548
g0
(g359
g2
Ntp549
Rp550
(dp551
g38
(lp552
S'file'
p553
aS'dump'
p554
asg11
I00
sg20
I00
sg554
g0
(g13
g14
(lp555
g283
atp556
Rp557
(dp558
g11
I00
sg19
I00
sg20
I00
sg21
I1
sbsg40
I53
sg69
g70
sg553
g0
(g164
g2
Ntp559
Rp560
(dp561
g11
I00
sg19
I00
sg37
g283
sg20
I00
sbsg286
g548
sg46
S'HcalDbProducer'
p562
sbsg312
g314
sS'_Process__essources'
p563
(dp564
S'HepPDTESSource'
p565
g0
(cFWCore.ParameterSet.Modules
ESSource
p566
g2
Ntp567
Rp568
(dp569
g38
(lp570
S'pdtFileName'
p571
asg11
I00
sg571
g0
(cFWCore.ParameterSet.Types
FileInPath
p572
g2
Ntp573
Rp574
(dp575
g11
I00
sg19
I01
sg37
S'SimGeneral/HepPDTESSource/data/pythiaparticle.tbl'
p576
sg20
I00
sbsg20
I00
sg40
I4
sg69
S'/cvmfs/cms.cern.ch/slc7_amd64_gcc700/cms/cmssw-patch/CMSSW_10_2_4_patch1/python/SimGeneral/HepPDTESSource/pythiapdt_cfi.py'
p577
sg286
g565
sg46
g565
sbsS'es_hardcode'
p578
g0
(g566
g2
Ntp579
Rp580
(dp581
g11
I00
sg40
I172
sS'useHEUpgrade'
p582
g0
(g33
g2
Ntp583
Rp584
(dp585
g11
I00
sg19
I01
sg37
I00
sg20
I00
sbsS'HBRecalibration'
p586
g0
(g33
g2
Ntp587
Rp588
(dp589
g11
I00
sg19
I01
sg37
I00
sg20
I00
sbsS'useLayer0Weight'
p590
g0
(g33
g2
Ntp591
Rp592
(dp593
g11
I00
sg19
I01
sg37
I00
sg20
I00
sbsS'HEmeanenergies'
p594
g0
(g572
g2
Ntp595
Rp596
(dp597
g11
I00
sg19
I01
sg37
S'CalibCalorimetry/HcalPlugins/data/meanenergiesHE.txt'
p598
sg20
I00
sbsg480
g482
sS'heUpgrade'
p599
g0
(g28
g2
Ntp600
Rp601
(dp602
g11
I00
sg19
I01
sS'qieType'
p603
g0
(g103
g2
Ntp604
Rp605
(dp606
g11
I00
sg19
I01
sg37
I2
sg20
I00
sbsg20
I00
sS'pedestalWidth'
p607
g0
(g371
g2
Ntp608
Rp609
(dp610
g11
I00
sg19
I01
sg37
F1.5
sg20
I00
sbsS'recoShape'
p611
g0
(g103
g2
Ntp612
Rp613
(dp614
g11
I00
sg19
I01
sg37
I206
sg20
I00
sbsS'zsThreshold'
p615
g0
(g103
g2
Ntp616
Rp617
(dp618
g11
I00
sg19
I01
sg37
I16
sg20
I00
sbsS'darkCurrent'
p619
g0
(g485
g14
(lp620
F0.01
aF0.015
atp621
Rp622
(dp623
g11
I00
sg19
I01
sg20
I00
sbsS'qieOffset'
p624
g0
(g485
g14
(lp625
F0.0
aF0.0
aF0.0
aF0.0
atp626
Rp627
(dp628
g11
I00
sg19
I01
sg20
I00
sbsS'qieSlope'
p629
g0
(g485
g14
(lp630
F0.05376
aF0.05376
aF0.05376
aF0.05376
atp631
Rp632
(dp633
g11
I00
sg19
I01
sg20
I00
sbsS'radiationDamage'
p634
g0
(g28
g2
Ntp635
Rp636
(dp637
g11
I00
sg19
I01
sS'temperatureNew'
p638
g0
(g371
g2
Ntp639
Rp640
(dp641
g11
I00
sg19
I01
sg37
I5
sg20
I00
sbsg20
I00
sS'depVsNeutrons'
p642
g0
(g485
g14
(lp643
F5.543e-10
aF8.012e-10
atp644
Rp645
(dp646
g11
I00
sg19
I01
sg20
I00
sbsS'temperatureBase'
p647
g0
(g371
g2
Ntp648
Rp649
(dp650
g11
I00
sg19
I01
sg37
I20
sg20
I00
sbsS'depVsTemp'
p651
g0
(g371
g2
Ntp652
Rp653
(dp654
g11
I00
sg19
I01
sg37
F0.0631
sg20
I00
sbsS'intlumiOffset'
p655
g0
(g371
g2
Ntp656
Rp657
(dp658
g11
I00
sg19
I01
sg37
I75
sg20
I00
sbsg38
(lp659
g638
ag642
ag647
ag651
ag655
aS'intlumiToNeutrons'
p660
asg660
g0
(g371
g2
Ntp661
Rp662
(dp663
g11
I00
sg19
I01
sg37
F29200000.0
sg20
I00
sbsbsS'doRadiationDamage'
p664
g0
(g33
g2
Ntp665
Rp666
(dp667
g11
I00
sg19
I01
sg37
I01
sg20
I00
sbsg38
(lp668
g603
ag607
ag611
ag615
aS'photoelectronsToAnalog'
p669
ag624
ag629
ag634
ag664
ag619
aS'pedestal'
p670
aS'mcShape'
p671
aS'gainWidth'
p672
aS'gain'
p673
asg669
g0
(g371
g2
Ntp674
Rp675
(dp676
g11
I00
sg19
I01
sg37
F40.0
sg20
I00
sbsg670
g0
(g371
g2
Ntp677
Rp678
(dp679
g11
I00
sg19
I01
sg37
F17.3
sg20
I00
sbsg671
g0
(g103
g2
Ntp680
Rp681
(dp682
g11
I00
sg19
I01
sg37
I206
sg20
I00
sbsg672
g0
(g485
g14
(lp683
I0
atp684
Rp685
(dp686
g11
I00
sg19
I01
sg20
I00
sbsg673
g0
(g485
g14
(lp687
F0.0006252
atp688
Rp689
(dp690
g11
I00
sg19
I01
sg20
I00
sbsbsg38
(lp691
S'toGet'
p692
ag586
ag590
ag594
ag480
ag599
aS'useIeta18depth1'
p693
aS'killHE'
p694
aS'useHBUpgrade'
p695
aS'hbUpgrade'
p696
aS'testHEPlan1'
p697
aS'iLumi'
p698
aS'testHFQIE10'
p699
aS'HBmeanenergies'
p700
ag582
aS'GainWidthsForTrigPrims'
p701
aS'HBreCalibCutoff'
p702
aS'HFRecalibration'
p703
aS'ho'
p704
aS'hb'
p705
aS'hf'
p706
aS'he'
p707
aS'HERecalibration'
p708
aS'useHFUpgrade'
p709
aS'HEreCalibCutoff'
p710
aS'SiPMCharacteristics'
p711
aS'useHOUpgrade'
p712
aS'hfUpgrade'
p713
asg69
S'/cvmfs/cms.cern.ch/slc7_amd64_gcc700/cms/cmssw-patch/CMSSW_10_2_4_patch1/python/CalibCalorimetry/HcalPlugins/Hcal_Conditions_forGlobalTag_cff.py'
p714
sg693
g0
(g33
g2
Ntp715
Rp716
(dp717
g11
I00
sg19
I01
sg37
I01
sg20
I00
sbsg694
g0
(g33
g2
Ntp718
Rp719
(dp720
g11
I00
sg19
I01
sg37
I00
sg20
I00
sbsg695
g0
(g33
g2
Ntp721
Rp722
(dp723
g11
I00
sg19
I01
sg37
I00
sg20
I00
sbsg696
g0
(g28
g2
Ntp724
Rp725
(dp726
g11
I00
sg19
I01
sg603
g0
(g103
g2
Ntp727
Rp728
(dp729
g11
I00
sg19
I01
sg37
I2
sg20
I00
sbsg20
I00
sg607
g0
(g371
g2
Ntp730
Rp731
(dp732
g11
I00
sg19
I01
sg37
F1.5
sg20
I00
sbsg611
g0
(g103
g2
Ntp733
Rp734
(dp735
g11
I00
sg19
I01
sg37
I206
sg20
I00
sbsg615
g0
(g103
g2
Ntp736
Rp737
(dp738
g11
I00
sg19
I01
sg37
I16
sg20
I00
sbsg619
g0
(g485
g14
(lp739
F0.01
aF0.015
atp740
Rp741
(dp742
g11
I00
sg19
I01
sg20
I00
sbsg624
g0
(g485
g14
(lp743
F0.0
aF0.0
aF0.0
aF0.0
atp744
Rp745
(dp746
g11
I00
sg19
I01
sg20
I00
sbsg629
g0
(g485
g14
(lp747
F0.05376
aF0.05376
aF0.05376
aF0.05376
atp748
Rp749
(dp750
g11
I00
sg19
I01
sg20
I00
sbsg634
g0
(g28
g2
Ntp751
Rp752
(dp753
g11
I00
sg19
I01
sg638
g0
(g371
g2
Ntp754
Rp755
(dp756
g11
I00
sg19
I01
sg37
I-5
sg20
I00
sbsg20
I00
sg642
g0
(g485
g14
(lp757
F5.543e-10
aF8.012e-10
atp758
Rp759
(dp760
g11
I00
sg19
I01
sg20
I00
sbsg647
g0
(g371
g2
Ntp761
Rp762
(dp763
g11
I00
sg19
I01
sg37
I20
sg20
I00
sbsg651
g0
(g371
g2
Ntp764
Rp765
(dp766
g11
I00
sg19
I01
sg37
F0.0631
sg20
I00
sbsg655
g0
(g371
g2
Ntp767
Rp768
(dp769
g11
I00
sg19
I01
sg37
I150
sg20
I00
sbsg38
(lp770
g638
ag642
ag647
ag651
ag655
ag660
asg660
g0
(g371
g2
Ntp771
Rp772
(dp773
g11
I00
sg19
I01
sg37
F367000000.0
sg20
I00
sbsbsg664
g0
(g33
g2
Ntp774
Rp775
(dp776
g11
I00
sg19
I01
sg37
I01
sg20
I00
sbsg38
(lp777
g603
ag607
ag611
ag615
ag669
ag624
ag629
ag634
ag664
ag619
ag670
ag671
ag672
ag673
asg669
g0
(g371
g2
Ntp778
Rp779
(dp780
g11
I00
sg19
I01
sg37
F40.0
sg20
I00
sbsg670
g0
(g371
g2
Ntp781
Rp782
(dp783
g11
I00
sg19
I01
sg37
F17.3
sg20
I00
sbsg671
g0
(g103
g2
Ntp784
Rp785
(dp786
g11
I00
sg19
I01
sg37
I206
sg20
I00
sbsg672
g0
(g485
g14
(lp787
I0
atp788
Rp789
(dp790
g11
I00
sg19
I01
sg20
I00
sbsg673
g0
(g485
g14
(lp791
F0.0006252
atp792
Rp793
(dp794
g11
I00
sg19
I01
sg20
I00
sbsbsg46
S'HcalHardcodeCalibrations'
p795
sg697
g0
(g33
g2
Ntp796
Rp797
(dp798
g11
I00
sg19
I01
sg37
I00
sg20
I00
sbsg698
g0
(g371
g2
Ntp799
Rp800
(dp801
g11
I00
sg19
I01
sg37
F-1.0
sg20
I00
sbsg699
g0
(g33
g2
Ntp802
Rp803
(dp804
g11
I00
sg19
I01
sg37
I00
sg20
I00
sbsg700
g0
(g572
g2
Ntp805
Rp806
(dp807
g11
I00
sg19
I01
sg37
S'CalibCalorimetry/HcalPlugins/data/meanenergiesHB.txt'
p808
sg20
I00
sbsg692
g0
(g13
g14
(lp809
S'GainWidths'
p810
atp811
Rp812
(dp813
g11
I00
sg19
I00
sg20
I00
sg21
I1
sbsg701
g0
(g33
g2
Ntp814
Rp815
(dp816
g11
I00
sg19
I01
sg37
I00
sg20
I00
sbsg702
g0
(g371
g2
Ntp817
Rp818
(dp819
g11
I00
sg19
I01
sg37
F20.0
sg20
I00
sbsg703
g0
(g33
g2
Ntp820
Rp821
(dp822
g11
I00
sg19
I01
sg37
I00
sg20
I00
sbsg704
g0
(g28
g2
Ntp823
Rp824
(dp825
g11
I00
sg19
I01
sg603
g0
(g103
g2
Ntp826
Rp827
(dp828
g11
I00
sg19
I01
sg37
I0
sg20
I00
sbsg20
I00
sg607
g0
(g371
g2
Ntp829
Rp830
(dp831
g11
I00
sg19
I01
sg37
F0.6285
sg20
I00
sbsg611
g0
(g103
g2
Ntp832
Rp833
(dp834
g11
I00
sg19
I01
sg37
I201
sg20
I00
sbsg615
g0
(g103
g2
Ntp835
Rp836
(dp837
g11
I00
sg19
I01
sg37
I24
sg20
I00
sbsg619
g0
(g485
g14
(lp838
F0.0
atp839
Rp840
(dp841
g11
I00
sg19
I01
sg20
I00
sbsg624
g0
(g485
g14
(lp842
F-0.44
aF1.4
aF7.1
aF38.5
atp843
Rp844
(dp845
g11
I00
sg19
I01
sg20
I00
sbsg629
g0
(g485
g14
(lp846
F0.907
aF0.915
aF0.92
aF0.921
atp847
Rp848
(dp849
g11
I00
sg19
I01
sg20
I00
sbsg673
g0
(g485
g14
(lp850
F0.006
aF0.0087
atp851
Rp852
(dp853
g11
I00
sg19
I01
sg20
I00
sbsg664
g0
(g33
g2
Ntp854
Rp855
(dp856
g11
I00
sg19
I01
sg37
I00
sg20
I00
sbsg38
(lp857
g603
ag607
ag611
ag615
ag669
ag624
ag629
ag673
ag664
ag619
ag670
ag671
ag672
asg669
g0
(g371
g2
Ntp858
Rp859
(dp860
g11
I00
sg19
I01
sg37
F4.0
sg20
I00
sbsg670
g0
(g371
g2
Ntp861
Rp862
(dp863
g11
I00
sg19
I01
sg37
F12.06
sg20
I00
sbsg671
g0
(g103
g2
Ntp864
Rp865
(dp866
g11
I00
sg19
I01
sg37
I201
sg20
I00
sbsg672
g0
(g485
g14
(lp867
F0.0
aF0.0
atp868
Rp869
(dp870
g11
I00
sg19
I01
sg20
I00
sbsbsg705
g0
(g28
g2
Ntp871
Rp872
(dp873
g11
I00
sg19
I01
sg603
g0
(g103
g2
Ntp874
Rp875
(dp876
g11
I00
sg19
I01
sg37
I0
sg20
I00
sbsg20
I00
sg607
g0
(g371
g2
Ntp877
Rp878
(dp879
g11
I00
sg19
I01
sg37
F0.809
sg20
I00
sbsg611
g0
(g103
g2
Ntp880
Rp881
(dp882
g11
I00
sg19
I01
sg37
I105
sg20
I00
sbsg615
g0
(g103
g2
Ntp883
Rp884
(dp885
g11
I00
sg19
I01
sg37
I8
sg20
I00
sbsg619
g0
(g485
g14
(lp886
F0.0
atp887
Rp888
(dp889
g11
I00
sg19
I01
sg20
I00
sbsg624
g0
(g485
g14
(lp890
F-0.49
aF1.8
aF7.2
aF37.9
atp891
Rp892
(dp893
g11
I00
sg19
I01
sg20
I00
sbsg629
g0
(g485
g14
(lp894
F0.912
aF0.917
aF0.922
aF0.923
atp895
Rp896
(dp897
g11
I00
sg19
I01
sg20
I00
sbsg673
g0
(g485
g14
(lp898
F0.19
atp899
Rp900
(dp901
g11
I00
sg19
I01
sg20
I00
sbsg664
g0
(g33
g2
Ntp902
Rp903
(dp904
g11
I00
sg19
I01
sg37
I00
sg20
I00
sbsg38
(lp905
g603
ag607
ag611
ag615
ag669
ag624
ag629
ag673
ag664
ag619
ag670
ag671
ag672
asg669
g0
(g371
g2
Ntp906
Rp907
(dp908
g11
I00
sg19
I01
sg37
F0.3305
sg20
I00
sbsg670
g0
(g371
g2
Ntp909
Rp910
(dp911
g11
I00
sg19
I01
sg37
F3.285
sg20
I00
sbsg671
g0
(g103
g2
Ntp912
Rp913
(dp914
g11
I00
sg19
I01
sg37
I125
sg20
I00
sbsg672
g0
(g485
g14
(lp915
F0.0
atp916
Rp917
(dp918
g11
I00
sg19
I01
sg20
I00
sbsbsg706
g0
(g28
g2
Ntp919
Rp920
(dp921
g11
I00
sg19
I01
sg603
g0
(g103
g2
Ntp922
Rp923
(dp924
g11
I00
sg19
I01
sg37
I0
sg20
I00
sbsg20
I00
sg607
g0
(g371
g2
Ntp925
Rp926
(dp927
g11
I00
sg19
I01
sg37
F2.516
sg20
I00
sbsg611
g0
(g103
g2
Ntp928
Rp929
(dp930
g11
I00
sg19
I01
sg37
I301
sg20
I00
sbsg615
g0
(g103
g2
Ntp931
Rp932
(dp933
g11
I00
sg19
I01
sg37
I-9999
sg20
I00
sbsg619
g0
(g485
g14
(lp934
F0.0
atp935
Rp936
(dp937
g11
I00
sg19
I01
sg20
I00
sbsg624
g0
(g485
g14
(lp938
F-0.87
aF1.4
aF7.8
aF-29.6
atp939
Rp940
(dp941
g11
I00
sg19
I01
sg20
I00
sbsg629
g0
(g485
g14
(lp942
F0.359
aF0.358
aF0.36
aF0.367
atp943
Rp944
(dp945
g11
I00
sg19
I01
sg20
I00
sbsg673
g0
(g485
g14
(lp946
F0.14
aF0.135
atp947
Rp948
(dp949
g11
I00
sg19
I01
sg20
I00
sbsg664
g0
(g33
g2
Ntp950
Rp951
(dp952
g11
I00
sg19
I01
sg37
I00
sg20
I00
sbsg38
(lp953
g603
ag607
ag611
ag615
ag669
ag624
ag629
ag673
ag664
ag619
ag670
ag671
ag672
asg669
g0
(g371
g2
Ntp954
Rp955
(dp956
g11
I00
sg19
I01
sg37
F0.0
sg20
I00
sbsg670
g0
(g371
g2
Ntp957
Rp958
(dp959
g11
I00
sg19
I01
sg37
F9.354
sg20
I00
sbsg671
g0
(g103
g2
Ntp960
Rp961
(dp962
g11
I00
sg19
I01
sg37
I301
sg20
I00
sbsg672
g0
(g485
g14
(lp963
F0.0
aF0.0
atp964
Rp965
(dp966
g11
I00
sg19
I01
sg20
I00
sbsbsg707
g0
(g28
g2
Ntp967
Rp968
(dp969
g11
I00
sg19
I01
sg603
g0
(g103
g2
Ntp970
Rp971
(dp972
g11
I00
sg19
I01
sg37
I0
sg20
I00
sbsg20
I00
sg607
g0
(g371
g2
Ntp973
Rp974
(dp975
g11
I00
sg19
I01
sg37
F0.9698
sg20
I00
sbsg611
g0
(g103
g2
Ntp976
Rp977
(dp978
g11
I00
sg19
I01
sg37
I105
sg20
I00
sbsg615
g0
(g103
g2
Ntp979
Rp980
(dp981
g11
I00
sg19
I01
sg37
I9
sg20
I00
sbsg619
g0
(g485
g14
(lp982
F0.0
atp983
Rp984
(dp985
g11
I00
sg19
I01
sg20
I00
sbsg624
g0
(g485
g14
(lp986
F-0.38
aF2.0
aF7.6
aF39.6
atp987
Rp988
(dp989
g11
I00
sg19
I01
sg20
I00
sbsg629
g0
(g485
g14
(lp990
F0.912
aF0.916
aF0.92
aF0.922
atp991
Rp992
(dp993
g11
I00
sg19
I01
sg20
I00
sbsg673
g0
(g485
g14
(lp994
F0.23
atp995
Rp996
(dp997
g11
I00
sg19
I01
sg20
I00
sbsg664
g0
(g33
g2
Ntp998
Rp999
(dp1000
g11
I00
sg19
I01
sg37
I00
sg20
I00
sbsg38
(lp1001
g603
ag607
ag611
ag615
ag669
ag624
ag629
ag673
ag664
ag619
ag670
ag671
ag672
asg669
g0
(g371
g2
Ntp1002
Rp1003
(dp1004
g11
I00
sg19
I01
sg37
F0.3305
sg20
I00
sbsg670
g0
(g371
g2
Ntp1005
Rp1006
(dp1007
g11
I00
sg19
I01
sg37
F3.163
sg20
I00
sbsg671
g0
(g103
g2
Ntp1008
Rp1009
(dp1010
g11
I00
sg19
I01
sg37
I125
sg20
I00
sbsg672
g0
(g485
g14
(lp1011
I0
atp1012
Rp1013
(dp1014
g11
I00
sg19
I01
sg20
I00
sbsbsg20
I00
sg708
g0
(g33
g2
Ntp1015
Rp1016
(dp1017
g11
I00
sg19
I01
sg37
I00
sg20
I00
sbsg709
g0
(g33
g2
Ntp1018
Rp1019
(dp1020
g11
I00
sg19
I01
sg37
I00
sg20
I00
sbsg710
g0
(g371
g2
Ntp1021
Rp1022
(dp1023
g11
I00
sg19
I01
sg37
F20.0
sg20
I00
sbsg711
g0
(cFWCore.ParameterSet.Types
VPSet
p1024
g14
(lp1025
g0
(g28
g2
Ntp1026
Rp1027
(dp1028
g11
I00
sg19
I01
sg20
I00
sS'crosstalk'
p1029
g0
(g371
g2
Ntp1030
Rp1031
(dp1032
g11
I00
sg19
I01
sg37
F0.0
sg20
I00
sbsS'nonlin1'
p1033
g0
(g371
g2
Ntp1034
Rp1035
(dp1036
g11
I00
sg19
I01
sg37
F1.0
sg20
I00
sbsS'nonlin3'
p1037
g0
(g371
g2
Ntp1038
Rp1039
(dp1040
g11
I00
sg19
I01
sg37
F0.0
sg20
I00
sbsS'nonlin2'
p1041
g0
(g371
g2
Ntp1042
Rp1043
(dp1044
g11
I00
sg19
I01
sg37
F0.0
sg20
I00
sbsg38
(lp1045
g1033
ag1037
ag1041
aS'pixels'
p1046
ag1029
asg1046
g0
(g103
g2
Ntp1047
Rp1048
(dp1049
g11
I00
sg19
I01
sg37
I36000
sg20
I00
sbsbag0
(g28
g2
Ntp1050
Rp1051
(dp1052
g11
I00
sg19
I01
sg20
I00
sg1029
g0
(g371
g2
Ntp1053
Rp1054
(dp1055
g11
I00
sg19
I01
sg37
F0.0
sg20
I00
sbsg1033
g0
(g371
g2
Ntp1056
Rp1057
(dp1058
g11
I00
sg19
I01
sg37
F1.0
sg20
I00
sbsg1037
g0
(g371
g2
Ntp1059
Rp1060
(dp1061
g11
I00
sg19
I01
sg37
F0.0
sg20
I00
sbsg1041
g0
(g371
g2
Ntp1062
Rp1063
(dp1064
g11
I00
sg19
I01
sg37
F0.0
sg20
I00
sbsg38
(lp1065
g1033
ag1037
ag1041
ag1046
ag1029
asg1046
g0
(g103
g2
Ntp1066
Rp1067
(dp1068
g11
I00
sg19
I01
sg37
I2500
sg20
I00
sbsbag0
(g28
g2
Ntp1069
Rp1070
(dp1071
g11
I00
sg19
I01
sg20
I00
sg1029
g0
(g371
g2
Ntp1072
Rp1073
(dp1074
g11
I00
sg19
I01
sg37
F0.17
sg20
I00
sbsg1033
g0
(g371
g2
Ntp1075
Rp1076
(dp1077
g11
I00
sg19
I01
sg37
F1.00985
sg20
I00
sbsg1037
g0
(g371
g2
Ntp1078
Rp1079
(dp1080
g11
I00
sg19
I01
sg37
F2.86282e-10
sg20
I00
sbsg1041
g0
(g371
g2
Ntp1081
Rp1082
(dp1083
g11
I00
sg19
I01
sg37
F7.84089e-06
sg20
I00
sbsg38
(lp1084
g1033
ag1037
ag1041
ag1046
ag1029
asg1046
g0
(g103
g2
Ntp1085
Rp1086
(dp1087
g11
I00
sg19
I01
sg37
I27370
sg20
I00
sbsbag0
(g28
g2
Ntp1088
Rp1089
(dp1090
g11
I00
sg19
I01
sg20
I00
sg1029
g0
(g371
g2
Ntp1091
Rp1092
(dp1093
g11
I00
sg19
I01
sg37
F0.196
sg20
I00
sbsg1033
g0
(g371
g2
Ntp1094
Rp1095
(dp1096
g11
I00
sg19
I01
sg37
F1.00546
sg20
I00
sbsg1037
g0
(g371
g2
Ntp1097
Rp1098
(dp1099
g11
I00
sg19
I01
sg37
F1.27011e-10
sg20
I00
sbsg1041
g0
(g371
g2
Ntp1100
Rp1101
(dp1102
g11
I00
sg19
I01
sg37
F6.40239e-06
sg20
I00
sbsg38
(lp1103
g1033
ag1037
ag1041
ag1046
ag1029
asg1046
g0
(g103
g2
Ntp1104
Rp1105
(dp1106
g11
I00
sg19
I01
sg37
I38018
sg20
I00
sbsbag0
(g28
g2
Ntp1107
Rp1108
(dp1109
g11
I00
sg19
I01
sg20
I00
sg1029
g0
(g371
g2
Ntp1110
Rp1111
(dp1112
g11
I00
sg19
I01
sg37
F0.17
sg20
I00
sbsg1033
g0
(g371
g2
Ntp1113
Rp1114
(dp1115
g11
I00
sg19
I01
sg37
F1.00985
sg20
I00
sbsg1037
g0
(g371
g2
Ntp1116
Rp1117
(dp1118
g11
I00
sg19
I01
sg37
F2.86282e-10
sg20
I00
sbsg1041
g0
(g371
g2
Ntp1119
Rp1120
(dp1121
g11
I00
sg19
I01
sg37
F7.84089e-06
sg20
I00
sbsg38
(lp1122
g1033
ag1037
ag1041
ag1046
ag1029
asg1046
g0
(g103
g2
Ntp1123
Rp1124
(dp1125
g11
I00
sg19
I01
sg37
I27370
sg20
I00
sbsbag0
(g28
g2
Ntp1126
Rp1127
(dp1128
g11
I00
sg19
I01
sg20
I00
sg1029
g0
(g371
g2
Ntp1129
Rp1130
(dp1131
g11
I00
sg19
I01
sg37
F0.196
sg20
I00
sbsg1033
g0
(g371
g2
Ntp1132
Rp1133
(dp1134
g11
I00
sg19
I01
sg37
F1.00546
sg20
I00
sbsg1037
g0
(g371
g2
Ntp1135
Rp1136
(dp1137
g11
I00
sg19
I01
sg37
F1.27011e-10
sg20
I00
sbsg1041
g0
(g371
g2
Ntp1138
Rp1139
(dp1140
g11
I00
sg19
I01
sg37
F6.40239e-06
sg20
I00
sbsg38
(lp1141
g1033
ag1037
ag1041
ag1046
ag1029
asg1046
g0
(g103
g2
Ntp1142
Rp1143
(dp1144
g11
I00
sg19
I01
sg37
I38018
sg20
I00
sbsbag0
(g28
g2
Ntp1145
Rp1146
(dp1147
g11
I00
sg19
I01
sg20
I00
sg1029
g0
(g371
g2
Ntp1148
Rp1149
(dp1150
g11
I00
sg19
I01
sg37
F0.0
sg20
I00
sbsg1033
g0
(g371
g2
Ntp1151
Rp1152
(dp1153
g11
I00
sg19
I01
sg37
F1.0
sg20
I00
sbsg1037
g0
(g371
g2
Ntp1154
Rp1155
(dp1156
g11
I00
sg19
I01
sg37
F0.0
sg20
I00
sbsg1041
g0
(g371
g2
Ntp1157
Rp1158
(dp1159
g11
I00
sg19
I01
sg37
F0.0
sg20
I00
sbsg38
(lp1160
g1033
ag1037
ag1041
ag1046
ag1029
asg1046
g0
(g103
g2
Ntp1161
Rp1162
(dp1163
g11
I00
sg19
I01
sg37
I0
sg20
I00
sbsbatp1164
Rp1165
(dp1166
g11
I00
sg19
I01
sg20
I00
sg21
I1
sbsg286
g578
sg712
g0
(g33
g2
Ntp1167
Rp1168
(dp1169
g11
I00
sg19
I01
sg37
I01
sg20
I00
sbsg713
g0
(g28
g2
Ntp1170
Rp1171
(dp1172
g11
I00
sg19
I01
sg603
g0
(g103
g2
Ntp1173
Rp1174
(dp1175
g11
I00
sg19
I01
sg37
I1
sg20
I00
sbsg20
I00
sg607
g0
(g371
g2
Ntp1176
Rp1177
(dp1178
g11
I00
sg19
I01
sg37
F3.33
sg20
I00
sbsg611
g0
(g103
g2
Ntp1179
Rp1180
(dp1181
g11
I00
sg19
I01
sg37
I301
sg20
I00
sbsg615
g0
(g103
g2
Ntp1182
Rp1183
(dp1184
g11
I00
sg19
I01
sg37
I-9999
sg20
I00
sbsg619
g0
(g485
g14
(lp1185
F0.0
atp1186
Rp1187
(dp1188
g11
I00
sg19
I01
sg20
I00
sbsg624
g0
(g485
g14
(lp1189
F0.0697
aF-0.7405
aF12.38
aF-671.9
atp1190
Rp1191
(dp1192
g11
I00
sg19
I01
sg20
I00
sbsg629
g0
(g485
g14
(lp1193
F0.297
aF0.298
aF0.298
aF0.313
atp1194
Rp1195
(dp1196
g11
I00
sg19
I01
sg20
I00
sbsg673
g0
(g485
g14
(lp1197
F0.14
aF0.135
atp1198
Rp1199
(dp1200
g11
I00
sg19
I01
sg20
I00
sbsg664
g0
(g33
g2
Ntp1201
Rp1202
(dp1203
g11
I00
sg19
I01
sg37
I00
sg20
I00
sbsg38
(lp1204
g603
ag607
ag611
ag615
ag669
ag624
ag629
ag673
ag664
ag619
ag670
ag671
ag672
asg669
g0
(g371
g2
Ntp1205
Rp1206
(dp1207
g11
I00
sg19
I01
sg37
F0.0
sg20
I00
sbsg670
g0
(g371
g2
Ntp1208
Rp1209
(dp1210
g11
I00
sg19
I01
sg37
F13.33
sg20
I00
sbsg671
g0
(g103
g2
Ntp1211
Rp1212
(dp1213
g11
I00
sg19
I01
sg37
I301
sg20
I00
sbsg672
g0
(g485
g14
(lp1214
F0.0
aF0.0
atp1215
Rp1216
(dp1217
g11
I00
sg19
I01
sg20
I00
sbsbsbsS'GlobalTag'
p1218
g0
(g566
g2
Ntp1219
Rp1220
(dp1221
g38
(lp1222
S'DBParameters'
p1223
aS'connect'
p1224
aS'globaltag'
p1225
aS'RefreshEachRun'
p1226
aS'pfnPrefix'
p1227
aS'snapshotTime'
p1228
ag692
aS'pfnPostfix'
p1229
aS'RefreshAlways'
p1230
aS'ReconnectEachRun'
p1231
aS'RefreshOpenIOVs'
p1232
aS'DumpStat'
p1233
asg11
I00
sg69
S'/cvmfs/cms.cern.ch/slc7_amd64_gcc700/cms/cmssw-patch/CMSSW_10_2_4_patch1/python/CondCore/ESSources/CondDBESSource_cfi.py'
p1234
sg20
I01
sg1225
g0
(g164
g2
Ntp1235
Rp1236
(dp1237
g11
I00
sg19
I01
sg37
S'92X_dataRun2_Prompt_v4'
p1238
sg20
I01
sbsg1226
g0
(g33
g2
Ntp1239
Rp1240
(dp1241
g11
I00
sg19
I00
sg37
I00
sg20
I00
sbsg1227
g0
(g164
g2
Ntp1242
Rp1243
(dp1244
g11
I00
sg19
I00
sg37
g283
sg20
I00
sbsg1228
g0
(g164
g2
Ntp1245
Rp1246
(dp1247
g11
I00
sg19
I01
sg37
g283
sg20
I00
sbsg692
g0
(g1024
g14
(lp1248
tp1249
Rp1250
(dp1251
g11
I00
sg19
I01
sg20
I00
sg21
I1
sbsg1229
g0
(g164
g2
Ntp1252
Rp1253
(dp1254
g11
I00
sg19
I00
sg37
g283
sg20
I00
sbsg1223
g0
(g28
g2
Ntp1255
Rp1256
(dp1257
g11
I00
sg19
I01
sS'authenticationPath'
p1258
g0
(g164
g2
Ntp1259
Rp1260
(dp1261
g11
I00
sg19
I00
sg37
g283
sg20
I00
sbsg20
I00
sS'messageLevel'
p1262
g0
(g103
g2
Ntp1263
Rp1264
(dp1265
g11
I00
sg19
I00
sg37
I0
sg20
I00
sbsg38
(lp1266
g1262
aS'security'
p1267
aS'authenticationSystem'
p1268
ag1258
asg1267
g0
(g164
g2
Ntp1269
Rp1270
(dp1271
g11
I00
sg19
I00
sg37
g283
sg20
I00
sbsg1268
g0
(g103
g2
Ntp1272
Rp1273
(dp1274
g11
I00
sg19
I00
sg37
I0
sg20
I00
sbsbsg1230
g0
(g33
g2
Ntp1275
Rp1276
(dp1277
g11
I00
sg19
I00
sg37
I00
sg20
I00
sbsg40
I19
sg1224
g0
(g164
g2
Ntp1278
Rp1279
(dp1280
g11
I00
sg19
I01
sg37
S'frontier://FrontierProd/CMS_CONDITIONS'
p1281
sg20
I00
sbsg1231
g0
(g33
g2
Ntp1282
Rp1283
(dp1284
g11
I00
sg19
I00
sg37
I00
sg20
I00
sbsg286
g1218
sg1232
g0
(g33
g2
Ntp1285
Rp1286
(dp1287
g11
I00
sg19
I00
sg37
I00
sg20
I00
sbsg1233
g0
(g33
g2
Ntp1288
Rp1289
(dp1290
g11
I00
sg19
I00
sg37
I00
sg20
I00
sbsg46
S'PoolDBESSource'
p1291
sbsS'HcalTimeSlewEP'
p1292
g0
(g566
g2
Ntp1293
Rp1294
(dp1295
g38
(lp1296
S'timeSlewParametersM3'
p1297
aS'timeSlewParametersM2'
p1298
aS'appendToDataLabel'
p1299
asg11
I00
sg1297
g0
(g1024
g14
(lp1300
g0
(g28
g2
Ntp1301
Rp1302
(dp1303
g11
I00
sg19
I01
sS'tspar2'
p1304
g0
(g371
g2
Ntp1305
Rp1306
(dp1307
g11
I00
sg19
I01
sg37
F0.0
sg20
I00
sbsg20
I00
sS'tspar0'
p1308
g0
(g371
g2
Ntp1309
Rp1310
(dp1311
g11
I00
sg19
I01
sg37
F12.2999
sg20
I00
sbsS'tspar1'
p1312
g0
(g371
g2
Ntp1313
Rp1314
(dp1315
g11
I00
sg19
I01
sg37
F-2.19142
sg20
I00
sbsS'tspar1_siPM'
p1316
g0
(g371
g2
Ntp1317
Rp1318
(dp1319
g11
I00
sg19
I01
sg37
F0.0
sg20
I00
sbsS'cap'
p1320
g0
(g371
g2
Ntp1321
Rp1322
(dp1323
g11
I00
sg19
I01
sg37
F6.0
sg20
I00
sbsS'tspar0_siPM'
p1324
g0
(g371
g2
Ntp1325
Rp1326
(dp1327
g11
I00
sg19
I01
sg37
F0.0
sg20
I00
sbsg38
(lp1328
g1304
ag1308
ag1312
ag1316
ag1320
ag1324
aS'tspar2_siPM'
p1329
asg1329
g0
(g371
g2
Ntp1330
Rp1331
(dp1332
g11
I00
sg19
I01
sg37
F0.0
sg20
I00
sbsbag0
(g28
g2
Ntp1333
Rp1334
(dp1335
g11
I00
sg19
I01
sg1304
g0
(g371
g2
Ntp1336
Rp1337
(dp1338
g11
I00
sg19
I01
sg37
F32.0
sg20
I00
sbsg20
I00
sg1308
g0
(g371
g2
Ntp1339
Rp1340
(dp1341
g11
I00
sg19
I01
sg37
F15.5
sg20
I00
sbsg1312
g0
(g371
g2
Ntp1342
Rp1343
(dp1344
g11
I00
sg19
I01
sg37
F-3.2
sg20
I00
sbsg1316
g0
(g371
g2
Ntp1345
Rp1346
(dp1347
g11
I00
sg19
I01
sg37
F0.0
sg20
I00
sbsg1320
g0
(g371
g2
Ntp1348
Rp1349
(dp1350
g11
I00
sg19
I01
sg37
F6.0
sg20
I00
sbsg1324
g0
(g371
g2
Ntp1351
Rp1352
(dp1353
g11
I00
sg19
I01
sg37
F0.0
sg20
I00
sbsg38
(lp1354
g1304
ag1308
ag1312
ag1316
ag1320
ag1324
ag1329
asg1329
g0
(g371
g2
Ntp1355
Rp1356
(dp1357
g11
I00
sg19
I01
sg37
F0.0
sg20
I00
sbsbag0
(g28
g2
Ntp1358
Rp1359
(dp1360
g11
I00
sg19
I01
sg1304
g0
(g371
g2
Ntp1361
Rp1362
(dp1363
g11
I00
sg19
I01
sg37
F0.0
sg20
I00
sbsg20
I00
sg1308
g0
(g371
g2
Ntp1364
Rp1365
(dp1366
g11
I00
sg19
I01
sg37
F12.2999
sg20
I00
sbsg1312
g0
(g371
g2
Ntp1367
Rp1368
(dp1369
g11
I00
sg19
I01
sg37
F-2.19142
sg20
I00
sbsg1316
g0
(g371
g2
Ntp1370
Rp1371
(dp1372
g11
I00
sg19
I01
sg37
F0.0
sg20
I00
sbsg1320
g0
(g371
g2
Ntp1373
Rp1374
(dp1375
g11
I00
sg19
I01
sg37
F6.0
sg20
I00
sbsg1324
g0
(g371
g2
Ntp1376
Rp1377
(dp1378
g11
I00
sg19
I01
sg37
F0.0
sg20
I00
sbsg38
(lp1379
g1304
ag1308
ag1312
ag1316
ag1320
ag1324
ag1329
asg1329
g0
(g371
g2
Ntp1380
Rp1381
(dp1382
g11
I00
sg19
I01
sg37
F0.0
sg20
I00
sbsbag0
(g28
g2
Ntp1383
Rp1384
(dp1385
g11
I00
sg19
I01
sg1304
g0
(g371
g2
Ntp1386
Rp1387
(dp1388
g11
I00
sg19
I01
sg37
F0.0
sg20
I00
sbsg20
I00
sg1308
g0
(g371
g2
Ntp1389
Rp1390
(dp1391
g11
I00
sg19
I01
sg37
F12.2999
sg20
I00
sbsg1312
g0
(g371
g2
Ntp1392
Rp1393
(dp1394
g11
I00
sg19
I01
sg37
F-2.19142
sg20
I00
sbsg1316
g0
(g371
g2
Ntp1395
Rp1396
(dp1397
g11
I00
sg19
I01
sg37
F0.0
sg20
I00
sbsg1320
g0
(g371
g2
Ntp1398
Rp1399
(dp1400
g11
I00
sg19
I01
sg37
F6.0
sg20
I00
sbsg1324
g0
(g371
g2
Ntp1401
Rp1402
(dp1403
g11
I00
sg19
I01
sg37
F0.0
sg20
I00
sbsg38
(lp1404
g1304
ag1308
ag1312
ag1316
ag1320
ag1324
ag1329
asg1329
g0
(g371
g2
Ntp1405
Rp1406
(dp1407
g11
I00
sg19
I01
sg37
F0.0
sg20
I00
sbsbatp1408
Rp1409
(dp1410
g11
I00
sg19
I01
sg20
I00
sg21
I1
sbsg1298
g0
(g1024
g14
(lp1411
g0
(g28
g2
Ntp1412
Rp1413
(dp1414
g11
I00
sg19
I01
sg20
I00
sS'slope'
p1415
g0
(g371
g2
Ntp1416
Rp1417
(dp1418
g11
I00
sg19
I01
sg37
F-3.178648
sg20
I00
sbsS'tmax'
p1419
g0
(g371
g2
Ntp1420
Rp1421
(dp1422
g11
I00
sg19
I01
sg37
F16.0
sg20
I00
sbsS'tzero'
p1423
g0
(g371
g2
Ntp1424
Rp1425
(dp1426
g11
I00
sg19
I01
sg37
F23.960177
sg20
I00
sbsg38
(lp1427
g1415
ag1419
ag1423
asbag0
(g28
g2
Ntp1428
Rp1429
(dp1430
g11
I00
sg19
I01
sg20
I00
sg1415
g0
(g371
g2
Ntp1431
Rp1432
(dp1433
g11
I00
sg19
I01
sg37
F-1.556668
sg20
I00
sbsg1419
g0
(g371
g2
Ntp1434
Rp1435
(dp1436
g11
I00
sg19
I01
sg37
F10.0
sg20
I00
sbsg1423
g0
(g371
g2
Ntp1437
Rp1438
(dp1439
g11
I00
sg19
I01
sg37
F13.307784
sg20
I00
sbsg38
(lp1440
g1415
ag1419
ag1423
asbag0
(g28
g2
Ntp1441
Rp1442
(dp1443
g11
I00
sg19
I01
sg20
I00
sg1415
g0
(g371
g2
Ntp1444
Rp1445
(dp1446
g11
I00
sg19
I01
sg37
F-1.075824
sg20
I00
sbsg1419
g0
(g371
g2
Ntp1447
Rp1448
(dp1449
g11
I00
sg19
I01
sg37
F6.25
sg20
I00
sbsg1423
g0
(g371
g2
Ntp1450
Rp1451
(dp1452
g11
I00
sg19
I01
sg37
F9.109694
sg20
I00
sbsg38
(lp1453
g1415
ag1419
ag1423
asbatp1454
Rp1455
(dp1456
g11
I00
sg19
I01
sg20
I00
sg21
I1
sbsg20
I00
sg40
I23
sg69
S'/cvmfs/cms.cern.ch/slc7_amd64_gcc700/cms/cmssw-patch/CMSSW_10_2_4_patch1/python/CalibCalorimetry/HcalPlugins/HcalTimeSlew_cff.py'
p1457
sg1299
g0
(g164
g2
Ntp1458
Rp1459
(dp1460
g11
I00
sg19
I01
sg37
S'HBHE'
p1461
sg20
I00
sbsg286
g1292
sg46
g1292
sbssg357
g325
sg530
g532
sS'source'
p1462
g325
sS'CastorDbProducer'
p1463
g0
(g359
g2
Ntp1464
Rp1465
(dp1466
g38
(lp1467
g1299
asg11
I00
sg1299
g0
(g164
g2
Ntp1468
Rp1469
(dp1470
g11
I00
sg19
I01
sg37
g283
sg20
I00
sbsg20
I00
sg40
I53
sg69
g70
sg286
g1463
sg46
g1463
sbsS'_Process__vpsets'
p1471
(dp1472
sS'_Process__name'
p1473
S'analysis'
p1474
sg1292
g1294
sS'es_prefer_hcalHardcode'
p1475
g0
(cFWCore.ParameterSet.Modules
ESPrefer
p1476
g2
Ntp1477
Rp1478
(dp1479
g38
(lp1480
sg11
I00
sg20
I00
sS'_targetLabel'
p1481
g578
sg40
I89
sg69
g70
sg286
g1475
sg46
g795
sbsS'_Process__subProcesses'
p1482
(lp1483
sS'_cloneToObjectDict'
p1484
(dp1485
I139830739721552
g1220
sI139830738367632
g258
sI139830738755472
g437
sI139830738269904
g0
(g359
g2
Ntp1486
Rp1487
(dp1488
g38
(lp1489
S'PreFilter'
p1490
ag365
aS'NSigmaInside'
p1491
asg11
I00
sg20
I00
sg69
g70
sg365
g0
(g164
g2
Ntp1492
Rp1493
(dp1494
g11
I00
sg19
I01
sg37
S'StandardMatcher'
p1495
sg20
I00
sbsg1490
g0
(g33
g2
Ntp1496
Rp1497
(dp1498
g11
I00
sg19
I01
sg37
I00
sg20
I00
sbsg40
I53
sg1491
g0
(g371
g2
Ntp1499
Rp1500
(dp1501
g11
I00
sg19
I01
sg37
F3.0
sg20
I00
sbsg286
S'SiStripRecHitMatcherESProducer'
p1502
sg46
g1502
sbsI139830738654992
g482
sI139830738270032
g0
(g359
g2
Ntp1503
Rp1504
(dp1505
g38
(lp1506
sg11
I00
sg20
I00
sg40
I53
sg69
g70
sg286
S'sistripconn'
p1507
sg46
S'SiStripConnectivity'
p1508
sbsI139830738270480
g269
sI139830738753872
g0
(g359
g2
Ntp1509
Rp1510
(dp1511
g38
(lp1512
S'printDebug'
p1513
ag1299
aS'APVGain'
p1514
aS'AutomaticNormalization'
p1515
asg11
I00
sg1299
g0
(g164
g2
Ntp1516
Rp1517
(dp1518
g11
I00
sg19
I01
sg37
g283
sg20
I00
sbsg20
I00
sg1515
g0
(g33
g2
Ntp1519
Rp1520
(dp1521
g11
I00
sg19
I01
sg37
I00
sg20
I00
sbsg40
I53
sg1513
g0
(g33
g2
Ntp1522
Rp1523
(dp1524
g11
I00
sg19
I00
sg37
I00
sg20
I00
sbsg69
g70
sg1514
g0
(g1024
g14
(lp1525
g0
(g28
g2
Ntp1526
Rp1527
(dp1528
g11
I00
sg19
I01
sg20
I00
sS'Label'
p1529
g0
(g164
g2
Ntp1530
Rp1531
(dp1532
g11
I00
sg19
I00
sg37
g283
sg20
I00
sbsS'Record'
p1533
g0
(g164
g2
Ntp1534
Rp1535
(dp1536
g11
I00
sg19
I01
sg37
S'SiStripApvGainRcd'
p1537
sg20
I00
sbsS'NormalizationFactor'
p1538
g0
(g371
g2
Ntp1539
Rp1540
(dp1541
g11
I00
sg19
I00
sg37
F1.0
sg20
I00
sbsg38
(lp1542
g1533
ag1538
ag1529
asbag0
(g28
g2
Ntp1543
Rp1544
(dp1545
g11
I00
sg19
I01
sg20
I00
sg1529
g0
(g164
g2
Ntp1546
Rp1547
(dp1548
g11
I00
sg19
I00
sg37
g283
sg20
I00
sbsg1533
g0
(g164
g2
Ntp1549
Rp1550
(dp1551
g11
I00
sg19
I01
sg37
S'SiStripApvGain2Rcd'
p1552
sg20
I00
sbsg1538
g0
(g371
g2
Ntp1553
Rp1554
(dp1555
g11
I00
sg19
I00
sg37
F1.0
sg20
I00
sbsg38
(lp1556
g1533
ag1538
ag1529
asbatp1557
Rp1558
(dp1559
g11
I00
sg19
I01
sg20
I00
sg21
I1
sbsg286
S'siStripGainESProducer'
p1560
sg46
S'SiStripGainESProducer'
p1561
sbsI139830738270672
g0
(g359
g2
Ntp1562
Rp1563
(dp1564
g38
(lp1565
S'ListOfRecordToMerge'
p1566
asg11
I00
sg20
I01
sg40
I53
sg69
g70
sg1566
g0
(g1024
g14
(lp1567
g0
(g28
g2
Ntp1568
Rp1569
(dp1570
g11
I00
sg19
I01
sg20
I00
sg450
g0
(g164
g2
Ntp1571
Rp1572
(dp1573
g11
I00
sg19
I01
sg37
S'SiPixelQualityFromDbRcd'
p1574
sg20
I00
sbsS'tag'
p1575
g0
(g164
g2
Ntp1576
Rp1577
(dp1578
g11
I00
sg19
I01
sg37
g283
sg20
I00
sbsg38
(lp1579
g450
ag1575
asbag0
(g28
g2
Ntp1580
Rp1581
(dp1582
g11
I00
sg19
I01
sg20
I00
sg450
g0
(g164
g2
Ntp1583
Rp1584
(dp1585
g11
I00
sg19
I01
sg37
S'SiPixelDetVOffRcd'
p1586
sg20
I00
sbsg1575
g0
(g164
g2
Ntp1587
Rp1588
(dp1589
g11
I00
sg19
I01
sg37
g283
sg20
I00
sbsg38
(lp1590
g450
ag1575
asbatp1591
Rp1592
(dp1593
g11
I00
sg19
I01
sg20
I00
sg21
I1
sbsg286
S'siPixelQualityESProducer'
p1594
sg46
S'SiPixelQualityESProducer'
p1595
sbsI139830738717200
g580
sI139830738271376
g532
sI139830738754768
g0
(g359
g2
Ntp1596
Rp1597
(dp1598
g38
(lp1599
g440
aS'LorentzAngleDeconvMode'
p1600
aS'LorentzAnglePeakMode'
p1601
asg11
I00
sg20
I00
sg40
I53
sg69
g70
sg440
g0
(g28
g2
Ntp1602
Rp1603
(dp1604
g11
I00
sg19
I01
sg20
I00
sg446
g0
(g164
g2
Ntp1605
Rp1606
(dp1607
g11
I00
sg19
I00
sg37
g283
sg20
I00
sbsg450
g0
(g164
g2
Ntp1608
Rp1609
(dp1610
g11
I00
sg19
I01
sg37
g454
sg20
I00
sbsg38
(lp1611
g450
ag446
asbsg286
S'siStripLorentzAngleDepESProducer'
p1612
sg1601
g0
(g28
g2
Ntp1613
Rp1614
(dp1615
g11
I00
sg19
I01
sg20
I00
sg446
g0
(g164
g2
Ntp1616
Rp1617
(dp1618
g11
I00
sg19
I00
sg37
g462
sg20
I00
sbsg450
g0
(g164
g2
Ntp1619
Rp1620
(dp1621
g11
I00
sg19
I01
sg37
S'SiStripLorentzAngleRcd'
p1622
sg20
I00
sbsg38
(lp1623
g450
ag446
asbsg46
S'SiStripLorentzAngleDepESProducer'
p1624
sg1600
g0
(g28
g2
Ntp1625
Rp1626
(dp1627
g11
I00
sg19
I01
sg20
I00
sg446
g0
(g164
g2
Ntp1628
Rp1629
(dp1630
g11
I00
sg19
I00
sg37
g474
sg20
I00
sbsg450
g0
(g164
g2
Ntp1631
Rp1632
(dp1633
g11
I00
sg19
I01
sg37
g1622
sg20
I00
sbsg38
(lp1634
g450
ag446
asbsbsI139830738655056
g550
sI139830738271824
g0
(g359
g2
Ntp1635
Rp1636
(dp1637
g38
(lp1638
g1299
aS'PrintDebugOutput'
p1639
aS'ThresholdForReducedGranularity'
p1640
aS'UseEmptyRunInfo'
p1641
aS'ReduceGranularity'
p1642
ag1566
asg11
I00
sg1299
g0
(g164
g2
Ntp1643
Rp1644
(dp1645
g11
I00
sg19
I01
sg37
g283
sg20
I00
sbsg20
I01
sg40
I53
sg69
g70
sg1640
g0
(g371
g2
Ntp1646
Rp1647
(dp1648
g11
I00
sg19
I01
sg37
F0.3
sg20
I00
sbsg286
S'siStripQualityESProducer'
p1649
sg1641
g0
(g33
g2
Ntp1650
Rp1651
(dp1652
g11
I00
sg19
I01
sg37
I00
sg20
I00
sbsg1642
g0
(g33
g2
Ntp1653
Rp1654
(dp1655
g11
I00
sg19
I01
sg37
I00
sg20
I00
sbsg1566
g0
(g1024
g14
(lp1656
g0
(g28
g2
Ntp1657
Rp1658
(dp1659
g11
I00
sg19
I01
sg20
I00
sg450
g0
(g164
g2
Ntp1660
Rp1661
(dp1662
g11
I00
sg19
I01
sg37
S'SiStripDetVOffRcd'
p1663
sg20
I00
sbsg1575
g0
(g164
g2
Ntp1664
Rp1665
(dp1666
g11
I00
sg19
I01
sg37
g283
sg20
I00
sbsg38
(lp1667
g450
ag1575
asbag0
(g28
g2
Ntp1668
Rp1669
(dp1670
g11
I00
sg19
I01
sg20
I00
sg450
g0
(g164
g2
Ntp1671
Rp1672
(dp1673
g11
I00
sg19
I01
sg37
S'SiStripDetCablingRcd'
p1674
sg20
I00
sbsg1575
g0
(g164
g2
Ntp1675
Rp1676
(dp1677
g11
I00
sg19
I01
sg37
g283
sg20
I00
sbsg38
(lp1678
g450
ag1575
asbag0
(g28
g2
Ntp1679
Rp1680
(dp1681
g11
I00
sg19
I01
sg20
I00
sg450
g0
(g164
g2
Ntp1682
Rp1683
(dp1684
g11
I00
sg19
I01
sg37
S'RunInfoRcd'
p1685
sg20
I00
sbsg1575
g0
(g164
g2
Ntp1686
Rp1687
(dp1688
g11
I00
sg19
I01
sg37
g283
sg20
I00
sbsg38
(lp1689
g450
ag1575
asbag0
(g28
g2
Ntp1690
Rp1691
(dp1692
g11
I00
sg19
I01
sg20
I00
sg450
g0
(g164
g2
Ntp1693
Rp1694
(dp1695
g11
I00
sg19
I01
sg37
S'SiStripBadChannelRcd'
p1696
sg20
I00
sbsg1575
g0
(g164
g2
Ntp1697
Rp1698
(dp1699
g11
I00
sg19
I01
sg37
g283
sg20
I00
sbsg38
(lp1700
g450
ag1575
asbag0
(g28
g2
Ntp1701
Rp1702
(dp1703
g11
I00
sg19
I01
sg20
I00
sg450
g0
(g164
g2
Ntp1704
Rp1705
(dp1706
g11
I00
sg19
I01
sg37
S'SiStripBadFiberRcd'
p1707
sg20
I00
sbsg1575
g0
(g164
g2
Ntp1708
Rp1709
(dp1710
g11
I00
sg19
I01
sg37
g283
sg20
I00
sbsg38
(lp1711
g450
ag1575
asbag0
(g28
g2
Ntp1712
Rp1713
(dp1714
g11
I00
sg19
I01
sg20
I00
sg450
g0
(g164
g2
Ntp1715
Rp1716
(dp1717
g11
I00
sg19
I01
sg37
S'SiStripBadModuleRcd'
p1718
sg20
I00
sbsg1575
g0
(g164
g2
Ntp1719
Rp1720
(dp1721
g11
I00
sg19
I01
sg37
g283
sg20
I00
sbsg38
(lp1722
g450
ag1575
asbag0
(g28
g2
Ntp1723
Rp1724
(dp1725
g11
I00
sg19
I01
sg20
I00
sg450
g0
(g164
g2
Ntp1726
Rp1727
(dp1728
g11
I00
sg19
I01
sg37
S'SiStripBadStripRcd'
p1729
sg20
I00
sbsg1575
g0
(g164
g2
Ntp1730
Rp1731
(dp1732
g11
I00
sg19
I01
sg37
g283
sg20
I00
sbsg38
(lp1733
g450
ag1575
asbatp1734
Rp1735
(dp1736
g11
I00
sg19
I01
sg20
I00
sg21
I1
sbsg46
S'SiStripQualityESProducer'
p1737
sg1639
g0
(g33
g2
Ntp1738
Rp1739
(dp1740
g11
I00
sg19
I01
sg37
I00
sg20
I00
sbsbsI139830738718416
g1478
sI139830738293840
g541
sI139830739691984
g525
sI139830738268432
g508
sI139830738268560
g361
sI139830738367568
g568
sI139830738653904
g1294
sI139830738752272
g1465
ssg1560
g1510
sg1507
g1504
sS'_Process__esprefers'
p1741
(dp1742
g1475
g1478
ssg1502
g1487
sg287
g269
sS'_Process__schedule'
p1743
Nsg1649
g1636
sg565
g568
sS'_Process__outputmodules'
p1744
(dp1745
sS'_Process__analyzers'
p1746
(dp1747
g287
g269
ssS'_Process__InExtendCall'
p1748
I00
sg1612
g1597
sS'_Process__modifiers'
p1749
(tsS'_Process__producers'
p1750
(dp1751
sg1594
g1563
sg1218
g1220
sS'_Process__filters'
p1752
(dp1753
sg578
g580
sS'_Process__looper'
p1754
NsS'_Process__endpaths'
p1755
g0
(cFWCore.ParameterSet.DictTypes
SortedKeysDict
p1756
c__builtin__
dict
p1757
(dp1758
tp1759
Rp1760
(dp1761
S'list'
p1762
(lp1763
sbsS'_Process__esproducers'
p1764
(dp1765
g1612
g1597
sg506
g508
sg1502
g1487
sg1594
g1563
sg548
g550
sg1560
g1510
sg1507
g1504
sg358
g361
sg1463
g1465
sg523
g525
sg435
g437
sg1649
g1636
ssS'_Process__tasks'
p1766
(dp1767
sS'_Process__paths'
p1768
g0
(g1756
g1757
(dp1769
g255
g258
stp1770
Rp1771
(dp1772
g1762
(lp1773
g255
asbsS'_Process__partialschedules'
p1774
(dp1775
sg539
g541
sS'_Process__isStrict'
p1776
I00
sb.