(dp1
S'OriginalConfig'
p2
ccopy_reg
_reconstructor
p3
(cWMCore.Configuration
Configuration
p4
c__builtin__
object
p5
NtRp6
(dp7
S'Site'
p8
g3
(cWMCore.Configuration
ConfigSection
p9
g5
NtRp10
(dp11
S'_internal_skipChecks'
p12
I00
sS'_internal_documentation'
p13
S''
sS'_internal_settings'
p14
c__builtin__
set
p15
((lp16
S'storageSite'
p17
atRp18
sS'_internal_name'
p19
g8
sS'_internal_docstrings'
p20
(dp21
sS'_internal_children'
p22
g15
((ltRp23
sg17
S'T3_US_FNALLPC'
p24
sS'_internal_parent_ref'
p25
NsbsS'_internal_sections'
p26
(lp27
S'General'
p28
aS'JobType'
p29
aS'Data'
p30
ag8
aS'User'
p31
aS'Debug'
p32
asg28
g3
(g9
g5
NtRp33
(dp34
g12
I00
sg13
S''
sg14
g15
((lp35
S'transferOutputs'
p36
aS'workArea'
p37
aS'requestName'
p38
atRp39
sg19
g28
sg20
(dp40
sg36
I01
sg22
g15
((ltRp41
sg38
S'semilept_ttbar_QCD_background_data_005'
p42
sg25
Nsg37
S'crab_projects'
p43
sbsS'_internal_webapps'
p44
(lp45
sg31
g3
(g9
g5
NtRp46
(dp47
g12
I00
sg13
S''
sg14
g15
((ltRp48
sg19
g31
sg20
(dp49
sg22
g15
((ltRp50
sg25
NsbsS'_internal_components'
p51
(lp52
sg32
g3
(g9
g5
NtRp53
(dp54
g12
I00
sg13
S''
sg14
g15
((ltRp55
sg19
g32
sg20
(dp56
sg22
g15
((ltRp57
sg25
Nsbsg30
g3
(g9
g5
NtRp58
(dp59
S'inputDataset'
p60
S'/SingleMuon/Run2018D-PromptReco-v2/MINIAOD'
p61
sS'outputDatasetTag'
p62
S'semilept_ttbar_QCD_background'
p63
sg12
I00
sS'splitting'
p64
S'Automatic'
p65
sg13
S''
sg14
g15
((lp66
g60
ag62
aS'publication'
p67
ag64
aS'lumiMask'
p68
aS'inputDBS'
p69
atRp70
sg19
g30
sg69
S'global'
p71
sg20
(dp72
sg22
g15
((ltRp73
sg25
Nsg68
S'Cert_314472-325175_13TeV_17SeptEarlyReReco2018ABC_PromptEraD_Collisions18_JSON.txt'
p74
sg67
I00
sbsg29
g3
(g9
g5
NtRp75
(dp76
g12
I00
sg13
S''
sg14
g15
((lp77
S'psetName'
p78
aS'pluginName'
p79
aS'allowUndistributedCMSSW'
p80
atRp81
sg19
g29
sg20
(dp82
sg79
S'Analysis'
p83
sg22
g15
((ltRp84
sg80
I01
sg78
S'ttbarAnalyzer_cfg.py'
p85
sg25
NsbsbsS'voGroup'
p86
S''
sS'Server'
p87
S'cmsweb.cern.ch'
p88
sS'instance'
p89
S'prod'
p90
sS'RequestName'
p91
V201002_071415:ecannaer_crab_semilept_ttbar_QCD_background_data_005
p92
sS'voRole'
p93
S'NULL'
p94
sS'Port'
p95
S''
s.