(dp1
S'OriginalConfig'
p2
ccopy_reg
_reconstructor
p3
(cWMCore.Configuration
Configuration
p4
c__builtin__
object
p5
NtRp6
(dp7
S'Site'
p8
g3
(cWMCore.Configuration
ConfigSection
p9
g5
NtRp10
(dp11
S'_internal_skipChecks'
p12
I00
sS'_internal_documentation'
p13
S''
sS'_internal_settings'
p14
c__builtin__
set
p15
((lp16
S'storageSite'
p17
atRp18
sS'_internal_name'
p19
g8
sS'_internal_docstrings'
p20
(dp21
sS'_internal_children'
p22
g15
((ltRp23
sg17
S'T3_US_FNALLPC'
p24
sS'_internal_parent_ref'
p25
NsbsS'_internal_sections'
p26
(lp27
S'General'
p28
aS'JobType'
p29
aS'Data'
p30
ag8
aS'User'
p31
aS'Debug'
p32
asg28
g3
(g9
g5
NtRp33
(dp34
g12
I00
sg13
S''
sg14
g15
((lp35
S'transferOutputs'
p36
aS'workArea'
p37
aS'requestName'
p38
atRp39
sg19
g28
sg20
(dp40
sg36
I01
sg22
g15
((ltRp41
sg38
S'MC_prod_chi2TeV_Suu8TeV_ALLDECAY_GENSIM_0001'
p42
sg25
Nsg37
S'crab_projects'
p43
sbsS'_internal_webapps'
p44
(lp45
sg31
g3
(g9
g5
NtRp46
(dp47
g12
I00
sg13
S''
sg14
g15
((ltRp48
sg19
g31
sg20
(dp49
sg22
g15
((ltRp50
sg25
NsbsS'_internal_components'
p51
(lp52
sg32
g3
(g9
g5
NtRp53
(dp54
g12
I00
sg13
S''
sg14
g15
((ltRp55
sg19
g32
sg20
(dp56
sg22
g15
((ltRp57
sg25
Nsbsg30
g3
(g9
g5
NtRp58
(dp59
S'outputDatasetTag'
p60
S'SuuToChiChi_ALLDECAY_MSuu-8TeV_Mchi-2TeV_TuneCP5_13TeV-pythia8'
p61
sg12
I00
sS'unitsPerJob'
p62
I50
sg13
S''
sg14
g15
((lp63
g60
aS'publication'
p64
ag62
aS'splitting'
p65
aS'outputPrimaryDataset'
p66
aS'totalUnits'
p67
atRp68
sg19
g30
sg65
S'EventBased'
p69
sg20
(dp70
sg22
g15
((ltRp71
sg64
I01
sg66
S'SuuToChiChi'
p72
sg25
Nsg67
I10000
sbsg29
g3
(g9
g5
NtRp73
(dp74
g12
I00
sg13
S''
sg14
g15
((lp75
S'psetName'
p76
aS'pluginName'
p77
aS'inputFiles'
p78
aS'allowUndistributedCMSSW'
p79
atRp80
sg19
g29
sg20
(dp81
sg77
S'PrivateMC'
p82
sg22
g15
((ltRp83
sg79
I01
sg76
S'B2G-RunIISummer20UL18GEN-00001_1_cfg.py'
p84
sg25
Nsg78
(lp85
S'unweighted_events.lhe'
p86
asbsbsS'voGroup'
p87
S''
sS'Server'
p88
S'cmsweb.cern.ch'
p89
sS'instance'
p90
S'prod'
p91
sS'RequestName'
p92
V210903_153145:ecannaer_crab_MC_prod_chi2TeV_Suu8TeV_ALLDECAY_GENSIM_0001
p93
sS'voRole'
p94
S'NULL'
p95
sS'Port'
p96
S''
s.