ccopy_reg
_reconstructor
p0
(cFWCore.ParameterSet.Config
Process
p1
c__builtin__
object
p2
Ntp3
Rp4
(dp5
S'MessageLogger'
p6
g0
(cFWCore.ParameterSet.Modules
Service
p7
g2
Ntp8
Rp9
(dp10
S'_isFrozen'
p11
I00
sS'suppressInfo'
p12
g0
(cFWCore.ParameterSet.Types
vstring
p13
c__builtin__
list
p14
(lp15
tp16
Rp17
(dp18
g11
I00
sS'_ParameterTypeBase__isTracked'
p19
I00
sS'_isModified'
p20
I00
sS'_nPerLine'
p21
I1
sbsS'suppressDebug'
p22
g0
(g13
g14
(lp23
tp24
Rp25
(dp26
g11
I00
sg19
I00
sg20
I00
sg21
I1
sbsS'cout'
p27
g0
(cFWCore.ParameterSet.Types
PSet
p28
g2
Ntp29
Rp30
(dp31
g11
I00
sg19
I00
sS'placeholder'
p32
g0
(cFWCore.ParameterSet.Types
bool
p33
g2
Ntp34
Rp35
(dp36
g11
I00
sg19
I00
sS'_value'
p37
I01
sg20
I00
sbsg20
I00
sS'_Parameterizable__parameterNames'
p38
(lp39
g32
asbsS'_lineNumber'
p40
I14
sS'debugModules'
p41
g0
(g13
g14
(lp42
tp43
Rp44
(dp45
g11
I00
sg19
I00
sg20
I00
sg21
I1
sbsS'_TypedParameterizable__type'
p46
g6
sS'fwkJobReports'
p47
g0
(g13
g14
(lp48
S'FrameworkJobReport'
p49
atp50
Rp51
(dp52
g11
I00
sg19
I00
sg20
I00
sg21
I1
sbsg38
(lp53
g12
aS'debugs'
p54
ag22
ag27
aS'cerr_stats'
p55
aS'warnings'
p56
aS'default'
p57
aS'statistics'
p58
aS'cerr'
p59
ag49
aS'suppressWarning'
p60
aS'errors'
p61
aS'destinations'
p62
ag41
aS'infos'
p63
aS'categories'
p64
ag47
asg58
g0
(g13
g14
(lp65
g55
atp66
Rp67
(dp68
g11
I00
sg19
I00
sg20
I00
sg21
I1
sbsS'_filename'
p69
S'/cvmfs/cms.cern.ch/slc7_amd64_gcc820/cms/cmssw/CMSSW_10_6_0/python/FWCore/ParameterSet/Modules.py'
p70
sg62
g0
(g13
g14
(lp71
g56
ag61
ag63
ag54
ag27
ag59
atp72
Rp73
(dp74
g11
I00
sg19
I00
sg20
I00
sg21
I1
sbsg54
g0
(g28
g2
Ntp75
Rp76
(dp77
g11
I00
sg19
I00
sg32
g0
(g33
g2
Ntp78
Rp79
(dp80
g11
I00
sg19
I00
sg37
I01
sg20
I00
sbsg20
I00
sg38
(lp81
g32
asbsg56
g0
(g28
g2
Ntp82
Rp83
(dp84
g11
I00
sg19
I00
sg32
g0
(g33
g2
Ntp85
Rp86
(dp87
g11
I00
sg19
I00
sg37
I01
sg20
I00
sbsg20
I00
sg38
(lp88
g32
asbsg61
g0
(g28
g2
Ntp89
Rp90
(dp91
g11
I00
sg19
I00
sg32
g0
(g33
g2
Ntp92
Rp93
(dp94
g11
I00
sg19
I00
sg37
I01
sg20
I00
sbsg20
I00
sg38
(lp95
g32
asbsg49
g0
(g28
g2
Ntp96
Rp97
(dp98
g11
I00
sg19
I00
sg20
I00
sg57
g0
(g28
g2
Ntp99
Rp100
(dp101
g11
I00
sg19
I00
sS'limit'
p102
g0
(cFWCore.ParameterSet.Types
int32
p103
g2
Ntp104
Rp105
(dp106
g11
I00
sg19
I00
sg37
I0
sg20
I00
sbsg20
I00
sg38
(lp107
g102
asbsS'FwkJob'
p108
g0
(g28
g2
Ntp109
Rp110
(dp111
g11
I00
sg19
I00
sg20
I00
sg102
g0
(g103
g2
Ntp112
Rp113
(dp114
g11
I00
sg19
I00
sg37
I10000000
sg20
I00
sbsg38
(lp115
S'optionalPSet'
p116
ag102
asg116
g0
(g33
g2
Ntp117
Rp118
(dp119
g11
I00
sg19
I00
sg37
I01
sg20
I00
sbsbsg38
(lp120
g57
ag116
ag108
asg116
g0
(g33
g2
Ntp121
Rp122
(dp123
g11
I00
sg19
I00
sg37
I01
sg20
I00
sbsbsg60
g0
(g13
g14
(lp124
tp125
Rp126
(dp127
g11
I00
sg19
I00
sg20
I00
sg21
I1
sbsg63
g0
(g28
g2
Ntp128
Rp129
(dp130
g11
I00
sg19
I00
sg20
I00
sS'Root_NoDictionary'
p131
g0
(g28
g2
Ntp132
Rp133
(dp134
g11
I00
sg19
I00
sg20
I00
sg102
g0
(g103
g2
Ntp135
Rp136
(dp137
g11
I00
sg19
I00
sg37
I0
sg20
I00
sbsg38
(lp138
g116
ag102
asg116
g0
(g33
g2
Ntp139
Rp140
(dp141
g11
I00
sg19
I00
sg37
I01
sg20
I00
sbsbsg38
(lp142
g116
ag131
ag32
asg116
g0
(g33
g2
Ntp143
Rp144
(dp145
g11
I00
sg19
I00
sg37
I01
sg20
I00
sbsg32
g0
(g33
g2
Ntp146
Rp147
(dp148
g11
I00
sg19
I00
sg37
I01
sg20
I00
sbsbsg64
g0
(g13
g14
(lp149
g108
aS'FwkReport'
p150
aS'FwkSummary'
p151
ag131
atp152
Rp153
(dp154
g11
I00
sg19
I00
sg20
I00
sg21
I1
sbsg20
I00
sg55
g0
(g28
g2
Ntp155
Rp156
(dp157
g11
I00
sg19
I00
sg20
I00
sg116
g0
(g33
g2
Ntp158
Rp159
(dp160
g11
I00
sg19
I00
sg37
I01
sg20
I00
sbsg38
(lp161
S'threshold'
p162
aS'output'
p163
ag116
asg162
g0
(cFWCore.ParameterSet.Types
string
p164
g2
Ntp165
Rp166
(dp167
g11
I00
sg19
I00
sg37
S'WARNING'
p168
sg20
I00
sbsg163
g0
(g164
g2
Ntp169
Rp170
(dp171
g11
I00
sg19
I00
sg37
g59
sg20
I00
sbsbsg57
g0
(g28
g2
Ntp172
Rp173
(dp174
g11
I00
sg19
I00
sg20
I00
sg38
(lp175
sbsS'_inProcess'
p176
I01
sg59
g0
(g28
g2
Ntp177
Rp178
(dp179
g11
I00
sg19
I00
sS'noTimeStamps'
p180
g0
(g33
g2
Ntp181
Rp182
(dp183
g11
I00
sg19
I00
sg37
I00
sg20
I00
sbsg150
g0
(g28
g2
Ntp184
Rp185
(dp186
g11
I00
sg19
I00
sg20
I01
sS'reportEvery'
p187
g0
(g103
g2
Ntp188
Rp189
(dp190
g11
I00
sg19
I00
sg37
I1000
sg20
I01
sbsg102
g0
(g103
g2
Ntp191
Rp192
(dp193
g11
I00
sg19
I00
sg37
I10000000
sg20
I00
sbsg38
(lp194
g187
ag116
ag102
asg116
g0
(g33
g2
Ntp195
Rp196
(dp197
g11
I00
sg19
I00
sg37
I01
sg20
I00
sbsbsg20
I00
sg57
g0
(g28
g2
Ntp198
Rp199
(dp200
g11
I00
sg19
I00
sg102
g0
(g103
g2
Ntp201
Rp202
(dp203
g11
I00
sg19
I00
sg37
I10000000
sg20
I00
sbsg20
I00
sg38
(lp204
g102
asbsg131
g0
(g28
g2
Ntp205
Rp206
(dp207
g11
I00
sg19
I00
sg20
I00
sg102
g0
(g103
g2
Ntp208
Rp209
(dp210
g11
I00
sg19
I00
sg37
I0
sg20
I00
sbsg38
(lp211
g116
ag102
asg116
g0
(g33
g2
Ntp212
Rp213
(dp214
g11
I00
sg19
I00
sg37
I01
sg20
I00
sbsbsS'INFO'
p215
g0
(g28
g2
Ntp216
Rp217
(dp218
g11
I00
sg19
I00
sg102
g0
(g103
g2
Ntp219
Rp220
(dp221
g11
I00
sg19
I00
sg37
I0
sg20
I00
sbsg20
I00
sg38
(lp222
g102
asbsg116
g0
(g33
g2
Ntp223
Rp224
(dp225
g11
I00
sg19
I00
sg37
I01
sg20
I00
sbsg108
g0
(g28
g2
Ntp226
Rp227
(dp228
g11
I00
sg19
I00
sg20
I00
sg102
g0
(g103
g2
Ntp229
Rp230
(dp231
g11
I00
sg19
I00
sg37
I0
sg20
I00
sbsg38
(lp232
g116
ag102
asg116
g0
(g33
g2
Ntp233
Rp234
(dp235
g11
I00
sg19
I00
sg37
I01
sg20
I00
sbsbsg151
g0
(g28
g2
Ntp236
Rp237
(dp238
g11
I00
sg19
I00
sg20
I00
sg187
g0
(g103
g2
Ntp239
Rp240
(dp241
g11
I00
sg19
I00
sg37
I1
sg20
I00
sbsg102
g0
(g103
g2
Ntp242
Rp243
(dp244
g11
I00
sg19
I00
sg37
I10000000
sg20
I00
sbsg38
(lp245
g187
ag116
ag102
asg116
g0
(g33
g2
Ntp246
Rp247
(dp248
g11
I00
sg19
I00
sg37
I01
sg20
I00
sbsbsg38
(lp249
g215
ag180
ag150
ag57
ag131
ag162
ag108
ag151
ag116
asg162
g0
(g164
g2
Ntp250
Rp251
(dp252
g11
I00
sg19
I00
sg37
g215
sg20
I00
sbsbsbsS'_Process__sequences'
p253
(dp254
sS'p'
p255
g0
(cFWCore.ParameterSet.SequenceTypes
Path
p256
g2
Ntp257
Rp258
(dp259
g11
I00
sS'_seq'
p260
g0
(cFWCore.ParameterSet.SequenceTypes
_SequenceCollection
p261
g2
Ntp262
Rp263
(dp264
S'_collection'
p265
(lp266
g0
(cFWCore.ParameterSet.Modules
EDAnalyzer
p267
g2
Ntp268
Rp269
(dp270
g38
(lp271
S'genPartCollection'
p272
aS'fatJetCollection'
p273
aS'bits'
p274
asg11
I00
sg20
I00
sg40
I12
sg69
S'/uscms_data/d3/cannaert/src/thrust/CMSSW_10_6_0/src/diquarkAnalyzer_cfg.py'
p275
sg272
g0
(cFWCore.ParameterSet.Types
InputTag
p276
g2
Ntp277
Rp278
(dp279
g11
I00
sg19
I01
sg20
I00
sS'_InputTag__moduleLabel'
p280
S'prunedGenParticles'
p281
sS'_InputTag__processName'
p282
S''
p283
sS'_InputTag__productInstance'
p284
g283
sbsS'_Labelable__label'
p285
S'diquarkAnalyzer'
p286
sg273
g0
(g276
g2
Ntp287
Rp288
(dp289
g11
I00
sg19
I01
sg20
I00
sg280
S'slimmedJetsAK8'
p290
sg282
g283
sg284
g283
sbsg274
g0
(g276
g2
Ntp291
Rp292
(dp293
g11
I00
sg19
I01
sg20
I00
sg280
S'TriggerResults'
p294
sg282
S'HLT'
p295
sg284
g283
sbsg46
g286
sbasbsg285
g255
sg20
I00
sS'_tasks'
p296
g0
(cFWCore.ParameterSet.OrderedSet
OrderedSet
p297
g2
Ntp298
Rp299
(dp300
S'map'
p301
(dp302
sS'end'
p303
(lp304
Nag304
ag304
asbsbsS'_Process__services'
p305
(dp306
g6
g9
sS'TFileService'
p307
g0
(g7
g2
Ntp308
Rp309
(dp310
g38
(lp311
S'fileName'
p312
asg11
I00
sg176
I01
sg20
I00
sg40
I14
sg69
g70
sg312
g0
(g164
g2
Ntp313
Rp314
(dp315
g11
I00
sg19
I01
sg37
S'diquark_QCD_BR_MC.root'
p316
sg20
I00
sbsg46
g307
sbssS'_Process__source'
p317
g0
(cFWCore.ParameterSet.Modules
Source
p318
g2
Ntp319
Rp320
(dp321
g38
(lp322
S'fileNames'
p323
asg11
I00
sg20
I00
sg40
I196
sg69
g70
sg323
g0
(g13
g14
(lp324
S'root://cmsxrootd.fnal.gov//store/data/Run2018C/JetHT/MINIAOD/17Sep2018-v1/00000/F0ABAD2E-E61E-D84B-B977-5B996E44BB3C.root'
p325
aS'root://cmsxrootd.fnal.gov//store/data/Run2018C/JetHT/MINIAOD/17Sep2018-v1/00000/EFFA037F-2EAC-B242-ADE5-5399DDCEFA33.root'
p326
aS'root://cmsxrootd.fnal.gov//store/data/Run2018C/JetHT/MINIAOD/17Sep2018-v1/80000/DDC38B74-3A1C-BF4B-9B01-11A3A6A4078A.root'
p327
aS'root://cmsxrootd.fnal.gov//store/data/Run2018C/JetHT/MINIAOD/17Sep2018-v1/80000/D3CB5A51-1FAA-BC48-BAB6-4DED7307DB96.root'
p328
aS'root://cmsxrootd.fnal.gov//store/data/Run2018C/JetHT/MINIAOD/17Sep2018-v1/80000/AC59982E-1178-1F46-A9DE-FAC659B7F66D.root'
p329
aS'root://cmsxrootd.fnal.gov//store/data/Run2018C/JetHT/MINIAOD/17Sep2018-v1/80000/95480FB7-7FC3-2A48-9357-4126FBE2AFC9.root'
p330
aS'root://cmsxrootd.fnal.gov//store/data/Run2018C/JetHT/MINIAOD/17Sep2018-v1/80000/852DF889-62CC-9E43-A4CD-0A3C14C0B2E4.root'
p331
aS'root://cmsxrootd.fnal.gov//store/data/Run2018C/JetHT/MINIAOD/17Sep2018-v1/80000/85088B5A-2697-A242-B204-E1B409D9B2A5.roots'
p332
atp333
Rp334
(dp335
g11
I00
sg19
I00
sg20
I00
sg21
I1
sbsg46
S'PoolSource'
p336
sbsS'StripCPEfromTrackAngleESProducer'
p337
g0
(cFWCore.ParameterSet.Modules
ESProducer
p338
g2
Ntp339
Rp340
(dp341
g38
(lp342
S'ComponentType'
p343
aS'ComponentName'
p344
aS'parameters'
p345
asg11
I00
sg20
I01
sg345
g0
(g28
g2
Ntp346
Rp347
(dp348
g11
I00
sg19
I01
sS'maxChgOneMIP'
p349
g0
(cFWCore.ParameterSet.Types
double
p350
g2
Ntp351
Rp352
(dp353
g11
I00
sg19
I01
sg37
F6000.0
sg20
I00
sbsS'mLC_P2'
p354
g0
(g350
g2
Ntp355
Rp356
(dp357
g11
I00
sg19
I01
sg37
F0.3
sg20
I00
sbsS'mLC_P1'
p358
g0
(g350
g2
Ntp359
Rp360
(dp361
g11
I00
sg19
I01
sg37
F0.618
sg20
I00
sbsS'mLC_P0'
p362
g0
(g350
g2
Ntp363
Rp364
(dp365
g11
I00
sg19
I01
sg37
F-0.326
sg20
I00
sbsS'useLegacyError'
p366
g0
(g33
g2
Ntp367
Rp368
(dp369
g11
I00
sg19
I01
sg37
I00
sg20
I00
sbsS'mTIB_P1'
p370
g0
(g350
g2
Ntp371
Rp372
(dp373
g11
I00
sg19
I01
sg37
F0.202
sg20
I00
sbsS'mTEC_P1'
p374
g0
(g350
g2
Ntp375
Rp376
(dp377
g11
I00
sg19
I01
sg37
F0.471
sg20
I00
sbsS'mTEC_P0'
p378
g0
(g350
g2
Ntp379
Rp380
(dp381
g11
I00
sg19
I01
sg37
F-1.885
sg20
I00
sbsS'mTOB_P0'
p382
g0
(g350
g2
Ntp383
Rp384
(dp385
g11
I00
sg19
I01
sg37
F-1.026
sg20
I00
sbsS'mTOB_P1'
p386
g0
(g350
g2
Ntp387
Rp388
(dp389
g11
I00
sg19
I01
sg37
F0.253
sg20
I00
sbsS'mTIB_P0'
p390
g0
(g350
g2
Ntp391
Rp392
(dp393
g11
I00
sg19
I01
sg37
F-0.742
sg20
I00
sbsg38
(lp394
g349
ag354
ag358
ag362
ag366
ag374
ag378
ag382
ag386
ag390
ag370
aS'mTID_P0'
p395
aS'mTID_P1'
p396
asg395
g0
(g350
g2
Ntp397
Rp398
(dp399
g11
I00
sg19
I01
sg37
F-1.427
sg20
I00
sbsg396
g0
(g350
g2
Ntp400
Rp401
(dp402
g11
I00
sg19
I01
sg37
F0.433
sg20
I00
sbsg20
I00
sbsg40
I4
sg344
g0
(g164
g2
Ntp403
Rp404
(dp405
g11
I00
sg19
I01
sg37
S'StripCPEfromTrackAngle'
p406
sg20
I00
sbsg343
g0
(g164
g2
Ntp407
Rp408
(dp409
g11
I00
sg19
I01
sg37
g406
sg20
I00
sbsg69
S'/cvmfs/cms.cern.ch/slc7_amd64_gcc820/cms/cmssw/CMSSW_10_6_0/python/RecoLocalTracker/SiStripRecHitConverter/StripCPEfromTrackAngle_cfi.py'
p410
sg285
g337
sg46
S'StripCPEESProducer'
p411
sbsS'_Process__aliases'
p412
(dp413
sS'siStripBackPlaneCorrectionDepESProducer'
p414
g0
(g338
g2
Ntp415
Rp416
(dp417
g38
(lp418
S'LatencyRecord'
p419
aS'BackPlaneCorrectionDeconvMode'
p420
aS'BackPlaneCorrectionPeakMode'
p421
asg11
I00
sg20
I00
sg40
I56
sg69
g70
sg419
g0
(g28
g2
Ntp422
Rp423
(dp424
g11
I00
sg19
I01
sg20
I00
sS'label'
p425
g0
(g164
g2
Ntp426
Rp427
(dp428
g11
I00
sg19
I00
sg37
g283
sg20
I00
sbsS'record'
p429
g0
(g164
g2
Ntp430
Rp431
(dp432
g11
I00
sg19
I01
sg37
S'SiStripLatencyRcd'
p433
sg20
I00
sbsg38
(lp434
g429
ag425
asbsg421
g0
(g28
g2
Ntp435
Rp436
(dp437
g11
I00
sg19
I01
sg20
I00
sg425
g0
(g164
g2
Ntp438
Rp439
(dp440
g11
I00
sg19
I00
sg37
S'peak'
p441
sg20
I00
sbsg429
g0
(g164
g2
Ntp442
Rp443
(dp444
g11
I00
sg19
I01
sg37
S'SiStripBackPlaneCorrectionRcd'
p445
sg20
I00
sbsg38
(lp446
g429
ag425
asbsg285
g414
sg420
g0
(g28
g2
Ntp447
Rp448
(dp449
g11
I00
sg19
I01
sg20
I00
sg425
g0
(g164
g2
Ntp450
Rp451
(dp452
g11
I00
sg19
I00
sg37
S'deconvolution'
p453
sg20
I00
sbsg429
g0
(g164
g2
Ntp454
Rp455
(dp456
g11
I00
sg19
I01
sg37
g445
sg20
I00
sbsg38
(lp457
g429
ag425
asbsg46
S'SiStripBackPlaneCorrectionDepESProducer'
p458
sbsS'HFRecalParameterBlock'
p459
g0
(g28
g2
Ntp460
Rp461
(dp462
g11
I00
sg19
I01
sg20
I00
sS'HFdepthTwoParameterA'
p463
g0
(cFWCore.ParameterSet.Types
vdouble
p464
g14
(lp465
F0.002861
aF0.004168
aF0.0064
aF0.008388
aF0.011601
aF0.014425
aF0.018633
aF0.023232
aF0.028274
aF0.035447
aF0.051579
aF0.086593
atp466
Rp467
(dp468
g11
I00
sg19
I01
sg20
I00
sbsS'HFdepthOneParameterA'
p469
g0
(g464
g14
(lp470
F0.004123
aF0.00602
aF0.008201
aF0.010489
aF0.013379
aF0.016997
aF0.021464
aF0.027371
aF0.034195
aF0.044807
aF0.058939
aF0.125497
atp471
Rp472
(dp473
g11
I00
sg19
I01
sg20
I00
sbsS'HFdepthOneParameterB'
p474
g0
(g464
g14
(lp475
F-4e-06
aF-2e-06
aF0.0
aF4e-06
aF1.5e-05
aF2.6e-05
aF6.3e-05
aF8.4e-05
aF0.00016
aF0.000107
aF0.000425
aF0.000209
atp476
Rp477
(dp478
g11
I00
sg19
I01
sg20
I00
sbsS'HFdepthTwoParameterB'
p479
g0
(g464
g14
(lp480
F-2e-06
aF-0.0
aF-7e-06
aF-6e-06
aF-2e-06
aF1e-06
aF1.9e-05
aF3.1e-05
aF6.7e-05
aF1.2e-05
aF0.000157
aF-3e-06
atp481
Rp482
(dp483
g11
I00
sg19
I01
sg20
I00
sbsg38
(lp484
g469
ag474
ag479
ag463
asg285
g459
sbsS'stripCPEESProducer'
p485
g0
(g338
g2
Ntp486
Rp487
(dp488
g38
(lp489
g343
ag344
ag345
asg11
I00
sg20
I00
sg345
g0
(g28
g2
Ntp490
Rp491
(dp492
g11
I00
sg19
I01
sg20
I00
sg38
(lp493
sbsg40
I56
sg344
g0
(g164
g2
Ntp494
Rp495
(dp496
g11
I00
sg19
I01
sg37
S'stripCPE'
p497
sg20
I00
sbsg343
g0
(g164
g2
Ntp498
Rp499
(dp500
g11
I00
sg19
I01
sg37
S'SimpleStripCPE'
p501
sg20
I00
sbsg69
g70
sg285
g485
sg46
g411
sbsS'EcalLaserCorrectionService'
p502
g0
(g338
g2
Ntp503
Rp504
(dp505
g38
(lp506
sg11
I00
sg20
I00
sg40
I56
sg69
g70
sg285
g502
sg46
g502
sbsS'_Process__psets'
p507
(dp508
S'maxEvents'
p509
g0
(g28
g2
Ntp510
Rp511
(dp512
g11
I00
sg19
I00
sg20
I00
sg38
(lp513
S'input'
p514
asg285
g509
sg514
g0
(g103
g2
Ntp515
Rp516
(dp517
g11
I00
sg19
I00
sg37
I500000
sg20
I00
sbsbsg459
g461
sS'options'
p518
g0
(g28
g2
Ntp519
Rp520
(dp521
g11
I00
sg19
I00
sg20
I00
sS'wantSummary'
p522
g0
(g33
g2
Ntp523
Rp524
(dp525
g11
I00
sg19
I00
sg37
I01
sg20
I00
sbsg38
(lp526
g522
asg285
g518
sbssS'hcal_db_producer'
p527
g0
(g338
g2
Ntp528
Rp529
(dp530
g38
(lp531
S'file'
p532
aS'dump'
p533
asg11
I00
sg20
I00
sg533
g0
(g13
g14
(lp534
g283
atp535
Rp536
(dp537
g11
I00
sg19
I00
sg20
I00
sg21
I1
sbsg40
I56
sg69
g70
sg532
g0
(g164
g2
Ntp538
Rp539
(dp540
g11
I00
sg19
I00
sg37
g283
sg20
I00
sbsg285
g527
sg46
S'HcalDbProducer'
p541
sbsg307
g309
sS'_Process__essources'
p542
(dp543
S'HepPDTESSource'
p544
g0
(cFWCore.ParameterSet.Modules
ESSource
p545
g2
Ntp546
Rp547
(dp548
g38
(lp549
S'pdtFileName'
p550
asg11
I00
sg550
g0
(cFWCore.ParameterSet.Types
FileInPath
p551
g2
Ntp552
Rp553
(dp554
g11
I00
sg19
I01
sg37
S'SimGeneral/HepPDTESSource/data/pythiaparticle.tbl'
p555
sg20
I00
sbsg20
I00
sg40
I4
sg69
S'/cvmfs/cms.cern.ch/slc7_amd64_gcc820/cms/cmssw/CMSSW_10_6_0/python/SimGeneral/HepPDTESSource/pythiapdt_cfi.py'
p556
sg285
g544
sg46
g544
sbsS'es_hardcode'
p557
g0
(g545
g2
Ntp558
Rp559
(dp560
g11
I00
sg40
I172
sS'useHEUpgrade'
p561
g0
(g33
g2
Ntp562
Rp563
(dp564
g11
I00
sg19
I01
sg37
I00
sg20
I00
sbsS'HBRecalibration'
p565
g0
(g33
g2
Ntp566
Rp567
(dp568
g11
I00
sg19
I01
sg37
I00
sg20
I00
sbsS'useLayer0Weight'
p569
g0
(g33
g2
Ntp570
Rp571
(dp572
g11
I00
sg19
I01
sg37
I00
sg20
I00
sbsS'HEmeanenergies'
p573
g0
(g551
g2
Ntp574
Rp575
(dp576
g11
I00
sg19
I01
sg37
S'CalibCalorimetry/HcalPlugins/data/meanenergiesHE.txt'
p577
sg20
I00
sbsg459
g461
sS'heUpgrade'
p578
g0
(g28
g2
Ntp579
Rp580
(dp581
g11
I00
sg19
I01
sS'qieType'
p582
g0
(g103
g2
Ntp583
Rp584
(dp585
g11
I00
sg19
I01
sg37
I2
sg20
I00
sbsg20
I00
sS'pedestalWidth'
p586
g0
(g350
g2
Ntp587
Rp588
(dp589
g11
I00
sg19
I01
sg37
F1.5
sg20
I00
sbsS'recoShape'
p590
g0
(g103
g2
Ntp591
Rp592
(dp593
g11
I00
sg19
I01
sg37
I206
sg20
I00
sbsS'zsThreshold'
p594
g0
(g103
g2
Ntp595
Rp596
(dp597
g11
I00
sg19
I01
sg37
I16
sg20
I00
sbsS'darkCurrent'
p598
g0
(g464
g14
(lp599
F0.01
aF0.015
atp600
Rp601
(dp602
g11
I00
sg19
I01
sg20
I00
sbsS'qieOffset'
p603
g0
(g464
g14
(lp604
F0.0
aF0.0
aF0.0
aF0.0
atp605
Rp606
(dp607
g11
I00
sg19
I01
sg20
I00
sbsS'qieSlope'
p608
g0
(g464
g14
(lp609
F0.05376
aF0.05376
aF0.05376
aF0.05376
atp610
Rp611
(dp612
g11
I00
sg19
I01
sg20
I00
sbsS'radiationDamage'
p613
g0
(g28
g2
Ntp614
Rp615
(dp616
g11
I00
sg19
I01
sS'temperatureNew'
p617
g0
(g350
g2
Ntp618
Rp619
(dp620
g11
I00
sg19
I01
sg37
I5
sg20
I00
sbsg20
I00
sS'depVsNeutrons'
p621
g0
(g464
g14
(lp622
F5.543e-10
aF8.012e-10
atp623
Rp624
(dp625
g11
I00
sg19
I01
sg20
I00
sbsS'temperatureBase'
p626
g0
(g350
g2
Ntp627
Rp628
(dp629
g11
I00
sg19
I01
sg37
I20
sg20
I00
sbsS'depVsTemp'
p630
g0
(g350
g2
Ntp631
Rp632
(dp633
g11
I00
sg19
I01
sg37
F0.0631
sg20
I00
sbsS'intlumiOffset'
p634
g0
(g350
g2
Ntp635
Rp636
(dp637
g11
I00
sg19
I01
sg37
I75
sg20
I00
sbsg38
(lp638
g617
ag621
ag626
ag630
ag634
aS'intlumiToNeutrons'
p639
asg639
g0
(g350
g2
Ntp640
Rp641
(dp642
g11
I00
sg19
I01
sg37
F29200000.0
sg20
I00
sbsbsS'doRadiationDamage'
p643
g0
(g33
g2
Ntp644
Rp645
(dp646
g11
I00
sg19
I01
sg37
I01
sg20
I00
sbsg38
(lp647
g582
ag586
ag590
ag594
aS'photoelectronsToAnalog'
p648
ag603
ag608
ag613
ag643
ag598
aS'pedestal'
p649
aS'mcShape'
p650
aS'gainWidth'
p651
aS'gain'
p652
asg648
g0
(g350
g2
Ntp653
Rp654
(dp655
g11
I00
sg19
I01
sg37
F40.0
sg20
I00
sbsg649
g0
(g350
g2
Ntp656
Rp657
(dp658
g11
I00
sg19
I01
sg37
F17.3
sg20
I00
sbsg650
g0
(g103
g2
Ntp659
Rp660
(dp661
g11
I00
sg19
I01
sg37
I206
sg20
I00
sbsg651
g0
(g464
g14
(lp662
I0
atp663
Rp664
(dp665
g11
I00
sg19
I01
sg20
I00
sbsg652
g0
(g464
g14
(lp666
F0.0006252
atp667
Rp668
(dp669
g11
I00
sg19
I01
sg20
I00
sbsbsg38
(lp670
S'toGet'
p671
ag565
ag569
ag573
ag459
ag578
aS'useIeta18depth1'
p672
aS'killHE'
p673
aS'useHBUpgrade'
p674
aS'hbUpgrade'
p675
aS'testHEPlan1'
p676
aS'iLumi'
p677
aS'testHFQIE10'
p678
aS'HBmeanenergies'
p679
ag561
aS'GainWidthsForTrigPrims'
p680
aS'HBreCalibCutoff'
p681
aS'HFRecalibration'
p682
aS'ho'
p683
aS'hb'
p684
aS'hf'
p685
aS'he'
p686
aS'HERecalibration'
p687
aS'useHFUpgrade'
p688
aS'HEreCalibCutoff'
p689
aS'SiPMCharacteristics'
p690
aS'useHOUpgrade'
p691
aS'hfUpgrade'
p692
asg69
S'/cvmfs/cms.cern.ch/slc7_amd64_gcc820/cms/cmssw/CMSSW_10_6_0/python/CalibCalorimetry/HcalPlugins/Hcal_Conditions_forGlobalTag_cff.py'
p693
sg672
g0
(g33
g2
Ntp694
Rp695
(dp696
g11
I00
sg19
I01
sg37
I01
sg20
I00
sbsg673
g0
(g33
g2
Ntp697
Rp698
(dp699
g11
I00
sg19
I01
sg37
I00
sg20
I00
sbsg674
g0
(g33
g2
Ntp700
Rp701
(dp702
g11
I00
sg19
I01
sg37
I00
sg20
I00
sbsg675
g0
(g28
g2
Ntp703
Rp704
(dp705
g11
I00
sg19
I01
sg582
g0
(g103
g2
Ntp706
Rp707
(dp708
g11
I00
sg19
I01
sg37
I2
sg20
I00
sbsg20
I00
sg586
g0
(g350
g2
Ntp709
Rp710
(dp711
g11
I00
sg19
I01
sg37
F1.5
sg20
I00
sbsg590
g0
(g103
g2
Ntp712
Rp713
(dp714
g11
I00
sg19
I01
sg37
I206
sg20
I00
sbsg594
g0
(g103
g2
Ntp715
Rp716
(dp717
g11
I00
sg19
I01
sg37
I16
sg20
I00
sbsg598
g0
(g464
g14
(lp718
F0.01
aF0.015
atp719
Rp720
(dp721
g11
I00
sg19
I01
sg20
I00
sbsg603
g0
(g464
g14
(lp722
F0.0
aF0.0
aF0.0
aF0.0
atp723
Rp724
(dp725
g11
I00
sg19
I01
sg20
I00
sbsg608
g0
(g464
g14
(lp726
F0.05376
aF0.05376
aF0.05376
aF0.05376
atp727
Rp728
(dp729
g11
I00
sg19
I01
sg20
I00
sbsg613
g0
(g28
g2
Ntp730
Rp731
(dp732
g11
I00
sg19
I01
sg617
g0
(g350
g2
Ntp733
Rp734
(dp735
g11
I00
sg19
I01
sg37
I-5
sg20
I00
sbsg20
I00
sg621
g0
(g464
g14
(lp736
F5.543e-10
aF8.012e-10
atp737
Rp738
(dp739
g11
I00
sg19
I01
sg20
I00
sbsg626
g0
(g350
g2
Ntp740
Rp741
(dp742
g11
I00
sg19
I01
sg37
I20
sg20
I00
sbsg630
g0
(g350
g2
Ntp743
Rp744
(dp745
g11
I00
sg19
I01
sg37
F0.0631
sg20
I00
sbsg634
g0
(g350
g2
Ntp746
Rp747
(dp748
g11
I00
sg19
I01
sg37
I150
sg20
I00
sbsg38
(lp749
g617
ag621
ag626
ag630
ag634
ag639
asg639
g0
(g350
g2
Ntp750
Rp751
(dp752
g11
I00
sg19
I01
sg37
F367000000.0
sg20
I00
sbsbsg643
g0
(g33
g2
Ntp753
Rp754
(dp755
g11
I00
sg19
I01
sg37
I01
sg20
I00
sbsg38
(lp756
g582
ag586
ag590
ag594
ag648
ag603
ag608
ag613
ag643
ag598
ag649
ag650
ag651
ag652
asg648
g0
(g350
g2
Ntp757
Rp758
(dp759
g11
I00
sg19
I01
sg37
F40.0
sg20
I00
sbsg649
g0
(g350
g2
Ntp760
Rp761
(dp762
g11
I00
sg19
I01
sg37
F17.3
sg20
I00
sbsg650
g0
(g103
g2
Ntp763
Rp764
(dp765
g11
I00
sg19
I01
sg37
I206
sg20
I00
sbsg651
g0
(g464
g14
(lp766
I0
atp767
Rp768
(dp769
g11
I00
sg19
I01
sg20
I00
sbsg652
g0
(g464
g14
(lp770
F0.0006252
atp771
Rp772
(dp773
g11
I00
sg19
I01
sg20
I00
sbsbsg46
S'HcalHardcodeCalibrations'
p774
sg676
g0
(g33
g2
Ntp775
Rp776
(dp777
g11
I00
sg19
I01
sg37
I00
sg20
I00
sbsg677
g0
(g350
g2
Ntp778
Rp779
(dp780
g11
I00
sg19
I01
sg37
F-1.0
sg20
I00
sbsg678
g0
(g33
g2
Ntp781
Rp782
(dp783
g11
I00
sg19
I01
sg37
I00
sg20
I00
sbsg679
g0
(g551
g2
Ntp784
Rp785
(dp786
g11
I00
sg19
I01
sg37
S'CalibCalorimetry/HcalPlugins/data/meanenergiesHB.txt'
p787
sg20
I00
sbsg671
g0
(g13
g14
(lp788
S'GainWidths'
p789
atp790
Rp791
(dp792
g11
I00
sg19
I00
sg20
I00
sg21
I1
sbsg680
g0
(g33
g2
Ntp793
Rp794
(dp795
g11
I00
sg19
I01
sg37
I00
sg20
I00
sbsg681
g0
(g350
g2
Ntp796
Rp797
(dp798
g11
I00
sg19
I01
sg37
F20.0
sg20
I00
sbsg682
g0
(g33
g2
Ntp799
Rp800
(dp801
g11
I00
sg19
I01
sg37
I00
sg20
I00
sbsg683
g0
(g28
g2
Ntp802
Rp803
(dp804
g11
I00
sg19
I01
sg582
g0
(g103
g2
Ntp805
Rp806
(dp807
g11
I00
sg19
I01
sg37
I0
sg20
I00
sbsg20
I00
sg586
g0
(g350
g2
Ntp808
Rp809
(dp810
g11
I00
sg19
I01
sg37
F0.6285
sg20
I00
sbsg590
g0
(g103
g2
Ntp811
Rp812
(dp813
g11
I00
sg19
I01
sg37
I201
sg20
I00
sbsg594
g0
(g103
g2
Ntp814
Rp815
(dp816
g11
I00
sg19
I01
sg37
I24
sg20
I00
sbsg598
g0
(g464
g14
(lp817
F0.0
atp818
Rp819
(dp820
g11
I00
sg19
I01
sg20
I00
sbsg603
g0
(g464
g14
(lp821
F-0.44
aF1.4
aF7.1
aF38.5
atp822
Rp823
(dp824
g11
I00
sg19
I01
sg20
I00
sbsg608
g0
(g464
g14
(lp825
F0.907
aF0.915
aF0.92
aF0.921
atp826
Rp827
(dp828
g11
I00
sg19
I01
sg20
I00
sbsg652
g0
(g464
g14
(lp829
F0.006
aF0.0087
atp830
Rp831
(dp832
g11
I00
sg19
I01
sg20
I00
sbsg643
g0
(g33
g2
Ntp833
Rp834
(dp835
g11
I00
sg19
I01
sg37
I00
sg20
I00
sbsg38
(lp836
g582
ag586
ag590
ag594
ag648
ag603
ag608
ag652
ag643
ag598
ag649
ag650
ag651
asg648
g0
(g350
g2
Ntp837
Rp838
(dp839
g11
I00
sg19
I01
sg37
F4.0
sg20
I00
sbsg649
g0
(g350
g2
Ntp840
Rp841
(dp842
g11
I00
sg19
I01
sg37
F12.06
sg20
I00
sbsg650
g0
(g103
g2
Ntp843
Rp844
(dp845
g11
I00
sg19
I01
sg37
I201
sg20
I00
sbsg651
g0
(g464
g14
(lp846
F0.0
aF0.0
atp847
Rp848
(dp849
g11
I00
sg19
I01
sg20
I00
sbsbsg684
g0
(g28
g2
Ntp850
Rp851
(dp852
g11
I00
sg19
I01
sg582
g0
(g103
g2
Ntp853
Rp854
(dp855
g11
I00
sg19
I01
sg37
I0
sg20
I00
sbsg20
I00
sg586
g0
(g350
g2
Ntp856
Rp857
(dp858
g11
I00
sg19
I01
sg37
F0.809
sg20
I00
sbsg590
g0
(g103
g2
Ntp859
Rp860
(dp861
g11
I00
sg19
I01
sg37
I105
sg20
I00
sbsg594
g0
(g103
g2
Ntp862
Rp863
(dp864
g11
I00
sg19
I01
sg37
I8
sg20
I00
sbsg598
g0
(g464
g14
(lp865
F0.0
atp866
Rp867
(dp868
g11
I00
sg19
I01
sg20
I00
sbsg603
g0
(g464
g14
(lp869
F-0.49
aF1.8
aF7.2
aF37.9
atp870
Rp871
(dp872
g11
I00
sg19
I01
sg20
I00
sbsg608
g0
(g464
g14
(lp873
F0.912
aF0.917
aF0.922
aF0.923
atp874
Rp875
(dp876
g11
I00
sg19
I01
sg20
I00
sbsg652
g0
(g464
g14
(lp877
F0.19
atp878
Rp879
(dp880
g11
I00
sg19
I01
sg20
I00
sbsg643
g0
(g33
g2
Ntp881
Rp882
(dp883
g11
I00
sg19
I01
sg37
I00
sg20
I00
sbsg38
(lp884
g582
ag586
ag590
ag594
ag648
ag603
ag608
ag652
ag643
ag598
ag649
ag650
ag651
asg648
g0
(g350
g2
Ntp885
Rp886
(dp887
g11
I00
sg19
I01
sg37
F0.3305
sg20
I00
sbsg649
g0
(g350
g2
Ntp888
Rp889
(dp890
g11
I00
sg19
I01
sg37
F3.285
sg20
I00
sbsg650
g0
(g103
g2
Ntp891
Rp892
(dp893
g11
I00
sg19
I01
sg37
I125
sg20
I00
sbsg651
g0
(g464
g14
(lp894
F0.0
atp895
Rp896
(dp897
g11
I00
sg19
I01
sg20
I00
sbsbsg685
g0
(g28
g2
Ntp898
Rp899
(dp900
g11
I00
sg19
I01
sg582
g0
(g103
g2
Ntp901
Rp902
(dp903
g11
I00
sg19
I01
sg37
I0
sg20
I00
sbsg20
I00
sg586
g0
(g350
g2
Ntp904
Rp905
(dp906
g11
I00
sg19
I01
sg37
F2.516
sg20
I00
sbsg590
g0
(g103
g2
Ntp907
Rp908
(dp909
g11
I00
sg19
I01
sg37
I301
sg20
I00
sbsg594
g0
(g103
g2
Ntp910
Rp911
(dp912
g11
I00
sg19
I01
sg37
I-9999
sg20
I00
sbsg598
g0
(g464
g14
(lp913
F0.0
atp914
Rp915
(dp916
g11
I00
sg19
I01
sg20
I00
sbsg603
g0
(g464
g14
(lp917
F-0.87
aF1.4
aF7.8
aF-29.6
atp918
Rp919
(dp920
g11
I00
sg19
I01
sg20
I00
sbsg608
g0
(g464
g14
(lp921
F0.359
aF0.358
aF0.36
aF0.367
atp922
Rp923
(dp924
g11
I00
sg19
I01
sg20
I00
sbsg652
g0
(g464
g14
(lp925
F0.14
aF0.135
atp926
Rp927
(dp928
g11
I00
sg19
I01
sg20
I00
sbsg643
g0
(g33
g2
Ntp929
Rp930
(dp931
g11
I00
sg19
I01
sg37
I00
sg20
I00
sbsg38
(lp932
g582
ag586
ag590
ag594
ag648
ag603
ag608
ag652
ag643
ag598
ag649
ag650
ag651
asg648
g0
(g350
g2
Ntp933
Rp934
(dp935
g11
I00
sg19
I01
sg37
F0.0
sg20
I00
sbsg649
g0
(g350
g2
Ntp936
Rp937
(dp938
g11
I00
sg19
I01
sg37
F9.354
sg20
I00
sbsg650
g0
(g103
g2
Ntp939
Rp940
(dp941
g11
I00
sg19
I01
sg37
I301
sg20
I00
sbsg651
g0
(g464
g14
(lp942
F0.0
aF0.0
atp943
Rp944
(dp945
g11
I00
sg19
I01
sg20
I00
sbsbsg686
g0
(g28
g2
Ntp946
Rp947
(dp948
g11
I00
sg19
I01
sg582
g0
(g103
g2
Ntp949
Rp950
(dp951
g11
I00
sg19
I01
sg37
I0
sg20
I00
sbsg20
I00
sg586
g0
(g350
g2
Ntp952
Rp953
(dp954
g11
I00
sg19
I01
sg37
F0.9698
sg20
I00
sbsg590
g0
(g103
g2
Ntp955
Rp956
(dp957
g11
I00
sg19
I01
sg37
I105
sg20
I00
sbsg594
g0
(g103
g2
Ntp958
Rp959
(dp960
g11
I00
sg19
I01
sg37
I9
sg20
I00
sbsg598
g0
(g464
g14
(lp961
F0.0
atp962
Rp963
(dp964
g11
I00
sg19
I01
sg20
I00
sbsg603
g0
(g464
g14
(lp965
F-0.38
aF2.0
aF7.6
aF39.6
atp966
Rp967
(dp968
g11
I00
sg19
I01
sg20
I00
sbsg608
g0
(g464
g14
(lp969
F0.912
aF0.916
aF0.92
aF0.922
atp970
Rp971
(dp972
g11
I00
sg19
I01
sg20
I00
sbsg652
g0
(g464
g14
(lp973
F0.23
atp974
Rp975
(dp976
g11
I00
sg19
I01
sg20
I00
sbsg643
g0
(g33
g2
Ntp977
Rp978
(dp979
g11
I00
sg19
I01
sg37
I00
sg20
I00
sbsg38
(lp980
g582
ag586
ag590
ag594
ag648
ag603
ag608
ag652
ag643
ag598
ag649
ag650
ag651
asg648
g0
(g350
g2
Ntp981
Rp982
(dp983
g11
I00
sg19
I01
sg37
F0.3305
sg20
I00
sbsg649
g0
(g350
g2
Ntp984
Rp985
(dp986
g11
I00
sg19
I01
sg37
F3.163
sg20
I00
sbsg650
g0
(g103
g2
Ntp987
Rp988
(dp989
g11
I00
sg19
I01
sg37
I125
sg20
I00
sbsg651
g0
(g464
g14
(lp990
I0
atp991
Rp992
(dp993
g11
I00
sg19
I01
sg20
I00
sbsbsg20
I00
sg687
g0
(g33
g2
Ntp994
Rp995
(dp996
g11
I00
sg19
I01
sg37
I00
sg20
I00
sbsg688
g0
(g33
g2
Ntp997
Rp998
(dp999
g11
I00
sg19
I01
sg37
I00
sg20
I00
sbsg689
g0
(g350
g2
Ntp1000
Rp1001
(dp1002
g11
I00
sg19
I01
sg37
F20.0
sg20
I00
sbsg690
g0
(cFWCore.ParameterSet.Types
VPSet
p1003
g14
(lp1004
g0
(g28
g2
Ntp1005
Rp1006
(dp1007
g11
I00
sg19
I01
sg20
I00
sS'crosstalk'
p1008
g0
(g350
g2
Ntp1009
Rp1010
(dp1011
g11
I00
sg19
I01
sg37
F0.0
sg20
I00
sbsS'nonlin1'
p1012
g0
(g350
g2
Ntp1013
Rp1014
(dp1015
g11
I00
sg19
I01
sg37
F1.0
sg20
I00
sbsS'nonlin3'
p1016
g0
(g350
g2
Ntp1017
Rp1018
(dp1019
g11
I00
sg19
I01
sg37
F0.0
sg20
I00
sbsS'nonlin2'
p1020
g0
(g350
g2
Ntp1021
Rp1022
(dp1023
g11
I00
sg19
I01
sg37
F0.0
sg20
I00
sbsg38
(lp1024
g1012
ag1016
ag1020
aS'pixels'
p1025
ag1008
asg1025
g0
(g103
g2
Ntp1026
Rp1027
(dp1028
g11
I00
sg19
I01
sg37
I36000
sg20
I00
sbsbag0
(g28
g2
Ntp1029
Rp1030
(dp1031
g11
I00
sg19
I01
sg20
I00
sg1008
g0
(g350
g2
Ntp1032
Rp1033
(dp1034
g11
I00
sg19
I01
sg37
F0.0
sg20
I00
sbsg1012
g0
(g350
g2
Ntp1035
Rp1036
(dp1037
g11
I00
sg19
I01
sg37
F1.0
sg20
I00
sbsg1016
g0
(g350
g2
Ntp1038
Rp1039
(dp1040
g11
I00
sg19
I01
sg37
F0.0
sg20
I00
sbsg1020
g0
(g350
g2
Ntp1041
Rp1042
(dp1043
g11
I00
sg19
I01
sg37
F0.0
sg20
I00
sbsg38
(lp1044
g1012
ag1016
ag1020
ag1025
ag1008
asg1025
g0
(g103
g2
Ntp1045
Rp1046
(dp1047
g11
I00
sg19
I01
sg37
I2500
sg20
I00
sbsbag0
(g28
g2
Ntp1048
Rp1049
(dp1050
g11
I00
sg19
I01
sg20
I00
sg1008
g0
(g350
g2
Ntp1051
Rp1052
(dp1053
g11
I00
sg19
I01
sg37
F0.17
sg20
I00
sbsg1012
g0
(g350
g2
Ntp1054
Rp1055
(dp1056
g11
I00
sg19
I01
sg37
F1.00985
sg20
I00
sbsg1016
g0
(g350
g2
Ntp1057
Rp1058
(dp1059
g11
I00
sg19
I01
sg37
F2.86282e-10
sg20
I00
sbsg1020
g0
(g350
g2
Ntp1060
Rp1061
(dp1062
g11
I00
sg19
I01
sg37
F7.84089e-06
sg20
I00
sbsg38
(lp1063
g1012
ag1016
ag1020
ag1025
ag1008
asg1025
g0
(g103
g2
Ntp1064
Rp1065
(dp1066
g11
I00
sg19
I01
sg37
I27370
sg20
I00
sbsbag0
(g28
g2
Ntp1067
Rp1068
(dp1069
g11
I00
sg19
I01
sg20
I00
sg1008
g0
(g350
g2
Ntp1070
Rp1071
(dp1072
g11
I00
sg19
I01
sg37
F0.196
sg20
I00
sbsg1012
g0
(g350
g2
Ntp1073
Rp1074
(dp1075
g11
I00
sg19
I01
sg37
F1.00546
sg20
I00
sbsg1016
g0
(g350
g2
Ntp1076
Rp1077
(dp1078
g11
I00
sg19
I01
sg37
F1.27011e-10
sg20
I00
sbsg1020
g0
(g350
g2
Ntp1079
Rp1080
(dp1081
g11
I00
sg19
I01
sg37
F6.40239e-06
sg20
I00
sbsg38
(lp1082
g1012
ag1016
ag1020
ag1025
ag1008
asg1025
g0
(g103
g2
Ntp1083
Rp1084
(dp1085
g11
I00
sg19
I01
sg37
I38018
sg20
I00
sbsbag0
(g28
g2
Ntp1086
Rp1087
(dp1088
g11
I00
sg19
I01
sg20
I00
sg1008
g0
(g350
g2
Ntp1089
Rp1090
(dp1091
g11
I00
sg19
I01
sg37
F0.17
sg20
I00
sbsg1012
g0
(g350
g2
Ntp1092
Rp1093
(dp1094
g11
I00
sg19
I01
sg37
F1.00985
sg20
I00
sbsg1016
g0
(g350
g2
Ntp1095
Rp1096
(dp1097
g11
I00
sg19
I01
sg37
F2.86282e-10
sg20
I00
sbsg1020
g0
(g350
g2
Ntp1098
Rp1099
(dp1100
g11
I00
sg19
I01
sg37
F7.84089e-06
sg20
I00
sbsg38
(lp1101
g1012
ag1016
ag1020
ag1025
ag1008
asg1025
g0
(g103
g2
Ntp1102
Rp1103
(dp1104
g11
I00
sg19
I01
sg37
I27370
sg20
I00
sbsbag0
(g28
g2
Ntp1105
Rp1106
(dp1107
g11
I00
sg19
I01
sg20
I00
sg1008
g0
(g350
g2
Ntp1108
Rp1109
(dp1110
g11
I00
sg19
I01
sg37
F0.196
sg20
I00
sbsg1012
g0
(g350
g2
Ntp1111
Rp1112
(dp1113
g11
I00
sg19
I01
sg37
F1.00546
sg20
I00
sbsg1016
g0
(g350
g2
Ntp1114
Rp1115
(dp1116
g11
I00
sg19
I01
sg37
F1.27011e-10
sg20
I00
sbsg1020
g0
(g350
g2
Ntp1117
Rp1118
(dp1119
g11
I00
sg19
I01
sg37
F6.40239e-06
sg20
I00
sbsg38
(lp1120
g1012
ag1016
ag1020
ag1025
ag1008
asg1025
g0
(g103
g2
Ntp1121
Rp1122
(dp1123
g11
I00
sg19
I01
sg37
I38018
sg20
I00
sbsbag0
(g28
g2
Ntp1124
Rp1125
(dp1126
g11
I00
sg19
I01
sg20
I00
sg1008
g0
(g350
g2
Ntp1127
Rp1128
(dp1129
g11
I00
sg19
I01
sg37
F0.0
sg20
I00
sbsg1012
g0
(g350
g2
Ntp1130
Rp1131
(dp1132
g11
I00
sg19
I01
sg37
F1.0
sg20
I00
sbsg1016
g0
(g350
g2
Ntp1133
Rp1134
(dp1135
g11
I00
sg19
I01
sg37
F0.0
sg20
I00
sbsg1020
g0
(g350
g2
Ntp1136
Rp1137
(dp1138
g11
I00
sg19
I01
sg37
F0.0
sg20
I00
sbsg38
(lp1139
g1012
ag1016
ag1020
ag1025
ag1008
asg1025
g0
(g103
g2
Ntp1140
Rp1141
(dp1142
g11
I00
sg19
I01
sg37
I0
sg20
I00
sbsbatp1143
Rp1144
(dp1145
g11
I00
sg19
I01
sg20
I00
sg21
I1
sbsg285
g557
sg691
g0
(g33
g2
Ntp1146
Rp1147
(dp1148
g11
I00
sg19
I01
sg37
I01
sg20
I00
sbsg692
g0
(g28
g2
Ntp1149
Rp1150
(dp1151
g11
I00
sg19
I01
sg582
g0
(g103
g2
Ntp1152
Rp1153
(dp1154
g11
I00
sg19
I01
sg37
I1
sg20
I00
sbsg20
I00
sg586
g0
(g350
g2
Ntp1155
Rp1156
(dp1157
g11
I00
sg19
I01
sg37
F3.33
sg20
I00
sbsg590
g0
(g103
g2
Ntp1158
Rp1159
(dp1160
g11
I00
sg19
I01
sg37
I301
sg20
I00
sbsg594
g0
(g103
g2
Ntp1161
Rp1162
(dp1163
g11
I00
sg19
I01
sg37
I-9999
sg20
I00
sbsg598
g0
(g464
g14
(lp1164
F0.0
atp1165
Rp1166
(dp1167
g11
I00
sg19
I01
sg20
I00
sbsg603
g0
(g464
g14
(lp1168
F0.0697
aF-0.7405
aF12.38
aF-671.9
atp1169
Rp1170
(dp1171
g11
I00
sg19
I01
sg20
I00
sbsg608
g0
(g464
g14
(lp1172
F0.297
aF0.298
aF0.298
aF0.313
atp1173
Rp1174
(dp1175
g11
I00
sg19
I01
sg20
I00
sbsg652
g0
(g464
g14
(lp1176
F0.14
aF0.135
atp1177
Rp1178
(dp1179
g11
I00
sg19
I01
sg20
I00
sbsg643
g0
(g33
g2
Ntp1180
Rp1181
(dp1182
g11
I00
sg19
I01
sg37
I00
sg20
I00
sbsg38
(lp1183
g582
ag586
ag590
ag594
ag648
ag603
ag608
ag652
ag643
ag598
ag649
ag650
ag651
asg648
g0
(g350
g2
Ntp1184
Rp1185
(dp1186
g11
I00
sg19
I01
sg37
F0.0
sg20
I00
sbsg649
g0
(g350
g2
Ntp1187
Rp1188
(dp1189
g11
I00
sg19
I01
sg37
F13.33
sg20
I00
sbsg650
g0
(g103
g2
Ntp1190
Rp1191
(dp1192
g11
I00
sg19
I01
sg37
I301
sg20
I00
sbsg651
g0
(g464
g14
(lp1193
F0.0
aF0.0
atp1194
Rp1195
(dp1196
g11
I00
sg19
I01
sg20
I00
sbsbsbsS'GlobalTag'
p1197
g0
(g545
g2
Ntp1198
Rp1199
(dp1200
g38
(lp1201
S'DBParameters'
p1202
aS'connect'
p1203
aS'globaltag'
p1204
aS'RefreshEachRun'
p1205
aS'pfnPrefix'
p1206
aS'snapshotTime'
p1207
ag671
aS'pfnPostfix'
p1208
aS'RefreshAlways'
p1209
aS'ReconnectEachRun'
p1210
aS'RefreshOpenIOVs'
p1211
aS'DumpStat'
p1212
asg11
I00
sg69
S'/cvmfs/cms.cern.ch/slc7_amd64_gcc820/cms/cmssw/CMSSW_10_6_0/python/CondCore/ESSources/CondDBESSource_cfi.py'
p1213
sg20
I01
sg1204
g0
(g164
g2
Ntp1214
Rp1215
(dp1216
g11
I00
sg19
I01
sg37
S'92X_dataRun2_Prompt_v4'
p1217
sg20
I01
sbsg1205
g0
(g33
g2
Ntp1218
Rp1219
(dp1220
g11
I00
sg19
I00
sg37
I00
sg20
I00
sbsg1206
g0
(g164
g2
Ntp1221
Rp1222
(dp1223
g11
I00
sg19
I00
sg37
g283
sg20
I00
sbsg1207
g0
(g164
g2
Ntp1224
Rp1225
(dp1226
g11
I00
sg19
I01
sg37
g283
sg20
I00
sbsg671
g0
(g1003
g14
(lp1227
tp1228
Rp1229
(dp1230
g11
I00
sg19
I01
sg20
I00
sg21
I1
sbsg1208
g0
(g164
g2
Ntp1231
Rp1232
(dp1233
g11
I00
sg19
I00
sg37
g283
sg20
I00
sbsg1202
g0
(g28
g2
Ntp1234
Rp1235
(dp1236
g11
I00
sg19
I01
sS'authenticationPath'
p1237
g0
(g164
g2
Ntp1238
Rp1239
(dp1240
g11
I00
sg19
I00
sg37
g283
sg20
I00
sbsg20
I00
sS'messageLevel'
p1241
g0
(g103
g2
Ntp1242
Rp1243
(dp1244
g11
I00
sg19
I00
sg37
I0
sg20
I00
sbsg38
(lp1245
g1241
aS'security'
p1246
aS'authenticationSystem'
p1247
ag1237
asg1246
g0
(g164
g2
Ntp1248
Rp1249
(dp1250
g11
I00
sg19
I00
sg37
g283
sg20
I00
sbsg1247
g0
(g103
g2
Ntp1251
Rp1252
(dp1253
g11
I00
sg19
I00
sg37
I0
sg20
I00
sbsbsg1209
g0
(g33
g2
Ntp1254
Rp1255
(dp1256
g11
I00
sg19
I00
sg37
I00
sg20
I00
sbsg40
I19
sg1203
g0
(g164
g2
Ntp1257
Rp1258
(dp1259
g11
I00
sg19
I01
sg37
S'frontier://FrontierProd/CMS_CONDITIONS'
p1260
sg20
I00
sbsg1210
g0
(g33
g2
Ntp1261
Rp1262
(dp1263
g11
I00
sg19
I00
sg37
I00
sg20
I00
sbsg285
g1197
sg1211
g0
(g33
g2
Ntp1264
Rp1265
(dp1266
g11
I00
sg19
I00
sg37
I00
sg20
I00
sbsg1212
g0
(g33
g2
Ntp1267
Rp1268
(dp1269
g11
I00
sg19
I00
sg37
I00
sg20
I00
sbsg46
S'PoolDBESSource'
p1270
sbsS'HcalTimeSlewEP'
p1271
g0
(g545
g2
Ntp1272
Rp1273
(dp1274
g38
(lp1275
S'timeSlewParametersM3'
p1276
aS'timeSlewParametersM2'
p1277
aS'appendToDataLabel'
p1278
asg11
I00
sg1276
g0
(g1003
g14
(lp1279
g0
(g28
g2
Ntp1280
Rp1281
(dp1282
g11
I00
sg19
I01
sS'tspar2'
p1283
g0
(g350
g2
Ntp1284
Rp1285
(dp1286
g11
I00
sg19
I01
sg37
F0.0
sg20
I00
sbsg20
I00
sS'tspar0'
p1287
g0
(g350
g2
Ntp1288
Rp1289
(dp1290
g11
I00
sg19
I01
sg37
F12.2999
sg20
I00
sbsS'tspar1'
p1291
g0
(g350
g2
Ntp1292
Rp1293
(dp1294
g11
I00
sg19
I01
sg37
F-2.19142
sg20
I00
sbsS'tspar1_siPM'
p1295
g0
(g350
g2
Ntp1296
Rp1297
(dp1298
g11
I00
sg19
I01
sg37
F0.0
sg20
I00
sbsS'cap'
p1299
g0
(g350
g2
Ntp1300
Rp1301
(dp1302
g11
I00
sg19
I01
sg37
F6.0
sg20
I00
sbsS'tspar0_siPM'
p1303
g0
(g350
g2
Ntp1304
Rp1305
(dp1306
g11
I00
sg19
I01
sg37
F0.0
sg20
I00
sbsg38
(lp1307
g1283
ag1287
ag1291
ag1295
ag1299
ag1303
aS'tspar2_siPM'
p1308
asg1308
g0
(g350
g2
Ntp1309
Rp1310
(dp1311
g11
I00
sg19
I01
sg37
F0.0
sg20
I00
sbsbag0
(g28
g2
Ntp1312
Rp1313
(dp1314
g11
I00
sg19
I01
sg1283
g0
(g350
g2
Ntp1315
Rp1316
(dp1317
g11
I00
sg19
I01
sg37
F32.0
sg20
I00
sbsg20
I00
sg1287
g0
(g350
g2
Ntp1318
Rp1319
(dp1320
g11
I00
sg19
I01
sg37
F15.5
sg20
I00
sbsg1291
g0
(g350
g2
Ntp1321
Rp1322
(dp1323
g11
I00
sg19
I01
sg37
F-3.2
sg20
I00
sbsg1295
g0
(g350
g2
Ntp1324
Rp1325
(dp1326
g11
I00
sg19
I01
sg37
F0.0
sg20
I00
sbsg1299
g0
(g350
g2
Ntp1327
Rp1328
(dp1329
g11
I00
sg19
I01
sg37
F6.0
sg20
I00
sbsg1303
g0
(g350
g2
Ntp1330
Rp1331
(dp1332
g11
I00
sg19
I01
sg37
F0.0
sg20
I00
sbsg38
(lp1333
g1283
ag1287
ag1291
ag1295
ag1299
ag1303
ag1308
asg1308
g0
(g350
g2
Ntp1334
Rp1335
(dp1336
g11
I00
sg19
I01
sg37
F0.0
sg20
I00
sbsbag0
(g28
g2
Ntp1337
Rp1338
(dp1339
g11
I00
sg19
I01
sg1283
g0
(g350
g2
Ntp1340
Rp1341
(dp1342
g11
I00
sg19
I01
sg37
F0.0
sg20
I00
sbsg20
I00
sg1287
g0
(g350
g2
Ntp1343
Rp1344
(dp1345
g11
I00
sg19
I01
sg37
F12.2999
sg20
I00
sbsg1291
g0
(g350
g2
Ntp1346
Rp1347
(dp1348
g11
I00
sg19
I01
sg37
F-2.19142
sg20
I00
sbsg1295
g0
(g350
g2
Ntp1349
Rp1350
(dp1351
g11
I00
sg19
I01
sg37
F0.0
sg20
I00
sbsg1299
g0
(g350
g2
Ntp1352
Rp1353
(dp1354
g11
I00
sg19
I01
sg37
F6.0
sg20
I00
sbsg1303
g0
(g350
g2
Ntp1355
Rp1356
(dp1357
g11
I00
sg19
I01
sg37
F0.0
sg20
I00
sbsg38
(lp1358
g1283
ag1287
ag1291
ag1295
ag1299
ag1303
ag1308
asg1308
g0
(g350
g2
Ntp1359
Rp1360
(dp1361
g11
I00
sg19
I01
sg37
F0.0
sg20
I00
sbsbag0
(g28
g2
Ntp1362
Rp1363
(dp1364
g11
I00
sg19
I01
sg1283
g0
(g350
g2
Ntp1365
Rp1366
(dp1367
g11
I00
sg19
I01
sg37
F0.0
sg20
I00
sbsg20
I00
sg1287
g0
(g350
g2
Ntp1368
Rp1369
(dp1370
g11
I00
sg19
I01
sg37
F12.2999
sg20
I00
sbsg1291
g0
(g350
g2
Ntp1371
Rp1372
(dp1373
g11
I00
sg19
I01
sg37
F-2.19142
sg20
I00
sbsg1295
g0
(g350
g2
Ntp1374
Rp1375
(dp1376
g11
I00
sg19
I01
sg37
F0.0
sg20
I00
sbsg1299
g0
(g350
g2
Ntp1377
Rp1378
(dp1379
g11
I00
sg19
I01
sg37
F6.0
sg20
I00
sbsg1303
g0
(g350
g2
Ntp1380
Rp1381
(dp1382
g11
I00
sg19
I01
sg37
F0.0
sg20
I00
sbsg38
(lp1383
g1283
ag1287
ag1291
ag1295
ag1299
ag1303
ag1308
asg1308
g0
(g350
g2
Ntp1384
Rp1385
(dp1386
g11
I00
sg19
I01
sg37
F0.0
sg20
I00
sbsbatp1387
Rp1388
(dp1389
g11
I00
sg19
I01
sg20
I00
sg21
I1
sbsg1277
g0
(g1003
g14
(lp1390
g0
(g28
g2
Ntp1391
Rp1392
(dp1393
g11
I00
sg19
I01
sg20
I00
sS'slope'
p1394
g0
(g350
g2
Ntp1395
Rp1396
(dp1397
g11
I00
sg19
I01
sg37
F-3.178648
sg20
I00
sbsS'tmax'
p1398
g0
(g350
g2
Ntp1399
Rp1400
(dp1401
g11
I00
sg19
I01
sg37
F16.0
sg20
I00
sbsS'tzero'
p1402
g0
(g350
g2
Ntp1403
Rp1404
(dp1405
g11
I00
sg19
I01
sg37
F23.960177
sg20
I00
sbsg38
(lp1406
g1394
ag1398
ag1402
asbag0
(g28
g2
Ntp1407
Rp1408
(dp1409
g11
I00
sg19
I01
sg20
I00
sg1394
g0
(g350
g2
Ntp1410
Rp1411
(dp1412
g11
I00
sg19
I01
sg37
F-1.5610227
sg20
I00
sbsg1398
g0
(g350
g2
Ntp1413
Rp1414
(dp1415
g11
I00
sg19
I01
sg37
F10.0
sg20
I00
sbsg1402
g0
(g350
g2
Ntp1416
Rp1417
(dp1418
g11
I00
sg19
I01
sg37
F11.977461
sg20
I00
sbsg38
(lp1419
g1394
ag1398
ag1402
asbag0
(g28
g2
Ntp1420
Rp1421
(dp1422
g11
I00
sg19
I01
sg20
I00
sg1394
g0
(g350
g2
Ntp1423
Rp1424
(dp1425
g11
I00
sg19
I01
sg37
F-1.075824
sg20
I00
sbsg1398
g0
(g350
g2
Ntp1426
Rp1427
(dp1428
g11
I00
sg19
I01
sg37
F6.25
sg20
I00
sbsg1402
g0
(g350
g2
Ntp1429
Rp1430
(dp1431
g11
I00
sg19
I01
sg37
F9.109694
sg20
I00
sbsg38
(lp1432
g1394
ag1398
ag1402
asbatp1433
Rp1434
(dp1435
g11
I00
sg19
I01
sg20
I00
sg21
I1
sbsg20
I00
sg40
I23
sg69
S'/cvmfs/cms.cern.ch/slc7_amd64_gcc820/cms/cmssw/CMSSW_10_6_0/python/CalibCalorimetry/HcalPlugins/HcalTimeSlew_cff.py'
p1436
sg1278
g0
(g164
g2
Ntp1437
Rp1438
(dp1439
g11
I00
sg19
I01
sg37
S'HBHE'
p1440
sg20
I00
sbsg285
g1271
sg46
g1271
sbssg336
g320
sg544
g547
sg509
g511
sS'source'
p1441
g320
sS'CastorDbProducer'
p1442
g0
(g338
g2
Ntp1443
Rp1444
(dp1445
g38
(lp1446
g1278
asg11
I00
sg1278
g0
(g164
g2
Ntp1447
Rp1448
(dp1449
g11
I00
sg19
I01
sg37
g283
sg20
I00
sbsg20
I00
sg40
I56
sg69
g70
sg285
g1442
sg46
g1442
sbsS'_Process__vpsets'
p1450
(dp1451
sS'_Process__name'
p1452
S'analysis'
p1453
sg1271
g1273
sS'es_prefer_hcalHardcode'
p1454
g0
(cFWCore.ParameterSet.Modules
ESPrefer
p1455
g2
Ntp1456
Rp1457
(dp1458
g38
(lp1459
sg11
I00
sg20
I00
sS'_targetLabel'
p1460
g557
sg40
I92
sg69
g70
sg285
g1454
sg46
g774
sbsS'_Process__subProcesses'
p1461
(lp1462
sS'_Process__switchproducers'
p1463
(dp1464
sS'_cloneToObjectDict'
p1465
(dp1466
I140001259369616
g461
sI140001259369680
g529
sI140001258976528
g0
(g338
g2
Ntp1467
Rp1468
(dp1469
g38
(lp1470
S'PreFilter'
p1471
ag344
aS'NSigmaInside'
p1472
asg11
I00
sg20
I00
sg69
g70
sg344
g0
(g164
g2
Ntp1473
Rp1474
(dp1475
g11
I00
sg19
I01
sg37
S'StandardMatcher'
p1476
sg20
I00
sbsg1471
g0
(g33
g2
Ntp1477
Rp1478
(dp1479
g11
I00
sg19
I01
sg37
I00
sg20
I00
sbsg40
I56
sg1472
g0
(g350
g2
Ntp1480
Rp1481
(dp1482
g11
I00
sg19
I01
sg37
F3.0
sg20
I00
sbsg285
S'SiStripRecHitMatcherESProducer'
p1483
sg46
g1483
sbsI140001258938256
g340
sI140001258976656
g0
(g338
g2
Ntp1484
Rp1485
(dp1486
g38
(lp1487
sg11
I00
sg20
I00
sg40
I56
sg69
g70
sg285
S'sistripconn'
p1488
sg46
S'SiStripConnectivity'
p1489
sbsI140001275287248
g1199
sI140001258977040
g269
sI140001259423632
g559
sI140001258977232
g0
(g338
g2
Ntp1490
Rp1491
(dp1492
g38
(lp1493
S'siPixelQualityLabel'
p1494
aS'ListOfRecordToMerge'
p1495
asg11
I00
sg20
I01
sg40
I56
sg1494
g0
(g164
g2
Ntp1496
Rp1497
(dp1498
g11
I00
sg19
I01
sg37
g283
sg20
I00
sbsg69
g70
sg1495
g0
(g1003
g14
(lp1499
g0
(g28
g2
Ntp1500
Rp1501
(dp1502
g11
I00
sg19
I01
sg20
I00
sg429
g0
(g164
g2
Ntp1503
Rp1504
(dp1505
g11
I00
sg19
I01
sg37
S'SiPixelQualityFromDbRcd'
p1506
sg20
I00
sbsS'tag'
p1507
g0
(g164
g2
Ntp1508
Rp1509
(dp1510
g11
I00
sg19
I01
sg37
g283
sg20
I00
sbsg38
(lp1511
g429
ag1507
asbag0
(g28
g2
Ntp1512
Rp1513
(dp1514
g11
I00
sg19
I01
sg20
I00
sg429
g0
(g164
g2
Ntp1515
Rp1516
(dp1517
g11
I00
sg19
I01
sg37
S'SiPixelDetVOffRcd'
p1518
sg20
I00
sbsg1507
g0
(g164
g2
Ntp1519
Rp1520
(dp1521
g11
I00
sg19
I01
sg37
g283
sg20
I00
sbsg38
(lp1522
g429
ag1507
asbatp1523
Rp1524
(dp1525
g11
I00
sg19
I01
sg20
I00
sg21
I1
sbsg285
S'siPixelQualityESProducer'
p1526
sg46
S'SiPixelQualityESProducer'
p1527
sbsI140001258936208
g0
(g338
g2
Ntp1528
Rp1529
(dp1530
g38
(lp1531
S'printDebug'
p1532
ag1278
aS'APVGain'
p1533
aS'AutomaticNormalization'
p1534
asg11
I00
sg1278
g0
(g164
g2
Ntp1535
Rp1536
(dp1537
g11
I00
sg19
I01
sg37
g283
sg20
I00
sbsg20
I00
sg1534
g0
(g33
g2
Ntp1538
Rp1539
(dp1540
g11
I00
sg19
I01
sg37
I00
sg20
I00
sbsg40
I56
sg1532
g0
(g33
g2
Ntp1541
Rp1542
(dp1543
g11
I00
sg19
I00
sg37
I00
sg20
I00
sbsg69
g70
sg1533
g0
(g1003
g14
(lp1544
g0
(g28
g2
Ntp1545
Rp1546
(dp1547
g11
I00
sg19
I01
sg20
I00
sS'Label'
p1548
g0
(g164
g2
Ntp1549
Rp1550
(dp1551
g11
I00
sg19
I00
sg37
g283
sg20
I00
sbsS'Record'
p1552
g0
(g164
g2
Ntp1553
Rp1554
(dp1555
g11
I00
sg19
I01
sg37
S'SiStripApvGainRcd'
p1556
sg20
I00
sbsS'NormalizationFactor'
p1557
g0
(g350
g2
Ntp1558
Rp1559
(dp1560
g11
I00
sg19
I00
sg37
F1.0
sg20
I00
sbsg38
(lp1561
g1552
ag1557
ag1548
asbag0
(g28
g2
Ntp1562
Rp1563
(dp1564
g11
I00
sg19
I01
sg20
I00
sg1548
g0
(g164
g2
Ntp1565
Rp1566
(dp1567
g11
I00
sg19
I00
sg37
g283
sg20
I00
sbsg1552
g0
(g164
g2
Ntp1568
Rp1569
(dp1570
g11
I00
sg19
I01
sg37
S'SiStripApvGain2Rcd'
p1571
sg20
I00
sbsg1557
g0
(g350
g2
Ntp1572
Rp1573
(dp1574
g11
I00
sg19
I00
sg37
F1.0
sg20
I00
sbsg38
(lp1575
g1552
ag1557
ag1548
asbatp1576
Rp1577
(dp1578
g11
I00
sg19
I01
sg20
I00
sg21
I1
sbsg285
S'siStripGainESProducer'
p1579
sg46
S'SiStripGainESProducer'
p1580
sbsI140001258978000
g511
sI140001258937104
g0
(g338
g2
Ntp1581
Rp1582
(dp1583
g38
(lp1584
g419
aS'LorentzAngleDeconvMode'
p1585
aS'LorentzAnglePeakMode'
p1586
asg11
I00
sg20
I00
sg40
I56
sg69
g70
sg419
g0
(g28
g2
Ntp1587
Rp1588
(dp1589
g11
I00
sg19
I01
sg20
I00
sg425
g0
(g164
g2
Ntp1590
Rp1591
(dp1592
g11
I00
sg19
I00
sg37
g283
sg20
I00
sbsg429
g0
(g164
g2
Ntp1593
Rp1594
(dp1595
g11
I00
sg19
I01
sg37
g433
sg20
I00
sbsg38
(lp1596
g429
ag425
asbsg285
S'siStripLorentzAngleDepESProducer'
p1597
sg1586
g0
(g28
g2
Ntp1598
Rp1599
(dp1600
g11
I00
sg19
I01
sg20
I00
sg425
g0
(g164
g2
Ntp1601
Rp1602
(dp1603
g11
I00
sg19
I00
sg37
g441
sg20
I00
sbsg429
g0
(g164
g2
Ntp1604
Rp1605
(dp1606
g11
I00
sg19
I01
sg37
S'SiStripLorentzAngleRcd'
p1607
sg20
I00
sbsg38
(lp1608
g429
ag425
asbsg46
S'SiStripLorentzAngleDepESProducer'
p1609
sg1585
g0
(g28
g2
Ntp1610
Rp1611
(dp1612
g11
I00
sg19
I01
sg20
I00
sg425
g0
(g164
g2
Ntp1613
Rp1614
(dp1615
g11
I00
sg19
I00
sg37
g453
sg20
I00
sbsg429
g0
(g164
g2
Ntp1616
Rp1617
(dp1618
g11
I00
sg19
I01
sg37
g1607
sg20
I00
sbsg38
(lp1619
g429
ag425
asbsbsI140001259424784
g1457
sI140001258978448
g0
(g338
g2
Ntp1620
Rp1621
(dp1622
g38
(lp1623
g1278
aS'PrintDebugOutput'
p1624
aS'ThresholdForReducedGranularity'
p1625
aS'UseEmptyRunInfo'
p1626
aS'ReduceGranularity'
p1627
ag1495
asg11
I00
sg1278
g0
(g164
g2
Ntp1628
Rp1629
(dp1630
g11
I00
sg19
I01
sg37
g283
sg20
I00
sbsg20
I01
sg40
I56
sg69
g70
sg1625
g0
(g350
g2
Ntp1631
Rp1632
(dp1633
g11
I00
sg19
I01
sg37
F0.3
sg20
I00
sbsg285
S'siStripQualityESProducer'
p1634
sg1626
g0
(g33
g2
Ntp1635
Rp1636
(dp1637
g11
I00
sg19
I01
sg37
I00
sg20
I00
sbsg1627
g0
(g33
g2
Ntp1638
Rp1639
(dp1640
g11
I00
sg19
I01
sg37
I00
sg20
I00
sbsg1495
g0
(g1003
g14
(lp1641
g0
(g28
g2
Ntp1642
Rp1643
(dp1644
g11
I00
sg19
I01
sg20
I00
sg429
g0
(g164
g2
Ntp1645
Rp1646
(dp1647
g11
I00
sg19
I01
sg37
S'SiStripDetVOffRcd'
p1648
sg20
I00
sbsg1507
g0
(g164
g2
Ntp1649
Rp1650
(dp1651
g11
I00
sg19
I01
sg37
g283
sg20
I00
sbsg38
(lp1652
g429
ag1507
asbag0
(g28
g2
Ntp1653
Rp1654
(dp1655
g11
I00
sg19
I01
sg20
I00
sg429
g0
(g164
g2
Ntp1656
Rp1657
(dp1658
g11
I00
sg19
I01
sg37
S'SiStripDetCablingRcd'
p1659
sg20
I00
sbsg1507
g0
(g164
g2
Ntp1660
Rp1661
(dp1662
g11
I00
sg19
I01
sg37
g283
sg20
I00
sbsg38
(lp1663
g429
ag1507
asbag0
(g28
g2
Ntp1664
Rp1665
(dp1666
g11
I00
sg19
I01
sg20
I00
sg429
g0
(g164
g2
Ntp1667
Rp1668
(dp1669
g11
I00
sg19
I01
sg37
S'RunInfoRcd'
p1670
sg20
I00
sbsg1507
g0
(g164
g2
Ntp1671
Rp1672
(dp1673
g11
I00
sg19
I01
sg37
g283
sg20
I00
sbsg38
(lp1674
g429
ag1507
asbag0
(g28
g2
Ntp1675
Rp1676
(dp1677
g11
I00
sg19
I01
sg20
I00
sg429
g0
(g164
g2
Ntp1678
Rp1679
(dp1680
g11
I00
sg19
I01
sg37
S'SiStripBadChannelRcd'
p1681
sg20
I00
sbsg1507
g0
(g164
g2
Ntp1682
Rp1683
(dp1684
g11
I00
sg19
I01
sg37
g283
sg20
I00
sbsg38
(lp1685
g429
ag1507
asbag0
(g28
g2
Ntp1686
Rp1687
(dp1688
g11
I00
sg19
I01
sg20
I00
sg429
g0
(g164
g2
Ntp1689
Rp1690
(dp1691
g11
I00
sg19
I01
sg37
S'SiStripBadFiberRcd'
p1692
sg20
I00
sbsg1507
g0
(g164
g2
Ntp1693
Rp1694
(dp1695
g11
I00
sg19
I01
sg37
g283
sg20
I00
sbsg38
(lp1696
g429
ag1507
asbag0
(g28
g2
Ntp1697
Rp1698
(dp1699
g11
I00
sg19
I01
sg20
I00
sg429
g0
(g164
g2
Ntp1700
Rp1701
(dp1702
g11
I00
sg19
I01
sg37
S'SiStripBadModuleRcd'
p1703
sg20
I00
sbsg1507
g0
(g164
g2
Ntp1704
Rp1705
(dp1706
g11
I00
sg19
I01
sg37
g283
sg20
I00
sbsg38
(lp1707
g429
ag1507
asbag0
(g28
g2
Ntp1708
Rp1709
(dp1710
g11
I00
sg19
I01
sg20
I00
sg429
g0
(g164
g2
Ntp1711
Rp1712
(dp1713
g11
I00
sg19
I01
sg37
S'SiStripBadStripRcd'
p1714
sg20
I00
sbsg1507
g0
(g164
g2
Ntp1715
Rp1716
(dp1717
g11
I00
sg19
I01
sg37
g283
sg20
I00
sbsg38
(lp1718
g429
ag1507
asbatp1719
Rp1720
(dp1721
g11
I00
sg19
I01
sg20
I00
sg21
I1
sbsg46
S'SiStripQualityESProducer'
p1722
sg1624
g0
(g33
g2
Ntp1723
Rp1724
(dp1725
g11
I00
sg19
I01
sg37
I00
sg20
I00
sbsbsI140001275284944
g504
sI140001258937808
g416
sI140001258938128
g487
sI140001259086480
g547
sI140001258934608
g1444
sI140001259368912
g1273
sI140001259016848
g520
sI140001259086544
g258
ssg1579
g1529
sg1488
g1485
sS'_Process__esprefers'
p1726
(dp1727
g1454
g1457
ssg1483
g1468
sS'_Process__schedule'
p1728
Nsg1634
g1621
sg286
g269
sS'_Process__outputmodules'
p1729
(dp1730
sS'_Process__analyzers'
p1731
(dp1732
g286
g269
ssS'_Process__InExtendCall'
p1733
I00
sg1597
g1582
sS'_Process__modifiers'
p1734
(tsS'_Process__producers'
p1735
(dp1736
sg1526
g1491
sg1197
g1199
sS'_Process__filters'
p1737
(dp1738
sg557
g559
sS'_Process__looper'
p1739
NsS'_Process__endpaths'
p1740
g0
(cFWCore.ParameterSet.DictTypes
SortedKeysDict
p1741
c__builtin__
dict
p1742
(dp1743
tp1744
Rp1745
(dp1746
S'list'
p1747
(lp1748
sbsS'_Process__esproducers'
p1749
(dp1750
g1597
g1582
sg485
g487
sg1483
g1468
sg1526
g1491
sg527
g529
sg1579
g1529
sg1488
g1485
sg337
g340
sg1442
g1444
sg502
g504
sg414
g416
sg1634
g1621
ssS'_Process__tasks'
p1751
(dp1752
sS'_Process__paths'
p1753
g0
(g1741
g1742
(dp1754
g255
g258
stp1755
Rp1756
(dp1757
g1747
(lp1758
g255
asbsS'_Process__partialschedules'
p1759
(dp1760
sg518
g520
sS'_Process__isStrict'
p1761
I00
sb.