ccopy_reg
_reconstructor
p0
(cFWCore.ParameterSet.Config
Process
p1
c__builtin__
object
p2
Ntp3
Rp4
(dp5
S'MessageLogger'
p6
g0
(cFWCore.ParameterSet.Modules
Service
p7
g2
Ntp8
Rp9
(dp10
S'_isFrozen'
p11
I00
sS'suppressInfo'
p12
g0
(cFWCore.ParameterSet.Types
vstring
p13
c__builtin__
list
p14
(lp15
tp16
Rp17
(dp18
g11
I00
sS'_ParameterTypeBase__isTracked'
p19
I00
sS'_isModified'
p20
I00
sS'_nPerLine'
p21
I1
sbsS'suppressDebug'
p22
g0
(g13
g14
(lp23
tp24
Rp25
(dp26
g11
I00
sg19
I00
sg20
I00
sg21
I1
sbsS'cout'
p27
g0
(cFWCore.ParameterSet.Types
PSet
p28
g2
Ntp29
Rp30
(dp31
g11
I00
sg19
I00
sS'placeholder'
p32
g0
(cFWCore.ParameterSet.Types
bool
p33
g2
Ntp34
Rp35
(dp36
g11
I00
sg19
I00
sS'_value'
p37
I01
sg20
I00
sbsg20
I00
sS'_Parameterizable__parameterNames'
p38
(lp39
g32
asbsS'_lineNumber'
p40
I11
sS'debugModules'
p41
g0
(g13
g14
(lp42
tp43
Rp44
(dp45
g11
I00
sg19
I00
sg20
I00
sg21
I1
sbsS'_TypedParameterizable__type'
p46
g6
sS'fwkJobReports'
p47
g0
(g13
g14
(lp48
S'FrameworkJobReport'
p49
atp50
Rp51
(dp52
g11
I00
sg19
I00
sg20
I00
sg21
I1
sbsg38
(lp53
g12
aS'debugs'
p54
ag22
ag27
aS'cerr_stats'
p55
aS'warnings'
p56
aS'default'
p57
aS'statistics'
p58
aS'cerr'
p59
ag49
aS'suppressWarning'
p60
aS'errors'
p61
aS'destinations'
p62
ag41
aS'infos'
p63
aS'categories'
p64
ag47
asg58
g0
(g13
g14
(lp65
g55
atp66
Rp67
(dp68
g11
I00
sg19
I00
sg20
I00
sg21
I1
sbsS'_filename'
p69
S'/cvmfs/cms.cern.ch/slc7_amd64_gcc700/cms/cmssw-patch/CMSSW_10_2_4_patch1/python/FWCore/ParameterSet/Modules.py'
p70
sg62
g0
(g13
g14
(lp71
g56
ag61
ag63
ag54
ag27
ag59
atp72
Rp73
(dp74
g11
I00
sg19
I00
sg20
I00
sg21
I1
sbsg54
g0
(g28
g2
Ntp75
Rp76
(dp77
g11
I00
sg19
I00
sg32
g0
(g33
g2
Ntp78
Rp79
(dp80
g11
I00
sg19
I00
sg37
I01
sg20
I00
sbsg20
I00
sg38
(lp81
g32
asbsg56
g0
(g28
g2
Ntp82
Rp83
(dp84
g11
I00
sg19
I00
sg32
g0
(g33
g2
Ntp85
Rp86
(dp87
g11
I00
sg19
I00
sg37
I01
sg20
I00
sbsg20
I00
sg38
(lp88
g32
asbsg61
g0
(g28
g2
Ntp89
Rp90
(dp91
g11
I00
sg19
I00
sg32
g0
(g33
g2
Ntp92
Rp93
(dp94
g11
I00
sg19
I00
sg37
I01
sg20
I00
sbsg20
I00
sg38
(lp95
g32
asbsg49
g0
(g28
g2
Ntp96
Rp97
(dp98
g11
I00
sg19
I00
sg20
I00
sg57
g0
(g28
g2
Ntp99
Rp100
(dp101
g11
I00
sg19
I00
sS'limit'
p102
g0
(cFWCore.ParameterSet.Types
int32
p103
g2
Ntp104
Rp105
(dp106
g11
I00
sg19
I00
sg37
I0
sg20
I00
sbsg20
I00
sg38
(lp107
g102
asbsS'FwkJob'
p108
g0
(g28
g2
Ntp109
Rp110
(dp111
g11
I00
sg19
I00
sg20
I00
sg102
g0
(g103
g2
Ntp112
Rp113
(dp114
g11
I00
sg19
I00
sg37
I10000000
sg20
I00
sbsg38
(lp115
S'optionalPSet'
p116
ag102
asg116
g0
(g33
g2
Ntp117
Rp118
(dp119
g11
I00
sg19
I00
sg37
I01
sg20
I00
sbsbsg38
(lp120
g57
ag116
ag108
asg116
g0
(g33
g2
Ntp121
Rp122
(dp123
g11
I00
sg19
I00
sg37
I01
sg20
I00
sbsbsg60
g0
(g13
g14
(lp124
tp125
Rp126
(dp127
g11
I00
sg19
I00
sg20
I00
sg21
I1
sbsg63
g0
(g28
g2
Ntp128
Rp129
(dp130
g11
I00
sg19
I00
sg20
I00
sS'Root_NoDictionary'
p131
g0
(g28
g2
Ntp132
Rp133
(dp134
g11
I00
sg19
I00
sg20
I00
sg102
g0
(g103
g2
Ntp135
Rp136
(dp137
g11
I00
sg19
I00
sg37
I0
sg20
I00
sbsg38
(lp138
g116
ag102
asg116
g0
(g33
g2
Ntp139
Rp140
(dp141
g11
I00
sg19
I00
sg37
I01
sg20
I00
sbsbsg38
(lp142
g116
ag131
ag32
asg116
g0
(g33
g2
Ntp143
Rp144
(dp145
g11
I00
sg19
I00
sg37
I01
sg20
I00
sbsg32
g0
(g33
g2
Ntp146
Rp147
(dp148
g11
I00
sg19
I00
sg37
I01
sg20
I00
sbsbsg64
g0
(g13
g14
(lp149
g108
aS'FwkReport'
p150
aS'FwkSummary'
p151
ag131
atp152
Rp153
(dp154
g11
I00
sg19
I00
sg20
I00
sg21
I1
sbsg20
I00
sg55
g0
(g28
g2
Ntp155
Rp156
(dp157
g11
I00
sg19
I00
sg20
I00
sg116
g0
(g33
g2
Ntp158
Rp159
(dp160
g11
I00
sg19
I00
sg37
I01
sg20
I00
sbsg38
(lp161
S'threshold'
p162
aS'output'
p163
ag116
asg162
g0
(cFWCore.ParameterSet.Types
string
p164
g2
Ntp165
Rp166
(dp167
g11
I00
sg19
I00
sg37
S'WARNING'
p168
sg20
I00
sbsg163
g0
(g164
g2
Ntp169
Rp170
(dp171
g11
I00
sg19
I00
sg37
g59
sg20
I00
sbsbsg57
g0
(g28
g2
Ntp172
Rp173
(dp174
g11
I00
sg19
I00
sg20
I00
sg38
(lp175
sbsS'_inProcess'
p176
I01
sg59
g0
(g28
g2
Ntp177
Rp178
(dp179
g11
I00
sg19
I00
sS'noTimeStamps'
p180
g0
(g33
g2
Ntp181
Rp182
(dp183
g11
I00
sg19
I00
sg37
I00
sg20
I00
sbsg150
g0
(g28
g2
Ntp184
Rp185
(dp186
g11
I00
sg19
I00
sg20
I01
sS'reportEvery'
p187
g0
(g103
g2
Ntp188
Rp189
(dp190
g11
I00
sg19
I00
sg37
I1000
sg20
I01
sbsg102
g0
(g103
g2
Ntp191
Rp192
(dp193
g11
I00
sg19
I00
sg37
I10000000
sg20
I00
sbsg38
(lp194
g187
ag116
ag102
asg116
g0
(g33
g2
Ntp195
Rp196
(dp197
g11
I00
sg19
I00
sg37
I01
sg20
I00
sbsbsg20
I00
sg57
g0
(g28
g2
Ntp198
Rp199
(dp200
g11
I00
sg19
I00
sg102
g0
(g103
g2
Ntp201
Rp202
(dp203
g11
I00
sg19
I00
sg37
I10000000
sg20
I00
sbsg20
I00
sg38
(lp204
g102
asbsg131
g0
(g28
g2
Ntp205
Rp206
(dp207
g11
I00
sg19
I00
sg20
I00
sg102
g0
(g103
g2
Ntp208
Rp209
(dp210
g11
I00
sg19
I00
sg37
I0
sg20
I00
sbsg38
(lp211
g116
ag102
asg116
g0
(g33
g2
Ntp212
Rp213
(dp214
g11
I00
sg19
I00
sg37
I01
sg20
I00
sbsbsS'INFO'
p215
g0
(g28
g2
Ntp216
Rp217
(dp218
g11
I00
sg19
I00
sg102
g0
(g103
g2
Ntp219
Rp220
(dp221
g11
I00
sg19
I00
sg37
I0
sg20
I00
sbsg20
I00
sg38
(lp222
g102
asbsg116
g0
(g33
g2
Ntp223
Rp224
(dp225
g11
I00
sg19
I00
sg37
I01
sg20
I00
sbsg108
g0
(g28
g2
Ntp226
Rp227
(dp228
g11
I00
sg19
I00
sg20
I00
sg102
g0
(g103
g2
Ntp229
Rp230
(dp231
g11
I00
sg19
I00
sg37
I0
sg20
I00
sbsg38
(lp232
g116
ag102
asg116
g0
(g33
g2
Ntp233
Rp234
(dp235
g11
I00
sg19
I00
sg37
I01
sg20
I00
sbsbsg151
g0
(g28
g2
Ntp236
Rp237
(dp238
g11
I00
sg19
I00
sg20
I00
sg187
g0
(g103
g2
Ntp239
Rp240
(dp241
g11
I00
sg19
I00
sg37
I1
sg20
I00
sbsg102
g0
(g103
g2
Ntp242
Rp243
(dp244
g11
I00
sg19
I00
sg37
I10000000
sg20
I00
sbsg38
(lp245
g187
ag116
ag102
asg116
g0
(g33
g2
Ntp246
Rp247
(dp248
g11
I00
sg19
I00
sg37
I01
sg20
I00
sbsbsg38
(lp249
g215
ag180
ag150
ag57
ag131
ag162
ag108
ag151
ag116
asg162
g0
(g164
g2
Ntp250
Rp251
(dp252
g11
I00
sg19
I00
sg37
g215
sg20
I00
sbsbsbsS'_Process__sequences'
p253
(dp254
sS'p'
p255
g0
(cFWCore.ParameterSet.SequenceTypes
Path
p256
g2
Ntp257
Rp258
(dp259
g11
I00
sS'_seq'
p260
g0
(cFWCore.ParameterSet.SequenceTypes
_SequenceCollection
p261
g2
Ntp262
Rp263
(dp264
S'_collection'
p265
(lp266
g0
(cFWCore.ParameterSet.Modules
EDAnalyzer
p267
g2
Ntp268
Rp269
(dp270
g38
(lp271
S'PUPPI_AK4Collection'
p272
aS'fatJetCollection'
p273
aS'muonCollection'
p274
asg11
I00
sg20
I00
sg40
I12
sg272
g0
(cFWCore.ParameterSet.Types
InputTag
p275
g2
Ntp276
Rp277
(dp278
g11
I00
sg19
I01
sg20
I00
sS'_InputTag__moduleLabel'
p279
S'slimmedJetsPuppi'
p280
sS'_InputTag__processName'
p281
S''
p282
sS'_InputTag__productInstance'
p283
g282
sbsg69
S'/uscms_data/d3/cannaert/src/thrust/CMSSW_10_2_4_patch1/src/ttbarAnalyzer_cfg.py'
p284
sS'_Labelable__label'
p285
S'ttbarAnalyzer'
p286
sg273
g0
(g275
g2
Ntp287
Rp288
(dp289
g11
I00
sg19
I01
sg20
I00
sg279
S'slimmedJetsAK8'
p290
sg281
g282
sg283
g282
sbsg274
g0
(g275
g2
Ntp291
Rp292
(dp293
g11
I00
sg19
I01
sg20
I00
sg279
S'slimmedMuons'
p294
sg281
g282
sg283
g282
sbsg46
g286
sbasbsg285
g255
sg20
I00
sS'_tasks'
p295
g0
(cFWCore.ParameterSet.OrderedSet
OrderedSet
p296
g2
Ntp297
Rp298
(dp299
S'map'
p300
(dp301
sS'end'
p302
(lp303
Nag303
ag303
asbsbsS'_Process__services'
p304
(dp305
g6
g9
sS'TFileService'
p306
g0
(g7
g2
Ntp307
Rp308
(dp309
g38
(lp310
S'fileName'
p311
asg11
I00
sg176
I01
sg20
I00
sg40
I11
sg69
g70
sg311
g0
(g164
g2
Ntp312
Rp313
(dp314
g11
I00
sg19
I01
sg37
S'QCD_ttbar_test.root'
p315
sg20
I00
sbsg46
g306
sbssS'_Process__source'
p316
g0
(cFWCore.ParameterSet.Modules
Source
p317
g2
Ntp318
Rp319
(dp320
g38
(lp321
S'fileNames'
p322
asg11
I00
sg20
I00
sg40
I193
sg69
g70
sg322
g0
(g13
g14
(lp323
S'/store/mc/RunIIAutumn18MiniAOD/TTToSemiLeptonic_widthx1p3_TuneCP5_13TeV-powheg-pythia8/MINIAODSIM/102X_upgrade2018_realistic_v15-v1/90000/FD15A642-B164-9942-A410-EBE9991827AA.root'
p324
aS'/store/mc/RunIIAutumn18MiniAOD/TTToSemiLeptonic_widthx1p3_TuneCP5_13TeV-powheg-pythia8/MINIAODSIM/102X_upgrade2018_realistic_v15-v1/90000/F68799DB-2630-6F4A-ACC1-BEBE6CAC348D.root'
p325
aS'/store/mc/RunIIAutumn18MiniAOD/TTToSemiLeptonic_widthx1p3_TuneCP5_13TeV-powheg-pythia8/MINIAODSIM/102X_upgrade2018_realistic_v15-v1/90000/F47F9770-3224-A64B-A8A9-F2C2B663434A.root'
p326
aS'/store/mc/RunIIAutumn18MiniAOD/TTToSemiLeptonic_widthx1p3_TuneCP5_13TeV-powheg-pythia8/MINIAODSIM/102X_upgrade2018_realistic_v15-v1/90000/EF2610C9-ECB1-4542-849C-292254CE409B.root'
p327
aS'/store/mc/RunIIAutumn18MiniAOD/TTToSemiLeptonic_widthx1p3_TuneCP5_13TeV-powheg-pythia8/MINIAODSIM/102X_upgrade2018_realistic_v15-v1/90000/EF25CB28-DB09-044F-AA64-758C54CD65E2.root'
p328
aS'/store/mc/RunIIAutumn18MiniAOD/TTToSemiLeptonic_widthx1p3_TuneCP5_13TeV-powheg-pythia8/MINIAODSIM/102X_upgrade2018_realistic_v15-v1/90000/E721F5B7-8928-B14E-AE1C-53E164903DCB.root'
p329
aS'/store/mc/RunIIAutumn18MiniAOD/TTToSemiLeptonic_widthx1p3_TuneCP5_13TeV-powheg-pythia8/MINIAODSIM/102X_upgrade2018_realistic_v15-v1/90000/E17293BF-1AFD-C349-B325-357D462AB2F1.root'
p330
aS'/store/mc/RunIIAutumn18MiniAOD/TTToSemiLeptonic_widthx1p3_TuneCP5_13TeV-powheg-pythia8/MINIAODSIM/102X_upgrade2018_realistic_v15-v1/90000/DEBD99CA-3C11-0746-B5E0-04AC7E150986.root'
p331
aS'/store/mc/RunIIAutumn18MiniAOD/TTToSemiLeptonic_widthx1p3_TuneCP5_13TeV-powheg-pythia8/MINIAODSIM/102X_upgrade2018_realistic_v15-v1/90000/D753B61C-0A05-FE49-B0C5-718FC9D95595.root'
p332
aS'/store/mc/RunIIAutumn18MiniAOD/TTToSemiLeptonic_widthx1p3_TuneCP5_13TeV-powheg-pythia8/MINIAODSIM/102X_upgrade2018_realistic_v15-v1/90000/D2076A6F-9FEE-7E49-B7AD-7B2028E3CB9D.root'
p333
aS'/store/mc/RunIIAutumn18MiniAOD/TTToSemiLeptonic_widthx1p3_TuneCP5_13TeV-powheg-pythia8/MINIAODSIM/102X_upgrade2018_realistic_v15-v1/90000/CB43BCA1-2F16-204A-A88A-B3181EFCED5A.root'
p334
aS'/store/mc/RunIIAutumn18MiniAOD/TTToSemiLeptonic_widthx1p3_TuneCP5_13TeV-powheg-pythia8/MINIAODSIM/102X_upgrade2018_realistic_v15-v1/90000/A27D2C47-AEE0-C24E-BB4B-3B462B7E28A7.root'
p335
aS'/store/mc/RunIIAutumn18MiniAOD/TTToSemiLeptonic_widthx1p3_TuneCP5_13TeV-powheg-pythia8/MINIAODSIM/102X_upgrade2018_realistic_v15-v1/90000/98986DB2-9A1A-8F43-B306-D5BCAAC8C0FE.root'
p336
aS'/store/mc/RunIIAutumn18MiniAOD/TTToSemiLeptonic_widthx1p3_TuneCP5_13TeV-powheg-pythia8/MINIAODSIM/102X_upgrade2018_realistic_v15-v1/90000/97791FB3-CDAF-AE48-8D16-765D29D11161.root'
p337
aS'/store/mc/RunIIAutumn18MiniAOD/TTToSemiLeptonic_widthx1p3_TuneCP5_13TeV-powheg-pythia8/MINIAODSIM/102X_upgrade2018_realistic_v15-v1/90000/96BBB396-2FD1-684C-B852-41237A2A8C6E.root'
p338
aS'/store/mc/RunIIAutumn18MiniAOD/TTToSemiLeptonic_widthx1p3_TuneCP5_13TeV-powheg-pythia8/MINIAODSIM/102X_upgrade2018_realistic_v15-v1/90000/965B9DEB-8D3E-C441-BDCA-C2CBE1CE494D.root'
p339
aS'/store/mc/RunIIAutumn18MiniAOD/TTToSemiLeptonic_widthx1p3_TuneCP5_13TeV-powheg-pythia8/MINIAODSIM/102X_upgrade2018_realistic_v15-v1/90000/8F863A4C-BA5D-B246-A4D1-393870399BE9.root'
p340
aS'/store/mc/RunIIAutumn18MiniAOD/TTToSemiLeptonic_widthx1p3_TuneCP5_13TeV-powheg-pythia8/MINIAODSIM/102X_upgrade2018_realistic_v15-v1/90000/8EF5A092-804F-8A40-BBBA-259BA9864B64.root'
p341
aS'/store/mc/RunIIAutumn18MiniAOD/TTToSemiLeptonic_widthx1p3_TuneCP5_13TeV-powheg-pythia8/MINIAODSIM/102X_upgrade2018_realistic_v15-v1/90000/8CA3E60C-F0D5-8548-AB70-B56351805A8E.root'
p342
aS'/store/mc/RunIIAutumn18MiniAOD/TTToSemiLeptonic_widthx1p3_TuneCP5_13TeV-powheg-pythia8/MINIAODSIM/102X_upgrade2018_realistic_v15-v1/90000/8AB9E328-018B-C549-8FF3-CF21545F9AA7.root'
p343
aS'/store/mc/RunIIAutumn18MiniAOD/TTToSemiLeptonic_widthx1p3_TuneCP5_13TeV-powheg-pythia8/MINIAODSIM/102X_upgrade2018_realistic_v15-v1/90000/855C7EA8-BD62-0042-9443-549C6A45B10A.root'
p344
aS'/store/mc/RunIIAutumn18MiniAOD/TTToSemiLeptonic_widthx1p3_TuneCP5_13TeV-powheg-pythia8/MINIAODSIM/102X_upgrade2018_realistic_v15-v1/90000/81555E54-704B-AB40-ADE3-BA4274B0D7FD.root'
p345
aS'/store/mc/RunIIAutumn18MiniAOD/TTToSemiLeptonic_widthx1p3_TuneCP5_13TeV-powheg-pythia8/MINIAODSIM/102X_upgrade2018_realistic_v15-v1/90000/8066E626-200F-7549-8750-A3CC22192362.root'
p346
aS'/store/mc/RunIIAutumn18MiniAOD/TTToSemiLeptonic_widthx1p3_TuneCP5_13TeV-powheg-pythia8/MINIAODSIM/102X_upgrade2018_realistic_v15-v1/90000/8016EF0E-8ABD-274D-AE32-BD23303CB17F.root'
p347
atp348
Rp349
(dp350
g11
I00
sg19
I00
sg20
I00
sg21
I1
sbsg46
S'PoolSource'
p351
sbsS'StripCPEfromTrackAngleESProducer'
p352
g0
(cFWCore.ParameterSet.Modules
ESProducer
p353
g2
Ntp354
Rp355
(dp356
g38
(lp357
S'ComponentType'
p358
aS'ComponentName'
p359
aS'parameters'
p360
asg11
I00
sg20
I01
sg360
g0
(g28
g2
Ntp361
Rp362
(dp363
g11
I00
sg19
I01
sS'maxChgOneMIP'
p364
g0
(cFWCore.ParameterSet.Types
double
p365
g2
Ntp366
Rp367
(dp368
g11
I00
sg19
I01
sg37
F6000.0
sg20
I00
sbsS'mLC_P2'
p369
g0
(g365
g2
Ntp370
Rp371
(dp372
g11
I00
sg19
I01
sg37
F0.3
sg20
I00
sbsS'mLC_P1'
p373
g0
(g365
g2
Ntp374
Rp375
(dp376
g11
I00
sg19
I01
sg37
F0.618
sg20
I00
sbsS'mLC_P0'
p377
g0
(g365
g2
Ntp378
Rp379
(dp380
g11
I00
sg19
I01
sg37
F-0.326
sg20
I00
sbsS'useLegacyError'
p381
g0
(g33
g2
Ntp382
Rp383
(dp384
g11
I00
sg19
I01
sg37
I00
sg20
I00
sbsS'mTIB_P1'
p385
g0
(g365
g2
Ntp386
Rp387
(dp388
g11
I00
sg19
I01
sg37
F0.202
sg20
I00
sbsS'mTEC_P1'
p389
g0
(g365
g2
Ntp390
Rp391
(dp392
g11
I00
sg19
I01
sg37
F0.471
sg20
I00
sbsS'mTEC_P0'
p393
g0
(g365
g2
Ntp394
Rp395
(dp396
g11
I00
sg19
I01
sg37
F-1.885
sg20
I00
sbsS'mTOB_P0'
p397
g0
(g365
g2
Ntp398
Rp399
(dp400
g11
I00
sg19
I01
sg37
F-1.026
sg20
I00
sbsS'mTOB_P1'
p401
g0
(g365
g2
Ntp402
Rp403
(dp404
g11
I00
sg19
I01
sg37
F0.253
sg20
I00
sbsS'mTIB_P0'
p405
g0
(g365
g2
Ntp406
Rp407
(dp408
g11
I00
sg19
I01
sg37
F-0.742
sg20
I00
sbsg38
(lp409
g364
ag369
ag373
ag377
ag381
ag389
ag393
ag397
ag401
ag405
ag385
aS'mTID_P0'
p410
aS'mTID_P1'
p411
asg410
g0
(g365
g2
Ntp412
Rp413
(dp414
g11
I00
sg19
I01
sg37
F-1.427
sg20
I00
sbsg411
g0
(g365
g2
Ntp415
Rp416
(dp417
g11
I00
sg19
I01
sg37
F0.433
sg20
I00
sbsg20
I00
sbsg40
I4
sg359
g0
(g164
g2
Ntp418
Rp419
(dp420
g11
I00
sg19
I01
sg37
S'StripCPEfromTrackAngle'
p421
sg20
I00
sbsg358
g0
(g164
g2
Ntp422
Rp423
(dp424
g11
I00
sg19
I01
sg37
g421
sg20
I00
sbsg69
S'/cvmfs/cms.cern.ch/slc7_amd64_gcc700/cms/cmssw-patch/CMSSW_10_2_4_patch1/python/RecoLocalTracker/SiStripRecHitConverter/StripCPEfromTrackAngle_cfi.py'
p425
sg285
g352
sg46
S'StripCPEESProducer'
p426
sbsS'_Process__aliases'
p427
(dp428
sS'siStripBackPlaneCorrectionDepESProducer'
p429
g0
(g353
g2
Ntp430
Rp431
(dp432
g38
(lp433
S'LatencyRecord'
p434
aS'BackPlaneCorrectionDeconvMode'
p435
aS'BackPlaneCorrectionPeakMode'
p436
asg11
I00
sg20
I00
sg40
I53
sg69
g70
sg434
g0
(g28
g2
Ntp437
Rp438
(dp439
g11
I00
sg19
I01
sg20
I00
sS'label'
p440
g0
(g164
g2
Ntp441
Rp442
(dp443
g11
I00
sg19
I00
sg37
g282
sg20
I00
sbsS'record'
p444
g0
(g164
g2
Ntp445
Rp446
(dp447
g11
I00
sg19
I01
sg37
S'SiStripLatencyRcd'
p448
sg20
I00
sbsg38
(lp449
g444
ag440
asbsg436
g0
(g28
g2
Ntp450
Rp451
(dp452
g11
I00
sg19
I01
sg20
I00
sg440
g0
(g164
g2
Ntp453
Rp454
(dp455
g11
I00
sg19
I00
sg37
S'peak'
p456
sg20
I00
sbsg444
g0
(g164
g2
Ntp457
Rp458
(dp459
g11
I00
sg19
I01
sg37
S'SiStripBackPlaneCorrectionRcd'
p460
sg20
I00
sbsg38
(lp461
g444
ag440
asbsg285
g429
sg435
g0
(g28
g2
Ntp462
Rp463
(dp464
g11
I00
sg19
I01
sg20
I00
sg440
g0
(g164
g2
Ntp465
Rp466
(dp467
g11
I00
sg19
I00
sg37
S'deconvolution'
p468
sg20
I00
sbsg444
g0
(g164
g2
Ntp469
Rp470
(dp471
g11
I00
sg19
I01
sg37
g460
sg20
I00
sbsg38
(lp472
g444
ag440
asbsg46
S'SiStripBackPlaneCorrectionDepESProducer'
p473
sbsS'HFRecalParameterBlock'
p474
g0
(g28
g2
Ntp475
Rp476
(dp477
g11
I00
sg19
I01
sg20
I00
sS'HFdepthTwoParameterA'
p478
g0
(cFWCore.ParameterSet.Types
vdouble
p479
g14
(lp480
F0.002861
aF0.004168
aF0.0064
aF0.008388
aF0.011601
aF0.014425
aF0.018633
aF0.023232
aF0.028274
aF0.035447
aF0.051579
aF0.086593
atp481
Rp482
(dp483
g11
I00
sg19
I01
sg20
I00
sbsS'HFdepthOneParameterA'
p484
g0
(g479
g14
(lp485
F0.004123
aF0.00602
aF0.008201
aF0.010489
aF0.013379
aF0.016997
aF0.021464
aF0.027371
aF0.034195
aF0.044807
aF0.058939
aF0.125497
atp486
Rp487
(dp488
g11
I00
sg19
I01
sg20
I00
sbsS'HFdepthOneParameterB'
p489
g0
(g479
g14
(lp490
F-4e-06
aF-2e-06
aF0.0
aF4e-06
aF1.5e-05
aF2.6e-05
aF6.3e-05
aF8.4e-05
aF0.00016
aF0.000107
aF0.000425
aF0.000209
atp491
Rp492
(dp493
g11
I00
sg19
I01
sg20
I00
sbsS'HFdepthTwoParameterB'
p494
g0
(g479
g14
(lp495
F-2e-06
aF-0.0
aF-7e-06
aF-6e-06
aF-2e-06
aF1e-06
aF1.9e-05
aF3.1e-05
aF6.7e-05
aF1.2e-05
aF0.000157
aF-3e-06
atp496
Rp497
(dp498
g11
I00
sg19
I01
sg20
I00
sbsg38
(lp499
g484
ag489
ag494
ag478
asg285
g474
sbsS'stripCPEESProducer'
p500
g0
(g353
g2
Ntp501
Rp502
(dp503
g38
(lp504
g358
ag359
ag360
asg11
I00
sg20
I00
sg360
g0
(g28
g2
Ntp505
Rp506
(dp507
g11
I00
sg19
I01
sg20
I00
sg38
(lp508
sbsg40
I53
sg359
g0
(g164
g2
Ntp509
Rp510
(dp511
g11
I00
sg19
I01
sg37
S'stripCPE'
p512
sg20
I00
sbsg358
g0
(g164
g2
Ntp513
Rp514
(dp515
g11
I00
sg19
I01
sg37
S'SimpleStripCPE'
p516
sg20
I00
sbsg69
g70
sg285
g500
sg46
g426
sbsS'EcalLaserCorrectionService'
p517
g0
(g353
g2
Ntp518
Rp519
(dp520
g38
(lp521
sg11
I00
sg20
I00
sg40
I53
sg69
g70
sg285
g517
sg46
g517
sbsS'_Process__psets'
p522
(dp523
S'maxEvents'
p524
g0
(g28
g2
Ntp525
Rp526
(dp527
g11
I00
sg19
I00
sg20
I00
sg38
(lp528
S'input'
p529
asg285
g524
sg529
g0
(g103
g2
Ntp530
Rp531
(dp532
g11
I00
sg19
I00
sg37
I20000
sg20
I00
sbsbsg474
g476
sS'options'
p533
g0
(g28
g2
Ntp534
Rp535
(dp536
g11
I00
sg19
I00
sg20
I00
sS'wantSummary'
p537
g0
(g33
g2
Ntp538
Rp539
(dp540
g11
I00
sg19
I00
sg37
I01
sg20
I00
sbsg38
(lp541
g537
asg285
g533
sbssS'hcal_db_producer'
p542
g0
(g353
g2
Ntp543
Rp544
(dp545
g38
(lp546
S'file'
p547
aS'dump'
p548
asg11
I00
sg20
I00
sg548
g0
(g13
g14
(lp549
g282
atp550
Rp551
(dp552
g11
I00
sg19
I00
sg20
I00
sg21
I1
sbsg40
I53
sg69
g70
sg547
g0
(g164
g2
Ntp553
Rp554
(dp555
g11
I00
sg19
I00
sg37
g282
sg20
I00
sbsg285
g542
sg46
S'HcalDbProducer'
p556
sbsg306
g308
sS'_Process__essources'
p557
(dp558
S'HepPDTESSource'
p559
g0
(cFWCore.ParameterSet.Modules
ESSource
p560
g2
Ntp561
Rp562
(dp563
g38
(lp564
S'pdtFileName'
p565
asg11
I00
sg565
g0
(cFWCore.ParameterSet.Types
FileInPath
p566
g2
Ntp567
Rp568
(dp569
g11
I00
sg19
I01
sg37
S'SimGeneral/HepPDTESSource/data/pythiaparticle.tbl'
p570
sg20
I00
sbsg20
I00
sg40
I4
sg69
S'/cvmfs/cms.cern.ch/slc7_amd64_gcc700/cms/cmssw-patch/CMSSW_10_2_4_patch1/python/SimGeneral/HepPDTESSource/pythiapdt_cfi.py'
p571
sg285
g559
sg46
g559
sbsS'es_hardcode'
p572
g0
(g560
g2
Ntp573
Rp574
(dp575
g11
I00
sg40
I172
sS'useHEUpgrade'
p576
g0
(g33
g2
Ntp577
Rp578
(dp579
g11
I00
sg19
I01
sg37
I00
sg20
I00
sbsS'HBRecalibration'
p580
g0
(g33
g2
Ntp581
Rp582
(dp583
g11
I00
sg19
I01
sg37
I00
sg20
I00
sbsS'useLayer0Weight'
p584
g0
(g33
g2
Ntp585
Rp586
(dp587
g11
I00
sg19
I01
sg37
I00
sg20
I00
sbsS'HEmeanenergies'
p588
g0
(g566
g2
Ntp589
Rp590
(dp591
g11
I00
sg19
I01
sg37
S'CalibCalorimetry/HcalPlugins/data/meanenergiesHE.txt'
p592
sg20
I00
sbsg474
g476
sS'heUpgrade'
p593
g0
(g28
g2
Ntp594
Rp595
(dp596
g11
I00
sg19
I01
sS'qieType'
p597
g0
(g103
g2
Ntp598
Rp599
(dp600
g11
I00
sg19
I01
sg37
I2
sg20
I00
sbsg20
I00
sS'pedestalWidth'
p601
g0
(g365
g2
Ntp602
Rp603
(dp604
g11
I00
sg19
I01
sg37
F1.5
sg20
I00
sbsS'recoShape'
p605
g0
(g103
g2
Ntp606
Rp607
(dp608
g11
I00
sg19
I01
sg37
I206
sg20
I00
sbsS'zsThreshold'
p609
g0
(g103
g2
Ntp610
Rp611
(dp612
g11
I00
sg19
I01
sg37
I16
sg20
I00
sbsS'darkCurrent'
p613
g0
(g479
g14
(lp614
F0.01
aF0.015
atp615
Rp616
(dp617
g11
I00
sg19
I01
sg20
I00
sbsS'qieOffset'
p618
g0
(g479
g14
(lp619
F0.0
aF0.0
aF0.0
aF0.0
atp620
Rp621
(dp622
g11
I00
sg19
I01
sg20
I00
sbsS'qieSlope'
p623
g0
(g479
g14
(lp624
F0.05376
aF0.05376
aF0.05376
aF0.05376
atp625
Rp626
(dp627
g11
I00
sg19
I01
sg20
I00
sbsS'radiationDamage'
p628
g0
(g28
g2
Ntp629
Rp630
(dp631
g11
I00
sg19
I01
sS'temperatureNew'
p632
g0
(g365
g2
Ntp633
Rp634
(dp635
g11
I00
sg19
I01
sg37
I5
sg20
I00
sbsg20
I00
sS'depVsNeutrons'
p636
g0
(g479
g14
(lp637
F5.543e-10
aF8.012e-10
atp638
Rp639
(dp640
g11
I00
sg19
I01
sg20
I00
sbsS'temperatureBase'
p641
g0
(g365
g2
Ntp642
Rp643
(dp644
g11
I00
sg19
I01
sg37
I20
sg20
I00
sbsS'depVsTemp'
p645
g0
(g365
g2
Ntp646
Rp647
(dp648
g11
I00
sg19
I01
sg37
F0.0631
sg20
I00
sbsS'intlumiOffset'
p649
g0
(g365
g2
Ntp650
Rp651
(dp652
g11
I00
sg19
I01
sg37
I75
sg20
I00
sbsg38
(lp653
g632
ag636
ag641
ag645
ag649
aS'intlumiToNeutrons'
p654
asg654
g0
(g365
g2
Ntp655
Rp656
(dp657
g11
I00
sg19
I01
sg37
F29200000.0
sg20
I00
sbsbsS'doRadiationDamage'
p658
g0
(g33
g2
Ntp659
Rp660
(dp661
g11
I00
sg19
I01
sg37
I01
sg20
I00
sbsg38
(lp662
g597
ag601
ag605
ag609
aS'photoelectronsToAnalog'
p663
ag618
ag623
ag628
ag658
ag613
aS'pedestal'
p664
aS'mcShape'
p665
aS'gainWidth'
p666
aS'gain'
p667
asg663
g0
(g365
g2
Ntp668
Rp669
(dp670
g11
I00
sg19
I01
sg37
F40.0
sg20
I00
sbsg664
g0
(g365
g2
Ntp671
Rp672
(dp673
g11
I00
sg19
I01
sg37
F17.3
sg20
I00
sbsg665
g0
(g103
g2
Ntp674
Rp675
(dp676
g11
I00
sg19
I01
sg37
I206
sg20
I00
sbsg666
g0
(g479
g14
(lp677
I0
atp678
Rp679
(dp680
g11
I00
sg19
I01
sg20
I00
sbsg667
g0
(g479
g14
(lp681
F0.0006252
atp682
Rp683
(dp684
g11
I00
sg19
I01
sg20
I00
sbsbsg38
(lp685
S'toGet'
p686
ag580
ag584
ag588
ag474
ag593
aS'useIeta18depth1'
p687
aS'killHE'
p688
aS'useHBUpgrade'
p689
aS'hbUpgrade'
p690
aS'testHEPlan1'
p691
aS'iLumi'
p692
aS'testHFQIE10'
p693
aS'HBmeanenergies'
p694
ag576
aS'GainWidthsForTrigPrims'
p695
aS'HBreCalibCutoff'
p696
aS'HFRecalibration'
p697
aS'ho'
p698
aS'hb'
p699
aS'hf'
p700
aS'he'
p701
aS'HERecalibration'
p702
aS'useHFUpgrade'
p703
aS'HEreCalibCutoff'
p704
aS'SiPMCharacteristics'
p705
aS'useHOUpgrade'
p706
aS'hfUpgrade'
p707
asg69
S'/cvmfs/cms.cern.ch/slc7_amd64_gcc700/cms/cmssw-patch/CMSSW_10_2_4_patch1/python/CalibCalorimetry/HcalPlugins/Hcal_Conditions_forGlobalTag_cff.py'
p708
sg687
g0
(g33
g2
Ntp709
Rp710
(dp711
g11
I00
sg19
I01
sg37
I01
sg20
I00
sbsg688
g0
(g33
g2
Ntp712
Rp713
(dp714
g11
I00
sg19
I01
sg37
I00
sg20
I00
sbsg689
g0
(g33
g2
Ntp715
Rp716
(dp717
g11
I00
sg19
I01
sg37
I00
sg20
I00
sbsg690
g0
(g28
g2
Ntp718
Rp719
(dp720
g11
I00
sg19
I01
sg597
g0
(g103
g2
Ntp721
Rp722
(dp723
g11
I00
sg19
I01
sg37
I2
sg20
I00
sbsg20
I00
sg601
g0
(g365
g2
Ntp724
Rp725
(dp726
g11
I00
sg19
I01
sg37
F1.5
sg20
I00
sbsg605
g0
(g103
g2
Ntp727
Rp728
(dp729
g11
I00
sg19
I01
sg37
I206
sg20
I00
sbsg609
g0
(g103
g2
Ntp730
Rp731
(dp732
g11
I00
sg19
I01
sg37
I16
sg20
I00
sbsg613
g0
(g479
g14
(lp733
F0.01
aF0.015
atp734
Rp735
(dp736
g11
I00
sg19
I01
sg20
I00
sbsg618
g0
(g479
g14
(lp737
F0.0
aF0.0
aF0.0
aF0.0
atp738
Rp739
(dp740
g11
I00
sg19
I01
sg20
I00
sbsg623
g0
(g479
g14
(lp741
F0.05376
aF0.05376
aF0.05376
aF0.05376
atp742
Rp743
(dp744
g11
I00
sg19
I01
sg20
I00
sbsg628
g0
(g28
g2
Ntp745
Rp746
(dp747
g11
I00
sg19
I01
sg632
g0
(g365
g2
Ntp748
Rp749
(dp750
g11
I00
sg19
I01
sg37
I-5
sg20
I00
sbsg20
I00
sg636
g0
(g479
g14
(lp751
F5.543e-10
aF8.012e-10
atp752
Rp753
(dp754
g11
I00
sg19
I01
sg20
I00
sbsg641
g0
(g365
g2
Ntp755
Rp756
(dp757
g11
I00
sg19
I01
sg37
I20
sg20
I00
sbsg645
g0
(g365
g2
Ntp758
Rp759
(dp760
g11
I00
sg19
I01
sg37
F0.0631
sg20
I00
sbsg649
g0
(g365
g2
Ntp761
Rp762
(dp763
g11
I00
sg19
I01
sg37
I150
sg20
I00
sbsg38
(lp764
g632
ag636
ag641
ag645
ag649
ag654
asg654
g0
(g365
g2
Ntp765
Rp766
(dp767
g11
I00
sg19
I01
sg37
F367000000.0
sg20
I00
sbsbsg658
g0
(g33
g2
Ntp768
Rp769
(dp770
g11
I00
sg19
I01
sg37
I01
sg20
I00
sbsg38
(lp771
g597
ag601
ag605
ag609
ag663
ag618
ag623
ag628
ag658
ag613
ag664
ag665
ag666
ag667
asg663
g0
(g365
g2
Ntp772
Rp773
(dp774
g11
I00
sg19
I01
sg37
F40.0
sg20
I00
sbsg664
g0
(g365
g2
Ntp775
Rp776
(dp777
g11
I00
sg19
I01
sg37
F17.3
sg20
I00
sbsg665
g0
(g103
g2
Ntp778
Rp779
(dp780
g11
I00
sg19
I01
sg37
I206
sg20
I00
sbsg666
g0
(g479
g14
(lp781
I0
atp782
Rp783
(dp784
g11
I00
sg19
I01
sg20
I00
sbsg667
g0
(g479
g14
(lp785
F0.0006252
atp786
Rp787
(dp788
g11
I00
sg19
I01
sg20
I00
sbsbsg46
S'HcalHardcodeCalibrations'
p789
sg691
g0
(g33
g2
Ntp790
Rp791
(dp792
g11
I00
sg19
I01
sg37
I00
sg20
I00
sbsg692
g0
(g365
g2
Ntp793
Rp794
(dp795
g11
I00
sg19
I01
sg37
F-1.0
sg20
I00
sbsg693
g0
(g33
g2
Ntp796
Rp797
(dp798
g11
I00
sg19
I01
sg37
I00
sg20
I00
sbsg694
g0
(g566
g2
Ntp799
Rp800
(dp801
g11
I00
sg19
I01
sg37
S'CalibCalorimetry/HcalPlugins/data/meanenergiesHB.txt'
p802
sg20
I00
sbsg686
g0
(g13
g14
(lp803
S'GainWidths'
p804
atp805
Rp806
(dp807
g11
I00
sg19
I00
sg20
I00
sg21
I1
sbsg695
g0
(g33
g2
Ntp808
Rp809
(dp810
g11
I00
sg19
I01
sg37
I00
sg20
I00
sbsg696
g0
(g365
g2
Ntp811
Rp812
(dp813
g11
I00
sg19
I01
sg37
F20.0
sg20
I00
sbsg697
g0
(g33
g2
Ntp814
Rp815
(dp816
g11
I00
sg19
I01
sg37
I00
sg20
I00
sbsg698
g0
(g28
g2
Ntp817
Rp818
(dp819
g11
I00
sg19
I01
sg597
g0
(g103
g2
Ntp820
Rp821
(dp822
g11
I00
sg19
I01
sg37
I0
sg20
I00
sbsg20
I00
sg601
g0
(g365
g2
Ntp823
Rp824
(dp825
g11
I00
sg19
I01
sg37
F0.6285
sg20
I00
sbsg605
g0
(g103
g2
Ntp826
Rp827
(dp828
g11
I00
sg19
I01
sg37
I201
sg20
I00
sbsg609
g0
(g103
g2
Ntp829
Rp830
(dp831
g11
I00
sg19
I01
sg37
I24
sg20
I00
sbsg613
g0
(g479
g14
(lp832
F0.0
atp833
Rp834
(dp835
g11
I00
sg19
I01
sg20
I00
sbsg618
g0
(g479
g14
(lp836
F-0.44
aF1.4
aF7.1
aF38.5
atp837
Rp838
(dp839
g11
I00
sg19
I01
sg20
I00
sbsg623
g0
(g479
g14
(lp840
F0.907
aF0.915
aF0.92
aF0.921
atp841
Rp842
(dp843
g11
I00
sg19
I01
sg20
I00
sbsg667
g0
(g479
g14
(lp844
F0.006
aF0.0087
atp845
Rp846
(dp847
g11
I00
sg19
I01
sg20
I00
sbsg658
g0
(g33
g2
Ntp848
Rp849
(dp850
g11
I00
sg19
I01
sg37
I00
sg20
I00
sbsg38
(lp851
g597
ag601
ag605
ag609
ag663
ag618
ag623
ag667
ag658
ag613
ag664
ag665
ag666
asg663
g0
(g365
g2
Ntp852
Rp853
(dp854
g11
I00
sg19
I01
sg37
F4.0
sg20
I00
sbsg664
g0
(g365
g2
Ntp855
Rp856
(dp857
g11
I00
sg19
I01
sg37
F12.06
sg20
I00
sbsg665
g0
(g103
g2
Ntp858
Rp859
(dp860
g11
I00
sg19
I01
sg37
I201
sg20
I00
sbsg666
g0
(g479
g14
(lp861
F0.0
aF0.0
atp862
Rp863
(dp864
g11
I00
sg19
I01
sg20
I00
sbsbsg699
g0
(g28
g2
Ntp865
Rp866
(dp867
g11
I00
sg19
I01
sg597
g0
(g103
g2
Ntp868
Rp869
(dp870
g11
I00
sg19
I01
sg37
I0
sg20
I00
sbsg20
I00
sg601
g0
(g365
g2
Ntp871
Rp872
(dp873
g11
I00
sg19
I01
sg37
F0.809
sg20
I00
sbsg605
g0
(g103
g2
Ntp874
Rp875
(dp876
g11
I00
sg19
I01
sg37
I105
sg20
I00
sbsg609
g0
(g103
g2
Ntp877
Rp878
(dp879
g11
I00
sg19
I01
sg37
I8
sg20
I00
sbsg613
g0
(g479
g14
(lp880
F0.0
atp881
Rp882
(dp883
g11
I00
sg19
I01
sg20
I00
sbsg618
g0
(g479
g14
(lp884
F-0.49
aF1.8
aF7.2
aF37.9
atp885
Rp886
(dp887
g11
I00
sg19
I01
sg20
I00
sbsg623
g0
(g479
g14
(lp888
F0.912
aF0.917
aF0.922
aF0.923
atp889
Rp890
(dp891
g11
I00
sg19
I01
sg20
I00
sbsg667
g0
(g479
g14
(lp892
F0.19
atp893
Rp894
(dp895
g11
I00
sg19
I01
sg20
I00
sbsg658
g0
(g33
g2
Ntp896
Rp897
(dp898
g11
I00
sg19
I01
sg37
I00
sg20
I00
sbsg38
(lp899
g597
ag601
ag605
ag609
ag663
ag618
ag623
ag667
ag658
ag613
ag664
ag665
ag666
asg663
g0
(g365
g2
Ntp900
Rp901
(dp902
g11
I00
sg19
I01
sg37
F0.3305
sg20
I00
sbsg664
g0
(g365
g2
Ntp903
Rp904
(dp905
g11
I00
sg19
I01
sg37
F3.285
sg20
I00
sbsg665
g0
(g103
g2
Ntp906
Rp907
(dp908
g11
I00
sg19
I01
sg37
I125
sg20
I00
sbsg666
g0
(g479
g14
(lp909
F0.0
atp910
Rp911
(dp912
g11
I00
sg19
I01
sg20
I00
sbsbsg700
g0
(g28
g2
Ntp913
Rp914
(dp915
g11
I00
sg19
I01
sg597
g0
(g103
g2
Ntp916
Rp917
(dp918
g11
I00
sg19
I01
sg37
I0
sg20
I00
sbsg20
I00
sg601
g0
(g365
g2
Ntp919
Rp920
(dp921
g11
I00
sg19
I01
sg37
F2.516
sg20
I00
sbsg605
g0
(g103
g2
Ntp922
Rp923
(dp924
g11
I00
sg19
I01
sg37
I301
sg20
I00
sbsg609
g0
(g103
g2
Ntp925
Rp926
(dp927
g11
I00
sg19
I01
sg37
I-9999
sg20
I00
sbsg613
g0
(g479
g14
(lp928
F0.0
atp929
Rp930
(dp931
g11
I00
sg19
I01
sg20
I00
sbsg618
g0
(g479
g14
(lp932
F-0.87
aF1.4
aF7.8
aF-29.6
atp933
Rp934
(dp935
g11
I00
sg19
I01
sg20
I00
sbsg623
g0
(g479
g14
(lp936
F0.359
aF0.358
aF0.36
aF0.367
atp937
Rp938
(dp939
g11
I00
sg19
I01
sg20
I00
sbsg667
g0
(g479
g14
(lp940
F0.14
aF0.135
atp941
Rp942
(dp943
g11
I00
sg19
I01
sg20
I00
sbsg658
g0
(g33
g2
Ntp944
Rp945
(dp946
g11
I00
sg19
I01
sg37
I00
sg20
I00
sbsg38
(lp947
g597
ag601
ag605
ag609
ag663
ag618
ag623
ag667
ag658
ag613
ag664
ag665
ag666
asg663
g0
(g365
g2
Ntp948
Rp949
(dp950
g11
I00
sg19
I01
sg37
F0.0
sg20
I00
sbsg664
g0
(g365
g2
Ntp951
Rp952
(dp953
g11
I00
sg19
I01
sg37
F9.354
sg20
I00
sbsg665
g0
(g103
g2
Ntp954
Rp955
(dp956
g11
I00
sg19
I01
sg37
I301
sg20
I00
sbsg666
g0
(g479
g14
(lp957
F0.0
aF0.0
atp958
Rp959
(dp960
g11
I00
sg19
I01
sg20
I00
sbsbsg701
g0
(g28
g2
Ntp961
Rp962
(dp963
g11
I00
sg19
I01
sg597
g0
(g103
g2
Ntp964
Rp965
(dp966
g11
I00
sg19
I01
sg37
I0
sg20
I00
sbsg20
I00
sg601
g0
(g365
g2
Ntp967
Rp968
(dp969
g11
I00
sg19
I01
sg37
F0.9698
sg20
I00
sbsg605
g0
(g103
g2
Ntp970
Rp971
(dp972
g11
I00
sg19
I01
sg37
I105
sg20
I00
sbsg609
g0
(g103
g2
Ntp973
Rp974
(dp975
g11
I00
sg19
I01
sg37
I9
sg20
I00
sbsg613
g0
(g479
g14
(lp976
F0.0
atp977
Rp978
(dp979
g11
I00
sg19
I01
sg20
I00
sbsg618
g0
(g479
g14
(lp980
F-0.38
aF2.0
aF7.6
aF39.6
atp981
Rp982
(dp983
g11
I00
sg19
I01
sg20
I00
sbsg623
g0
(g479
g14
(lp984
F0.912
aF0.916
aF0.92
aF0.922
atp985
Rp986
(dp987
g11
I00
sg19
I01
sg20
I00
sbsg667
g0
(g479
g14
(lp988
F0.23
atp989
Rp990
(dp991
g11
I00
sg19
I01
sg20
I00
sbsg658
g0
(g33
g2
Ntp992
Rp993
(dp994
g11
I00
sg19
I01
sg37
I00
sg20
I00
sbsg38
(lp995
g597
ag601
ag605
ag609
ag663
ag618
ag623
ag667
ag658
ag613
ag664
ag665
ag666
asg663
g0
(g365
g2
Ntp996
Rp997
(dp998
g11
I00
sg19
I01
sg37
F0.3305
sg20
I00
sbsg664
g0
(g365
g2
Ntp999
Rp1000
(dp1001
g11
I00
sg19
I01
sg37
F3.163
sg20
I00
sbsg665
g0
(g103
g2
Ntp1002
Rp1003
(dp1004
g11
I00
sg19
I01
sg37
I125
sg20
I00
sbsg666
g0
(g479
g14
(lp1005
I0
atp1006
Rp1007
(dp1008
g11
I00
sg19
I01
sg20
I00
sbsbsg20
I00
sg702
g0
(g33
g2
Ntp1009
Rp1010
(dp1011
g11
I00
sg19
I01
sg37
I00
sg20
I00
sbsg703
g0
(g33
g2
Ntp1012
Rp1013
(dp1014
g11
I00
sg19
I01
sg37
I00
sg20
I00
sbsg704
g0
(g365
g2
Ntp1015
Rp1016
(dp1017
g11
I00
sg19
I01
sg37
F20.0
sg20
I00
sbsg705
g0
(cFWCore.ParameterSet.Types
VPSet
p1018
g14
(lp1019
g0
(g28
g2
Ntp1020
Rp1021
(dp1022
g11
I00
sg19
I01
sg20
I00
sS'crosstalk'
p1023
g0
(g365
g2
Ntp1024
Rp1025
(dp1026
g11
I00
sg19
I01
sg37
F0.0
sg20
I00
sbsS'nonlin1'
p1027
g0
(g365
g2
Ntp1028
Rp1029
(dp1030
g11
I00
sg19
I01
sg37
F1.0
sg20
I00
sbsS'nonlin3'
p1031
g0
(g365
g2
Ntp1032
Rp1033
(dp1034
g11
I00
sg19
I01
sg37
F0.0
sg20
I00
sbsS'nonlin2'
p1035
g0
(g365
g2
Ntp1036
Rp1037
(dp1038
g11
I00
sg19
I01
sg37
F0.0
sg20
I00
sbsg38
(lp1039
g1027
ag1031
ag1035
aS'pixels'
p1040
ag1023
asg1040
g0
(g103
g2
Ntp1041
Rp1042
(dp1043
g11
I00
sg19
I01
sg37
I36000
sg20
I00
sbsbag0
(g28
g2
Ntp1044
Rp1045
(dp1046
g11
I00
sg19
I01
sg20
I00
sg1023
g0
(g365
g2
Ntp1047
Rp1048
(dp1049
g11
I00
sg19
I01
sg37
F0.0
sg20
I00
sbsg1027
g0
(g365
g2
Ntp1050
Rp1051
(dp1052
g11
I00
sg19
I01
sg37
F1.0
sg20
I00
sbsg1031
g0
(g365
g2
Ntp1053
Rp1054
(dp1055
g11
I00
sg19
I01
sg37
F0.0
sg20
I00
sbsg1035
g0
(g365
g2
Ntp1056
Rp1057
(dp1058
g11
I00
sg19
I01
sg37
F0.0
sg20
I00
sbsg38
(lp1059
g1027
ag1031
ag1035
ag1040
ag1023
asg1040
g0
(g103
g2
Ntp1060
Rp1061
(dp1062
g11
I00
sg19
I01
sg37
I2500
sg20
I00
sbsbag0
(g28
g2
Ntp1063
Rp1064
(dp1065
g11
I00
sg19
I01
sg20
I00
sg1023
g0
(g365
g2
Ntp1066
Rp1067
(dp1068
g11
I00
sg19
I01
sg37
F0.17
sg20
I00
sbsg1027
g0
(g365
g2
Ntp1069
Rp1070
(dp1071
g11
I00
sg19
I01
sg37
F1.00985
sg20
I00
sbsg1031
g0
(g365
g2
Ntp1072
Rp1073
(dp1074
g11
I00
sg19
I01
sg37
F2.86282e-10
sg20
I00
sbsg1035
g0
(g365
g2
Ntp1075
Rp1076
(dp1077
g11
I00
sg19
I01
sg37
F7.84089e-06
sg20
I00
sbsg38
(lp1078
g1027
ag1031
ag1035
ag1040
ag1023
asg1040
g0
(g103
g2
Ntp1079
Rp1080
(dp1081
g11
I00
sg19
I01
sg37
I27370
sg20
I00
sbsbag0
(g28
g2
Ntp1082
Rp1083
(dp1084
g11
I00
sg19
I01
sg20
I00
sg1023
g0
(g365
g2
Ntp1085
Rp1086
(dp1087
g11
I00
sg19
I01
sg37
F0.196
sg20
I00
sbsg1027
g0
(g365
g2
Ntp1088
Rp1089
(dp1090
g11
I00
sg19
I01
sg37
F1.00546
sg20
I00
sbsg1031
g0
(g365
g2
Ntp1091
Rp1092
(dp1093
g11
I00
sg19
I01
sg37
F1.27011e-10
sg20
I00
sbsg1035
g0
(g365
g2
Ntp1094
Rp1095
(dp1096
g11
I00
sg19
I01
sg37
F6.40239e-06
sg20
I00
sbsg38
(lp1097
g1027
ag1031
ag1035
ag1040
ag1023
asg1040
g0
(g103
g2
Ntp1098
Rp1099
(dp1100
g11
I00
sg19
I01
sg37
I38018
sg20
I00
sbsbag0
(g28
g2
Ntp1101
Rp1102
(dp1103
g11
I00
sg19
I01
sg20
I00
sg1023
g0
(g365
g2
Ntp1104
Rp1105
(dp1106
g11
I00
sg19
I01
sg37
F0.17
sg20
I00
sbsg1027
g0
(g365
g2
Ntp1107
Rp1108
(dp1109
g11
I00
sg19
I01
sg37
F1.00985
sg20
I00
sbsg1031
g0
(g365
g2
Ntp1110
Rp1111
(dp1112
g11
I00
sg19
I01
sg37
F2.86282e-10
sg20
I00
sbsg1035
g0
(g365
g2
Ntp1113
Rp1114
(dp1115
g11
I00
sg19
I01
sg37
F7.84089e-06
sg20
I00
sbsg38
(lp1116
g1027
ag1031
ag1035
ag1040
ag1023
asg1040
g0
(g103
g2
Ntp1117
Rp1118
(dp1119
g11
I00
sg19
I01
sg37
I27370
sg20
I00
sbsbag0
(g28
g2
Ntp1120
Rp1121
(dp1122
g11
I00
sg19
I01
sg20
I00
sg1023
g0
(g365
g2
Ntp1123
Rp1124
(dp1125
g11
I00
sg19
I01
sg37
F0.196
sg20
I00
sbsg1027
g0
(g365
g2
Ntp1126
Rp1127
(dp1128
g11
I00
sg19
I01
sg37
F1.00546
sg20
I00
sbsg1031
g0
(g365
g2
Ntp1129
Rp1130
(dp1131
g11
I00
sg19
I01
sg37
F1.27011e-10
sg20
I00
sbsg1035
g0
(g365
g2
Ntp1132
Rp1133
(dp1134
g11
I00
sg19
I01
sg37
F6.40239e-06
sg20
I00
sbsg38
(lp1135
g1027
ag1031
ag1035
ag1040
ag1023
asg1040
g0
(g103
g2
Ntp1136
Rp1137
(dp1138
g11
I00
sg19
I01
sg37
I38018
sg20
I00
sbsbag0
(g28
g2
Ntp1139
Rp1140
(dp1141
g11
I00
sg19
I01
sg20
I00
sg1023
g0
(g365
g2
Ntp1142
Rp1143
(dp1144
g11
I00
sg19
I01
sg37
F0.0
sg20
I00
sbsg1027
g0
(g365
g2
Ntp1145
Rp1146
(dp1147
g11
I00
sg19
I01
sg37
F1.0
sg20
I00
sbsg1031
g0
(g365
g2
Ntp1148
Rp1149
(dp1150
g11
I00
sg19
I01
sg37
F0.0
sg20
I00
sbsg1035
g0
(g365
g2
Ntp1151
Rp1152
(dp1153
g11
I00
sg19
I01
sg37
F0.0
sg20
I00
sbsg38
(lp1154
g1027
ag1031
ag1035
ag1040
ag1023
asg1040
g0
(g103
g2
Ntp1155
Rp1156
(dp1157
g11
I00
sg19
I01
sg37
I0
sg20
I00
sbsbatp1158
Rp1159
(dp1160
g11
I00
sg19
I01
sg20
I00
sg21
I1
sbsg285
g572
sg706
g0
(g33
g2
Ntp1161
Rp1162
(dp1163
g11
I00
sg19
I01
sg37
I01
sg20
I00
sbsg707
g0
(g28
g2
Ntp1164
Rp1165
(dp1166
g11
I00
sg19
I01
sg597
g0
(g103
g2
Ntp1167
Rp1168
(dp1169
g11
I00
sg19
I01
sg37
I1
sg20
I00
sbsg20
I00
sg601
g0
(g365
g2
Ntp1170
Rp1171
(dp1172
g11
I00
sg19
I01
sg37
F3.33
sg20
I00
sbsg605
g0
(g103
g2
Ntp1173
Rp1174
(dp1175
g11
I00
sg19
I01
sg37
I301
sg20
I00
sbsg609
g0
(g103
g2
Ntp1176
Rp1177
(dp1178
g11
I00
sg19
I01
sg37
I-9999
sg20
I00
sbsg613
g0
(g479
g14
(lp1179
F0.0
atp1180
Rp1181
(dp1182
g11
I00
sg19
I01
sg20
I00
sbsg618
g0
(g479
g14
(lp1183
F0.0697
aF-0.7405
aF12.38
aF-671.9
atp1184
Rp1185
(dp1186
g11
I00
sg19
I01
sg20
I00
sbsg623
g0
(g479
g14
(lp1187
F0.297
aF0.298
aF0.298
aF0.313
atp1188
Rp1189
(dp1190
g11
I00
sg19
I01
sg20
I00
sbsg667
g0
(g479
g14
(lp1191
F0.14
aF0.135
atp1192
Rp1193
(dp1194
g11
I00
sg19
I01
sg20
I00
sbsg658
g0
(g33
g2
Ntp1195
Rp1196
(dp1197
g11
I00
sg19
I01
sg37
I00
sg20
I00
sbsg38
(lp1198
g597
ag601
ag605
ag609
ag663
ag618
ag623
ag667
ag658
ag613
ag664
ag665
ag666
asg663
g0
(g365
g2
Ntp1199
Rp1200
(dp1201
g11
I00
sg19
I01
sg37
F0.0
sg20
I00
sbsg664
g0
(g365
g2
Ntp1202
Rp1203
(dp1204
g11
I00
sg19
I01
sg37
F13.33
sg20
I00
sbsg665
g0
(g103
g2
Ntp1205
Rp1206
(dp1207
g11
I00
sg19
I01
sg37
I301
sg20
I00
sbsg666
g0
(g479
g14
(lp1208
F0.0
aF0.0
atp1209
Rp1210
(dp1211
g11
I00
sg19
I01
sg20
I00
sbsbsbsS'GlobalTag'
p1212
g0
(g560
g2
Ntp1213
Rp1214
(dp1215
g38
(lp1216
S'DBParameters'
p1217
aS'connect'
p1218
aS'globaltag'
p1219
aS'RefreshEachRun'
p1220
aS'pfnPrefix'
p1221
aS'snapshotTime'
p1222
ag686
aS'pfnPostfix'
p1223
aS'RefreshAlways'
p1224
aS'ReconnectEachRun'
p1225
aS'RefreshOpenIOVs'
p1226
aS'DumpStat'
p1227
asg11
I00
sg69
S'/cvmfs/cms.cern.ch/slc7_amd64_gcc700/cms/cmssw-patch/CMSSW_10_2_4_patch1/python/CondCore/ESSources/CondDBESSource_cfi.py'
p1228
sg20
I01
sg1219
g0
(g164
g2
Ntp1229
Rp1230
(dp1231
g11
I00
sg19
I01
sg37
S'92X_dataRun2_Prompt_v4'
p1232
sg20
I01
sbsg1220
g0
(g33
g2
Ntp1233
Rp1234
(dp1235
g11
I00
sg19
I00
sg37
I00
sg20
I00
sbsg1221
g0
(g164
g2
Ntp1236
Rp1237
(dp1238
g11
I00
sg19
I00
sg37
g282
sg20
I00
sbsg1222
g0
(g164
g2
Ntp1239
Rp1240
(dp1241
g11
I00
sg19
I01
sg37
g282
sg20
I00
sbsg686
g0
(g1018
g14
(lp1242
tp1243
Rp1244
(dp1245
g11
I00
sg19
I01
sg20
I00
sg21
I1
sbsg1223
g0
(g164
g2
Ntp1246
Rp1247
(dp1248
g11
I00
sg19
I00
sg37
g282
sg20
I00
sbsg1217
g0
(g28
g2
Ntp1249
Rp1250
(dp1251
g11
I00
sg19
I01
sS'authenticationPath'
p1252
g0
(g164
g2
Ntp1253
Rp1254
(dp1255
g11
I00
sg19
I00
sg37
g282
sg20
I00
sbsg20
I00
sS'messageLevel'
p1256
g0
(g103
g2
Ntp1257
Rp1258
(dp1259
g11
I00
sg19
I00
sg37
I0
sg20
I00
sbsg38
(lp1260
g1256
aS'security'
p1261
aS'authenticationSystem'
p1262
ag1252
asg1261
g0
(g164
g2
Ntp1263
Rp1264
(dp1265
g11
I00
sg19
I00
sg37
g282
sg20
I00
sbsg1262
g0
(g103
g2
Ntp1266
Rp1267
(dp1268
g11
I00
sg19
I00
sg37
I0
sg20
I00
sbsbsg1224
g0
(g33
g2
Ntp1269
Rp1270
(dp1271
g11
I00
sg19
I00
sg37
I00
sg20
I00
sbsg40
I19
sg1218
g0
(g164
g2
Ntp1272
Rp1273
(dp1274
g11
I00
sg19
I01
sg37
S'frontier://FrontierProd/CMS_CONDITIONS'
p1275
sg20
I00
sbsg1225
g0
(g33
g2
Ntp1276
Rp1277
(dp1278
g11
I00
sg19
I00
sg37
I00
sg20
I00
sbsg285
g1212
sg1226
g0
(g33
g2
Ntp1279
Rp1280
(dp1281
g11
I00
sg19
I00
sg37
I00
sg20
I00
sbsg1227
g0
(g33
g2
Ntp1282
Rp1283
(dp1284
g11
I00
sg19
I00
sg37
I00
sg20
I00
sbsg46
S'PoolDBESSource'
p1285
sbsS'HcalTimeSlewEP'
p1286
g0
(g560
g2
Ntp1287
Rp1288
(dp1289
g38
(lp1290
S'timeSlewParametersM3'
p1291
aS'timeSlewParametersM2'
p1292
aS'appendToDataLabel'
p1293
asg11
I00
sg1291
g0
(g1018
g14
(lp1294
g0
(g28
g2
Ntp1295
Rp1296
(dp1297
g11
I00
sg19
I01
sS'tspar2'
p1298
g0
(g365
g2
Ntp1299
Rp1300
(dp1301
g11
I00
sg19
I01
sg37
F0.0
sg20
I00
sbsg20
I00
sS'tspar0'
p1302
g0
(g365
g2
Ntp1303
Rp1304
(dp1305
g11
I00
sg19
I01
sg37
F12.2999
sg20
I00
sbsS'tspar1'
p1306
g0
(g365
g2
Ntp1307
Rp1308
(dp1309
g11
I00
sg19
I01
sg37
F-2.19142
sg20
I00
sbsS'tspar1_siPM'
p1310
g0
(g365
g2
Ntp1311
Rp1312
(dp1313
g11
I00
sg19
I01
sg37
F0.0
sg20
I00
sbsS'cap'
p1314
g0
(g365
g2
Ntp1315
Rp1316
(dp1317
g11
I00
sg19
I01
sg37
F6.0
sg20
I00
sbsS'tspar0_siPM'
p1318
g0
(g365
g2
Ntp1319
Rp1320
(dp1321
g11
I00
sg19
I01
sg37
F0.0
sg20
I00
sbsg38
(lp1322
g1298
ag1302
ag1306
ag1310
ag1314
ag1318
aS'tspar2_siPM'
p1323
asg1323
g0
(g365
g2
Ntp1324
Rp1325
(dp1326
g11
I00
sg19
I01
sg37
F0.0
sg20
I00
sbsbag0
(g28
g2
Ntp1327
Rp1328
(dp1329
g11
I00
sg19
I01
sg1298
g0
(g365
g2
Ntp1330
Rp1331
(dp1332
g11
I00
sg19
I01
sg37
F32.0
sg20
I00
sbsg20
I00
sg1302
g0
(g365
g2
Ntp1333
Rp1334
(dp1335
g11
I00
sg19
I01
sg37
F15.5
sg20
I00
sbsg1306
g0
(g365
g2
Ntp1336
Rp1337
(dp1338
g11
I00
sg19
I01
sg37
F-3.2
sg20
I00
sbsg1310
g0
(g365
g2
Ntp1339
Rp1340
(dp1341
g11
I00
sg19
I01
sg37
F0.0
sg20
I00
sbsg1314
g0
(g365
g2
Ntp1342
Rp1343
(dp1344
g11
I00
sg19
I01
sg37
F6.0
sg20
I00
sbsg1318
g0
(g365
g2
Ntp1345
Rp1346
(dp1347
g11
I00
sg19
I01
sg37
F0.0
sg20
I00
sbsg38
(lp1348
g1298
ag1302
ag1306
ag1310
ag1314
ag1318
ag1323
asg1323
g0
(g365
g2
Ntp1349
Rp1350
(dp1351
g11
I00
sg19
I01
sg37
F0.0
sg20
I00
sbsbag0
(g28
g2
Ntp1352
Rp1353
(dp1354
g11
I00
sg19
I01
sg1298
g0
(g365
g2
Ntp1355
Rp1356
(dp1357
g11
I00
sg19
I01
sg37
F0.0
sg20
I00
sbsg20
I00
sg1302
g0
(g365
g2
Ntp1358
Rp1359
(dp1360
g11
I00
sg19
I01
sg37
F12.2999
sg20
I00
sbsg1306
g0
(g365
g2
Ntp1361
Rp1362
(dp1363
g11
I00
sg19
I01
sg37
F-2.19142
sg20
I00
sbsg1310
g0
(g365
g2
Ntp1364
Rp1365
(dp1366
g11
I00
sg19
I01
sg37
F0.0
sg20
I00
sbsg1314
g0
(g365
g2
Ntp1367
Rp1368
(dp1369
g11
I00
sg19
I01
sg37
F6.0
sg20
I00
sbsg1318
g0
(g365
g2
Ntp1370
Rp1371
(dp1372
g11
I00
sg19
I01
sg37
F0.0
sg20
I00
sbsg38
(lp1373
g1298
ag1302
ag1306
ag1310
ag1314
ag1318
ag1323
asg1323
g0
(g365
g2
Ntp1374
Rp1375
(dp1376
g11
I00
sg19
I01
sg37
F0.0
sg20
I00
sbsbag0
(g28
g2
Ntp1377
Rp1378
(dp1379
g11
I00
sg19
I01
sg1298
g0
(g365
g2
Ntp1380
Rp1381
(dp1382
g11
I00
sg19
I01
sg37
F0.0
sg20
I00
sbsg20
I00
sg1302
g0
(g365
g2
Ntp1383
Rp1384
(dp1385
g11
I00
sg19
I01
sg37
F12.2999
sg20
I00
sbsg1306
g0
(g365
g2
Ntp1386
Rp1387
(dp1388
g11
I00
sg19
I01
sg37
F-2.19142
sg20
I00
sbsg1310
g0
(g365
g2
Ntp1389
Rp1390
(dp1391
g11
I00
sg19
I01
sg37
F0.0
sg20
I00
sbsg1314
g0
(g365
g2
Ntp1392
Rp1393
(dp1394
g11
I00
sg19
I01
sg37
F6.0
sg20
I00
sbsg1318
g0
(g365
g2
Ntp1395
Rp1396
(dp1397
g11
I00
sg19
I01
sg37
F0.0
sg20
I00
sbsg38
(lp1398
g1298
ag1302
ag1306
ag1310
ag1314
ag1318
ag1323
asg1323
g0
(g365
g2
Ntp1399
Rp1400
(dp1401
g11
I00
sg19
I01
sg37
F0.0
sg20
I00
sbsbatp1402
Rp1403
(dp1404
g11
I00
sg19
I01
sg20
I00
sg21
I1
sbsg1292
g0
(g1018
g14
(lp1405
g0
(g28
g2
Ntp1406
Rp1407
(dp1408
g11
I00
sg19
I01
sg20
I00
sS'slope'
p1409
g0
(g365
g2
Ntp1410
Rp1411
(dp1412
g11
I00
sg19
I01
sg37
F-3.178648
sg20
I00
sbsS'tmax'
p1413
g0
(g365
g2
Ntp1414
Rp1415
(dp1416
g11
I00
sg19
I01
sg37
F16.0
sg20
I00
sbsS'tzero'
p1417
g0
(g365
g2
Ntp1418
Rp1419
(dp1420
g11
I00
sg19
I01
sg37
F23.960177
sg20
I00
sbsg38
(lp1421
g1409
ag1413
ag1417
asbag0
(g28
g2
Ntp1422
Rp1423
(dp1424
g11
I00
sg19
I01
sg20
I00
sg1409
g0
(g365
g2
Ntp1425
Rp1426
(dp1427
g11
I00
sg19
I01
sg37
F-1.556668
sg20
I00
sbsg1413
g0
(g365
g2
Ntp1428
Rp1429
(dp1430
g11
I00
sg19
I01
sg37
F10.0
sg20
I00
sbsg1417
g0
(g365
g2
Ntp1431
Rp1432
(dp1433
g11
I00
sg19
I01
sg37
F13.307784
sg20
I00
sbsg38
(lp1434
g1409
ag1413
ag1417
asbag0
(g28
g2
Ntp1435
Rp1436
(dp1437
g11
I00
sg19
I01
sg20
I00
sg1409
g0
(g365
g2
Ntp1438
Rp1439
(dp1440
g11
I00
sg19
I01
sg37
F-1.075824
sg20
I00
sbsg1413
g0
(g365
g2
Ntp1441
Rp1442
(dp1443
g11
I00
sg19
I01
sg37
F6.25
sg20
I00
sbsg1417
g0
(g365
g2
Ntp1444
Rp1445
(dp1446
g11
I00
sg19
I01
sg37
F9.109694
sg20
I00
sbsg38
(lp1447
g1409
ag1413
ag1417
asbatp1448
Rp1449
(dp1450
g11
I00
sg19
I01
sg20
I00
sg21
I1
sbsg20
I00
sg40
I23
sg69
S'/cvmfs/cms.cern.ch/slc7_amd64_gcc700/cms/cmssw-patch/CMSSW_10_2_4_patch1/python/CalibCalorimetry/HcalPlugins/HcalTimeSlew_cff.py'
p1451
sg1293
g0
(g164
g2
Ntp1452
Rp1453
(dp1454
g11
I00
sg19
I01
sg37
S'HBHE'
p1455
sg20
I00
sbsg285
g1286
sg46
g1286
sbssg351
g319
sg524
g526
sS'source'
p1456
g319
sS'CastorDbProducer'
p1457
g0
(g353
g2
Ntp1458
Rp1459
(dp1460
g38
(lp1461
g1293
asg11
I00
sg1293
g0
(g164
g2
Ntp1462
Rp1463
(dp1464
g11
I00
sg19
I01
sg37
g282
sg20
I00
sbsg20
I00
sg40
I53
sg69
g70
sg285
g1457
sg46
g1457
sbsS'_Process__vpsets'
p1465
(dp1466
sS'_Process__name'
p1467
S'analysis'
p1468
sg1286
g1288
sS'es_prefer_hcalHardcode'
p1469
g0
(cFWCore.ParameterSet.Modules
ESPrefer
p1470
g2
Ntp1471
Rp1472
(dp1473
g38
(lp1474
sg11
I00
sg20
I00
sS'_targetLabel'
p1475
g572
sg40
I89
sg69
g70
sg285
g1469
sg46
g789
sbsS'_Process__subProcesses'
p1476
(lp1477
sS'_cloneToObjectDict'
p1478
(dp1479
I140584314979216
g562
sI140584314979280
g258
sI140584314938256
g535
sI140584314889808
g0
(g353
g2
Ntp1480
Rp1481
(dp1482
g38
(lp1483
S'PreFilter'
p1484
ag359
aS'NSigmaInside'
p1485
asg11
I00
sg20
I00
sg69
g70
sg359
g0
(g164
g2
Ntp1486
Rp1487
(dp1488
g11
I00
sg19
I01
sg37
S'StandardMatcher'
p1489
sg20
I00
sbsg1484
g0
(g33
g2
Ntp1490
Rp1491
(dp1492
g11
I00
sg19
I01
sg37
I00
sg20
I00
sbsg40
I53
sg1485
g0
(g365
g2
Ntp1493
Rp1494
(dp1495
g11
I00
sg19
I01
sg37
F3.0
sg20
I00
sbsg285
S'SiStripRecHitMatcherESProducer'
p1496
sg46
g1496
sbsI140584315291280
g476
sI140584314889936
g0
(g353
g2
Ntp1497
Rp1498
(dp1499
g38
(lp1500
sg11
I00
sg20
I00
sg40
I53
sg69
g70
sg285
S'sistripconn'
p1501
sg46
S'SiStripConnectivity'
p1502
sbsI140584314861776
g0
(g353
g2
Ntp1503
Rp1504
(dp1505
g38
(lp1506
S'printDebug'
p1507
ag1293
aS'APVGain'
p1508
aS'AutomaticNormalization'
p1509
asg11
I00
sg1293
g0
(g164
g2
Ntp1510
Rp1511
(dp1512
g11
I00
sg19
I01
sg37
g282
sg20
I00
sbsg20
I00
sg1509
g0
(g33
g2
Ntp1513
Rp1514
(dp1515
g11
I00
sg19
I01
sg37
I00
sg20
I00
sbsg40
I53
sg1507
g0
(g33
g2
Ntp1516
Rp1517
(dp1518
g11
I00
sg19
I00
sg37
I00
sg20
I00
sbsg69
g70
sg1508
g0
(g1018
g14
(lp1519
g0
(g28
g2
Ntp1520
Rp1521
(dp1522
g11
I00
sg19
I01
sg20
I00
sS'Label'
p1523
g0
(g164
g2
Ntp1524
Rp1525
(dp1526
g11
I00
sg19
I00
sg37
g282
sg20
I00
sbsS'Record'
p1527
g0
(g164
g2
Ntp1528
Rp1529
(dp1530
g11
I00
sg19
I01
sg37
S'SiStripApvGainRcd'
p1531
sg20
I00
sbsS'NormalizationFactor'
p1532
g0
(g365
g2
Ntp1533
Rp1534
(dp1535
g11
I00
sg19
I00
sg37
F1.0
sg20
I00
sbsg38
(lp1536
g1527
ag1532
ag1523
asbag0
(g28
g2
Ntp1537
Rp1538
(dp1539
g11
I00
sg19
I01
sg20
I00
sg1523
g0
(g164
g2
Ntp1540
Rp1541
(dp1542
g11
I00
sg19
I00
sg37
g282
sg20
I00
sbsg1527
g0
(g164
g2
Ntp1543
Rp1544
(dp1545
g11
I00
sg19
I01
sg37
S'SiStripApvGain2Rcd'
p1546
sg20
I00
sbsg1532
g0
(g365
g2
Ntp1547
Rp1548
(dp1549
g11
I00
sg19
I00
sg37
F1.0
sg20
I00
sbsg38
(lp1550
g1527
ag1532
ag1523
asbatp1551
Rp1552
(dp1553
g11
I00
sg19
I01
sg20
I00
sg21
I1
sbsg285
S'siStripGainESProducer'
p1554
sg46
S'SiStripGainESProducer'
p1555
sbsI140584315291344
g544
sI140584314890576
g0
(g353
g2
Ntp1556
Rp1557
(dp1558
g38
(lp1559
S'ListOfRecordToMerge'
p1560
asg11
I00
sg20
I01
sg40
I53
sg69
g70
sg1560
g0
(g1018
g14
(lp1561
g0
(g28
g2
Ntp1562
Rp1563
(dp1564
g11
I00
sg19
I01
sg20
I00
sg444
g0
(g164
g2
Ntp1565
Rp1566
(dp1567
g11
I00
sg19
I01
sg37
S'SiPixelQualityFromDbRcd'
p1568
sg20
I00
sbsS'tag'
p1569
g0
(g164
g2
Ntp1570
Rp1571
(dp1572
g11
I00
sg19
I01
sg37
g282
sg20
I00
sbsg38
(lp1573
g444
ag1569
asbag0
(g28
g2
Ntp1574
Rp1575
(dp1576
g11
I00
sg19
I01
sg20
I00
sg444
g0
(g164
g2
Ntp1577
Rp1578
(dp1579
g11
I00
sg19
I01
sg37
S'SiPixelDetVOffRcd'
p1580
sg20
I00
sbsg1569
g0
(g164
g2
Ntp1581
Rp1582
(dp1583
g11
I00
sg19
I01
sg37
g282
sg20
I00
sbsg38
(lp1584
g444
ag1569
asbatp1585
Rp1586
(dp1587
g11
I00
sg19
I01
sg20
I00
sg21
I1
sbsg285
S'siPixelQualityESProducer'
p1588
sg46
S'SiPixelQualityESProducer'
p1589
sbsI140584315353488
g574
sI140584314891344
g526
sI140584315841872
g1214
sI140584316033488
g519
sI140584314891728
g0
(g353
g2
Ntp1590
Rp1591
(dp1592
g38
(lp1593
g1293
aS'PrintDebugOutput'
p1594
aS'ThresholdForReducedGranularity'
p1595
aS'UseEmptyRunInfo'
p1596
aS'ReduceGranularity'
p1597
ag1560
asg11
I00
sg1293
g0
(g164
g2
Ntp1598
Rp1599
(dp1600
g11
I00
sg19
I01
sg37
g282
sg20
I00
sbsg20
I01
sg40
I53
sg69
g70
sg1595
g0
(g365
g2
Ntp1601
Rp1602
(dp1603
g11
I00
sg19
I01
sg37
F0.3
sg20
I00
sbsg285
S'siStripQualityESProducer'
p1604
sg1596
g0
(g33
g2
Ntp1605
Rp1606
(dp1607
g11
I00
sg19
I01
sg37
I00
sg20
I00
sbsg1597
g0
(g33
g2
Ntp1608
Rp1609
(dp1610
g11
I00
sg19
I01
sg37
I00
sg20
I00
sbsg1560
g0
(g1018
g14
(lp1611
g0
(g28
g2
Ntp1612
Rp1613
(dp1614
g11
I00
sg19
I01
sg20
I00
sg444
g0
(g164
g2
Ntp1615
Rp1616
(dp1617
g11
I00
sg19
I01
sg37
S'SiStripDetVOffRcd'
p1618
sg20
I00
sbsg1569
g0
(g164
g2
Ntp1619
Rp1620
(dp1621
g11
I00
sg19
I01
sg37
g282
sg20
I00
sbsg38
(lp1622
g444
ag1569
asbag0
(g28
g2
Ntp1623
Rp1624
(dp1625
g11
I00
sg19
I01
sg20
I00
sg444
g0
(g164
g2
Ntp1626
Rp1627
(dp1628
g11
I00
sg19
I01
sg37
S'SiStripDetCablingRcd'
p1629
sg20
I00
sbsg1569
g0
(g164
g2
Ntp1630
Rp1631
(dp1632
g11
I00
sg19
I01
sg37
g282
sg20
I00
sbsg38
(lp1633
g444
ag1569
asbag0
(g28
g2
Ntp1634
Rp1635
(dp1636
g11
I00
sg19
I01
sg20
I00
sg444
g0
(g164
g2
Ntp1637
Rp1638
(dp1639
g11
I00
sg19
I01
sg37
S'RunInfoRcd'
p1640
sg20
I00
sbsg1569
g0
(g164
g2
Ntp1641
Rp1642
(dp1643
g11
I00
sg19
I01
sg37
g282
sg20
I00
sbsg38
(lp1644
g444
ag1569
asbag0
(g28
g2
Ntp1645
Rp1646
(dp1647
g11
I00
sg19
I01
sg20
I00
sg444
g0
(g164
g2
Ntp1648
Rp1649
(dp1650
g11
I00
sg19
I01
sg37
S'SiStripBadChannelRcd'
p1651
sg20
I00
sbsg1569
g0
(g164
g2
Ntp1652
Rp1653
(dp1654
g11
I00
sg19
I01
sg37
g282
sg20
I00
sbsg38
(lp1655
g444
ag1569
asbag0
(g28
g2
Ntp1656
Rp1657
(dp1658
g11
I00
sg19
I01
sg20
I00
sg444
g0
(g164
g2
Ntp1659
Rp1660
(dp1661
g11
I00
sg19
I01
sg37
S'SiStripBadFiberRcd'
p1662
sg20
I00
sbsg1569
g0
(g164
g2
Ntp1663
Rp1664
(dp1665
g11
I00
sg19
I01
sg37
g282
sg20
I00
sbsg38
(lp1666
g444
ag1569
asbag0
(g28
g2
Ntp1667
Rp1668
(dp1669
g11
I00
sg19
I01
sg20
I00
sg444
g0
(g164
g2
Ntp1670
Rp1671
(dp1672
g11
I00
sg19
I01
sg37
S'SiStripBadModuleRcd'
p1673
sg20
I00
sbsg1569
g0
(g164
g2
Ntp1674
Rp1675
(dp1676
g11
I00
sg19
I01
sg37
g282
sg20
I00
sbsg38
(lp1677
g444
ag1569
asbag0
(g28
g2
Ntp1678
Rp1679
(dp1680
g11
I00
sg19
I01
sg20
I00
sg444
g0
(g164
g2
Ntp1681
Rp1682
(dp1683
g11
I00
sg19
I01
sg37
S'SiStripBadStripRcd'
p1684
sg20
I00
sbsg1569
g0
(g164
g2
Ntp1685
Rp1686
(dp1687
g11
I00
sg19
I01
sg37
g282
sg20
I00
sbsg38
(lp1688
g444
ag1569
asbatp1689
Rp1690
(dp1691
g11
I00
sg19
I01
sg20
I00
sg21
I1
sbsg46
S'SiStripQualityESProducer'
p1692
sg1594
g0
(g33
g2
Ntp1693
Rp1694
(dp1695
g11
I00
sg19
I01
sg37
I00
sg20
I00
sbsbsI140584315354704
g1472
sI140584314863376
g431
sI140584314890320
g269
sI140584314862672
g0
(g353
g2
Ntp1696
Rp1697
(dp1698
g38
(lp1699
g434
aS'LorentzAngleDeconvMode'
p1700
aS'LorentzAnglePeakMode'
p1701
asg11
I00
sg20
I00
sg40
I53
sg69
g70
sg434
g0
(g28
g2
Ntp1702
Rp1703
(dp1704
g11
I00
sg19
I01
sg20
I00
sg440
g0
(g164
g2
Ntp1705
Rp1706
(dp1707
g11
I00
sg19
I00
sg37
g282
sg20
I00
sbsg444
g0
(g164
g2
Ntp1708
Rp1709
(dp1710
g11
I00
sg19
I01
sg37
g448
sg20
I00
sbsg38
(lp1711
g444
ag440
asbsg285
S'siStripLorentzAngleDepESProducer'
p1712
sg1701
g0
(g28
g2
Ntp1713
Rp1714
(dp1715
g11
I00
sg19
I01
sg20
I00
sg440
g0
(g164
g2
Ntp1716
Rp1717
(dp1718
g11
I00
sg19
I00
sg37
g456
sg20
I00
sbsg444
g0
(g164
g2
Ntp1719
Rp1720
(dp1721
g11
I00
sg19
I01
sg37
S'SiStripLorentzAngleRcd'
p1722
sg20
I00
sbsg38
(lp1723
g444
ag440
asbsg46
S'SiStripLorentzAngleDepESProducer'
p1724
sg1700
g0
(g28
g2
Ntp1725
Rp1726
(dp1727
g11
I00
sg19
I01
sg20
I00
sg440
g0
(g164
g2
Ntp1728
Rp1729
(dp1730
g11
I00
sg19
I00
sg37
g468
sg20
I00
sbsg444
g0
(g164
g2
Ntp1731
Rp1732
(dp1733
g11
I00
sg19
I01
sg37
g1722
sg20
I00
sbsg38
(lp1734
g444
ag440
asbsbsI140584314888336
g502
sI140584314888464
g355
sI140584315290192
g1288
sI140584314860176
g1459
ssg1554
g1504
sg1501
g1498
sS'_Process__esprefers'
p1735
(dp1736
g1469
g1472
ssg1496
g1481
sg286
g269
sS'_Process__schedule'
p1737
Nsg1604
g1591
sg559
g562
sS'_Process__outputmodules'
p1738
(dp1739
sS'_Process__analyzers'
p1740
(dp1741
g286
g269
ssS'_Process__InExtendCall'
p1742
I00
sg1712
g1697
sS'_Process__modifiers'
p1743
(tsS'_Process__producers'
p1744
(dp1745
sg1588
g1557
sg1212
g1214
sS'_Process__filters'
p1746
(dp1747
sg572
g574
sS'_Process__looper'
p1748
NsS'_Process__endpaths'
p1749
g0
(cFWCore.ParameterSet.DictTypes
SortedKeysDict
p1750
c__builtin__
dict
p1751
(dp1752
tp1753
Rp1754
(dp1755
S'list'
p1756
(lp1757
sbsS'_Process__esproducers'
p1758
(dp1759
g1712
g1697
sg500
g502
sg1496
g1481
sg1588
g1557
sg542
g544
sg1554
g1504
sg1501
g1498
sg352
g355
sg1457
g1459
sg517
g519
sg429
g431
sg1604
g1591
ssS'_Process__tasks'
p1760
(dp1761
sS'_Process__paths'
p1762
g0
(g1750
g1751
(dp1763
g255
g258
stp1764
Rp1765
(dp1766
g1756
(lp1767
g255
asbsS'_Process__partialschedules'
p1768
(dp1769
sg533
g535
sS'_Process__isStrict'
p1770
I00
sb.