ccopy_reg
_reconstructor
p0
(cFWCore.ParameterSet.Config
Process
p1
c__builtin__
object
p2
Ntp3
Rp4
(dp5
S'MessageLogger'
p6
g0
(cFWCore.ParameterSet.Modules
Service
p7
g2
Ntp8
Rp9
(dp10
S'_isFrozen'
p11
I00
sS'suppressInfo'
p12
g0
(cFWCore.ParameterSet.Types
vstring
p13
c__builtin__
list
p14
(lp15
tp16
Rp17
(dp18
g11
I00
sS'_ParameterTypeBase__isTracked'
p19
I00
sS'_isModified'
p20
I00
sS'_nPerLine'
p21
I1
sbsS'suppressDebug'
p22
g0
(g13
g14
(lp23
tp24
Rp25
(dp26
g11
I00
sg19
I00
sg20
I00
sg21
I1
sbsS'cout'
p27
g0
(cFWCore.ParameterSet.Types
PSet
p28
g2
Ntp29
Rp30
(dp31
g11
I00
sg19
I00
sS'placeholder'
p32
g0
(cFWCore.ParameterSet.Types
bool
p33
g2
Ntp34
Rp35
(dp36
g11
I00
sg19
I00
sS'_value'
p37
I01
sg20
I00
sbsg20
I00
sS'_Parameterizable__parameterNames'
p38
(lp39
g32
asbsS'_lineNumber'
p40
I11
sS'debugModules'
p41
g0
(g13
g14
(lp42
tp43
Rp44
(dp45
g11
I00
sg19
I00
sg20
I00
sg21
I1
sbsS'_TypedParameterizable__type'
p46
g6
sS'fwkJobReports'
p47
g0
(g13
g14
(lp48
S'FrameworkJobReport'
p49
atp50
Rp51
(dp52
g11
I00
sg19
I00
sg20
I00
sg21
I1
sbsg38
(lp53
g12
aS'debugs'
p54
ag22
ag27
aS'cerr_stats'
p55
aS'warnings'
p56
aS'default'
p57
aS'statistics'
p58
aS'cerr'
p59
ag49
aS'suppressWarning'
p60
aS'errors'
p61
aS'destinations'
p62
ag41
aS'infos'
p63
aS'categories'
p64
ag47
asg58
g0
(g13
g14
(lp65
g55
atp66
Rp67
(dp68
g11
I00
sg19
I00
sg20
I00
sg21
I1
sbsS'_filename'
p69
S'/cvmfs/cms.cern.ch/slc7_amd64_gcc700/cms/cmssw-patch/CMSSW_10_2_4_patch1/python/FWCore/ParameterSet/Modules.py'
p70
sg62
g0
(g13
g14
(lp71
g56
ag61
ag63
ag54
ag27
ag59
atp72
Rp73
(dp74
g11
I00
sg19
I00
sg20
I00
sg21
I1
sbsg54
g0
(g28
g2
Ntp75
Rp76
(dp77
g11
I00
sg19
I00
sg32
g0
(g33
g2
Ntp78
Rp79
(dp80
g11
I00
sg19
I00
sg37
I01
sg20
I00
sbsg20
I00
sg38
(lp81
g32
asbsg56
g0
(g28
g2
Ntp82
Rp83
(dp84
g11
I00
sg19
I00
sg32
g0
(g33
g2
Ntp85
Rp86
(dp87
g11
I00
sg19
I00
sg37
I01
sg20
I00
sbsg20
I00
sg38
(lp88
g32
asbsg61
g0
(g28
g2
Ntp89
Rp90
(dp91
g11
I00
sg19
I00
sg32
g0
(g33
g2
Ntp92
Rp93
(dp94
g11
I00
sg19
I00
sg37
I01
sg20
I00
sbsg20
I00
sg38
(lp95
g32
asbsg49
g0
(g28
g2
Ntp96
Rp97
(dp98
g11
I00
sg19
I00
sg20
I00
sg57
g0
(g28
g2
Ntp99
Rp100
(dp101
g11
I00
sg19
I00
sS'limit'
p102
g0
(cFWCore.ParameterSet.Types
int32
p103
g2
Ntp104
Rp105
(dp106
g11
I00
sg19
I00
sg37
I0
sg20
I00
sbsg20
I00
sg38
(lp107
g102
asbsS'FwkJob'
p108
g0
(g28
g2
Ntp109
Rp110
(dp111
g11
I00
sg19
I00
sg20
I00
sg102
g0
(g103
g2
Ntp112
Rp113
(dp114
g11
I00
sg19
I00
sg37
I10000000
sg20
I00
sbsg38
(lp115
S'optionalPSet'
p116
ag102
asg116
g0
(g33
g2
Ntp117
Rp118
(dp119
g11
I00
sg19
I00
sg37
I01
sg20
I00
sbsbsg38
(lp120
g57
ag116
ag108
asg116
g0
(g33
g2
Ntp121
Rp122
(dp123
g11
I00
sg19
I00
sg37
I01
sg20
I00
sbsbsg60
g0
(g13
g14
(lp124
tp125
Rp126
(dp127
g11
I00
sg19
I00
sg20
I00
sg21
I1
sbsg63
g0
(g28
g2
Ntp128
Rp129
(dp130
g11
I00
sg19
I00
sg20
I00
sS'Root_NoDictionary'
p131
g0
(g28
g2
Ntp132
Rp133
(dp134
g11
I00
sg19
I00
sg20
I00
sg102
g0
(g103
g2
Ntp135
Rp136
(dp137
g11
I00
sg19
I00
sg37
I0
sg20
I00
sbsg38
(lp138
g116
ag102
asg116
g0
(g33
g2
Ntp139
Rp140
(dp141
g11
I00
sg19
I00
sg37
I01
sg20
I00
sbsbsg38
(lp142
g116
ag131
ag32
asg116
g0
(g33
g2
Ntp143
Rp144
(dp145
g11
I00
sg19
I00
sg37
I01
sg20
I00
sbsg32
g0
(g33
g2
Ntp146
Rp147
(dp148
g11
I00
sg19
I00
sg37
I01
sg20
I00
sbsbsg64
g0
(g13
g14
(lp149
g108
aS'FwkReport'
p150
aS'FwkSummary'
p151
ag131
atp152
Rp153
(dp154
g11
I00
sg19
I00
sg20
I00
sg21
I1
sbsg20
I00
sg55
g0
(g28
g2
Ntp155
Rp156
(dp157
g11
I00
sg19
I00
sg20
I00
sg116
g0
(g33
g2
Ntp158
Rp159
(dp160
g11
I00
sg19
I00
sg37
I01
sg20
I00
sbsg38
(lp161
S'threshold'
p162
aS'output'
p163
ag116
asg162
g0
(cFWCore.ParameterSet.Types
string
p164
g2
Ntp165
Rp166
(dp167
g11
I00
sg19
I00
sg37
S'WARNING'
p168
sg20
I00
sbsg163
g0
(g164
g2
Ntp169
Rp170
(dp171
g11
I00
sg19
I00
sg37
g59
sg20
I00
sbsbsg57
g0
(g28
g2
Ntp172
Rp173
(dp174
g11
I00
sg19
I00
sg20
I00
sg38
(lp175
sbsS'_inProcess'
p176
I01
sg59
g0
(g28
g2
Ntp177
Rp178
(dp179
g11
I00
sg19
I00
sS'noTimeStamps'
p180
g0
(g33
g2
Ntp181
Rp182
(dp183
g11
I00
sg19
I00
sg37
I00
sg20
I00
sbsg150
g0
(g28
g2
Ntp184
Rp185
(dp186
g11
I00
sg19
I00
sg20
I01
sS'reportEvery'
p187
g0
(g103
g2
Ntp188
Rp189
(dp190
g11
I00
sg19
I00
sg37
I1000
sg20
I01
sbsg102
g0
(g103
g2
Ntp191
Rp192
(dp193
g11
I00
sg19
I00
sg37
I10000000
sg20
I00
sbsg38
(lp194
g187
ag116
ag102
asg116
g0
(g33
g2
Ntp195
Rp196
(dp197
g11
I00
sg19
I00
sg37
I01
sg20
I00
sbsbsg20
I00
sg57
g0
(g28
g2
Ntp198
Rp199
(dp200
g11
I00
sg19
I00
sg102
g0
(g103
g2
Ntp201
Rp202
(dp203
g11
I00
sg19
I00
sg37
I10000000
sg20
I00
sbsg20
I00
sg38
(lp204
g102
asbsg131
g0
(g28
g2
Ntp205
Rp206
(dp207
g11
I00
sg19
I00
sg20
I00
sg102
g0
(g103
g2
Ntp208
Rp209
(dp210
g11
I00
sg19
I00
sg37
I0
sg20
I00
sbsg38
(lp211
g116
ag102
asg116
g0
(g33
g2
Ntp212
Rp213
(dp214
g11
I00
sg19
I00
sg37
I01
sg20
I00
sbsbsS'INFO'
p215
g0
(g28
g2
Ntp216
Rp217
(dp218
g11
I00
sg19
I00
sg102
g0
(g103
g2
Ntp219
Rp220
(dp221
g11
I00
sg19
I00
sg37
I0
sg20
I00
sbsg20
I00
sg38
(lp222
g102
asbsg116
g0
(g33
g2
Ntp223
Rp224
(dp225
g11
I00
sg19
I00
sg37
I01
sg20
I00
sbsg108
g0
(g28
g2
Ntp226
Rp227
(dp228
g11
I00
sg19
I00
sg20
I00
sg102
g0
(g103
g2
Ntp229
Rp230
(dp231
g11
I00
sg19
I00
sg37
I0
sg20
I00
sbsg38
(lp232
g116
ag102
asg116
g0
(g33
g2
Ntp233
Rp234
(dp235
g11
I00
sg19
I00
sg37
I01
sg20
I00
sbsbsg151
g0
(g28
g2
Ntp236
Rp237
(dp238
g11
I00
sg19
I00
sg20
I00
sg187
g0
(g103
g2
Ntp239
Rp240
(dp241
g11
I00
sg19
I00
sg37
I1
sg20
I00
sbsg102
g0
(g103
g2
Ntp242
Rp243
(dp244
g11
I00
sg19
I00
sg37
I10000000
sg20
I00
sbsg38
(lp245
g187
ag116
ag102
asg116
g0
(g33
g2
Ntp246
Rp247
(dp248
g11
I00
sg19
I00
sg37
I01
sg20
I00
sbsbsg38
(lp249
g215
ag180
ag150
ag57
ag131
ag162
ag108
ag151
ag116
asg162
g0
(g164
g2
Ntp250
Rp251
(dp252
g11
I00
sg19
I00
sg37
g215
sg20
I00
sbsbsbsS'_Process__sequences'
p253
(dp254
sS'p'
p255
g0
(cFWCore.ParameterSet.SequenceTypes
Path
p256
g2
Ntp257
Rp258
(dp259
g11
I00
sS'_seq'
p260
g0
(cFWCore.ParameterSet.SequenceTypes
_SequenceCollection
p261
g2
Ntp262
Rp263
(dp264
S'_collection'
p265
(lp266
g0
(cFWCore.ParameterSet.Modules
EDAnalyzer
p267
g2
Ntp268
Rp269
(dp270
g38
(lp271
S'PUPPI_AK4Collection'
p272
aS'genPartCollection'
p273
aS'fatJetCollection'
p274
aS'muonCollection'
p275
asg11
I00
sg20
I00
sg40
I13
sg272
g0
(cFWCore.ParameterSet.Types
InputTag
p276
g2
Ntp277
Rp278
(dp279
g11
I00
sg19
I01
sg20
I00
sS'_InputTag__moduleLabel'
p280
S'slimmedJetsPuppi'
p281
sS'_InputTag__processName'
p282
S''
p283
sS'_InputTag__productInstance'
p284
g283
sbsg69
S'/uscms_data/d3/cannaert/src/thrust/CMSSW_10_2_4_patch1/src/ttbarAnalyzer_cfg.py'
p285
sg273
g0
(g276
g2
Ntp286
Rp287
(dp288
g11
I00
sg19
I01
sg20
I00
sg280
S'prunedGenParticles'
p289
sg282
g283
sg284
g283
sbsS'_Labelable__label'
p290
S'ttbarAnalyzer'
p291
sg274
g0
(g276
g2
Ntp292
Rp293
(dp294
g11
I00
sg19
I01
sg20
I00
sg280
S'slimmedJetsAK8'
p295
sg282
g283
sg284
g283
sbsg275
g0
(g276
g2
Ntp296
Rp297
(dp298
g11
I00
sg19
I01
sg20
I00
sg280
S'slimmedMuons'
p299
sg282
g283
sg284
g283
sbsg46
g291
sbasbsg290
g255
sg20
I00
sS'_tasks'
p300
g0
(cFWCore.ParameterSet.OrderedSet
OrderedSet
p301
g2
Ntp302
Rp303
(dp304
S'map'
p305
(dp306
sS'end'
p307
(lp308
Nag308
ag308
asbsbsS'_Process__services'
p309
(dp310
g6
g9
sS'TFileService'
p311
g0
(g7
g2
Ntp312
Rp313
(dp314
g38
(lp315
S'fileName'
p316
asg11
I00
sg176
I01
sg20
I00
sg40
I11
sg69
g70
sg316
g0
(g164
g2
Ntp317
Rp318
(dp319
g11
I00
sg19
I01
sg37
S'QCD_ttbar_test.root'
p320
sg20
I00
sbsg46
g311
sbssS'_Process__source'
p321
g0
(cFWCore.ParameterSet.Modules
Source
p322
g2
Ntp323
Rp324
(dp325
g38
(lp326
S'fileNames'
p327
asg11
I00
sg20
I00
sg40
I193
sg69
g70
sg327
g0
(g13
g14
(lp328
S'/store/mc/RunIIAutumn18MiniAOD/TTToSemiLeptonic_widthx1p3_TuneCP5_13TeV-powheg-pythia8/MINIAODSIM/102X_upgrade2018_realistic_v15-v1/90000/FD15A642-B164-9942-A410-EBE9991827AA.root'
p329
aS'/store/mc/RunIIAutumn18MiniAOD/TTToSemiLeptonic_widthx1p3_TuneCP5_13TeV-powheg-pythia8/MINIAODSIM/102X_upgrade2018_realistic_v15-v1/90000/F68799DB-2630-6F4A-ACC1-BEBE6CAC348D.root'
p330
aS'/store/mc/RunIIAutumn18MiniAOD/TTToSemiLeptonic_widthx1p3_TuneCP5_13TeV-powheg-pythia8/MINIAODSIM/102X_upgrade2018_realistic_v15-v1/90000/F47F9770-3224-A64B-A8A9-F2C2B663434A.root'
p331
aS'/store/mc/RunIIAutumn18MiniAOD/TTToSemiLeptonic_widthx1p3_TuneCP5_13TeV-powheg-pythia8/MINIAODSIM/102X_upgrade2018_realistic_v15-v1/90000/EF2610C9-ECB1-4542-849C-292254CE409B.root'
p332
aS'/store/mc/RunIIAutumn18MiniAOD/TTToSemiLeptonic_widthx1p3_TuneCP5_13TeV-powheg-pythia8/MINIAODSIM/102X_upgrade2018_realistic_v15-v1/90000/EF25CB28-DB09-044F-AA64-758C54CD65E2.root'
p333
aS'/store/mc/RunIIAutumn18MiniAOD/TTToSemiLeptonic_widthx1p3_TuneCP5_13TeV-powheg-pythia8/MINIAODSIM/102X_upgrade2018_realistic_v15-v1/90000/E721F5B7-8928-B14E-AE1C-53E164903DCB.root'
p334
aS'/store/mc/RunIIAutumn18MiniAOD/TTToSemiLeptonic_widthx1p3_TuneCP5_13TeV-powheg-pythia8/MINIAODSIM/102X_upgrade2018_realistic_v15-v1/90000/E17293BF-1AFD-C349-B325-357D462AB2F1.root'
p335
aS'/store/mc/RunIIAutumn18MiniAOD/TTToSemiLeptonic_widthx1p3_TuneCP5_13TeV-powheg-pythia8/MINIAODSIM/102X_upgrade2018_realistic_v15-v1/90000/DEBD99CA-3C11-0746-B5E0-04AC7E150986.root'
p336
aS'/store/mc/RunIIAutumn18MiniAOD/TTToSemiLeptonic_widthx1p3_TuneCP5_13TeV-powheg-pythia8/MINIAODSIM/102X_upgrade2018_realistic_v15-v1/90000/D753B61C-0A05-FE49-B0C5-718FC9D95595.root'
p337
aS'/store/mc/RunIIAutumn18MiniAOD/TTToSemiLeptonic_widthx1p3_TuneCP5_13TeV-powheg-pythia8/MINIAODSIM/102X_upgrade2018_realistic_v15-v1/90000/D2076A6F-9FEE-7E49-B7AD-7B2028E3CB9D.root'
p338
aS'/store/mc/RunIIAutumn18MiniAOD/TTToSemiLeptonic_widthx1p3_TuneCP5_13TeV-powheg-pythia8/MINIAODSIM/102X_upgrade2018_realistic_v15-v1/90000/CB43BCA1-2F16-204A-A88A-B3181EFCED5A.root'
p339
aS'/store/mc/RunIIAutumn18MiniAOD/TTToSemiLeptonic_widthx1p3_TuneCP5_13TeV-powheg-pythia8/MINIAODSIM/102X_upgrade2018_realistic_v15-v1/90000/A27D2C47-AEE0-C24E-BB4B-3B462B7E28A7.root'
p340
aS'/store/mc/RunIIAutumn18MiniAOD/TTToSemiLeptonic_widthx1p3_TuneCP5_13TeV-powheg-pythia8/MINIAODSIM/102X_upgrade2018_realistic_v15-v1/90000/98986DB2-9A1A-8F43-B306-D5BCAAC8C0FE.root'
p341
aS'/store/mc/RunIIAutumn18MiniAOD/TTToSemiLeptonic_widthx1p3_TuneCP5_13TeV-powheg-pythia8/MINIAODSIM/102X_upgrade2018_realistic_v15-v1/90000/97791FB3-CDAF-AE48-8D16-765D29D11161.root'
p342
aS'/store/mc/RunIIAutumn18MiniAOD/TTToSemiLeptonic_widthx1p3_TuneCP5_13TeV-powheg-pythia8/MINIAODSIM/102X_upgrade2018_realistic_v15-v1/90000/96BBB396-2FD1-684C-B852-41237A2A8C6E.root'
p343
aS'/store/mc/RunIIAutumn18MiniAOD/TTToSemiLeptonic_widthx1p3_TuneCP5_13TeV-powheg-pythia8/MINIAODSIM/102X_upgrade2018_realistic_v15-v1/90000/965B9DEB-8D3E-C441-BDCA-C2CBE1CE494D.root'
p344
aS'/store/mc/RunIIAutumn18MiniAOD/TTToSemiLeptonic_widthx1p3_TuneCP5_13TeV-powheg-pythia8/MINIAODSIM/102X_upgrade2018_realistic_v15-v1/90000/8F863A4C-BA5D-B246-A4D1-393870399BE9.root'
p345
aS'/store/mc/RunIIAutumn18MiniAOD/TTToSemiLeptonic_widthx1p3_TuneCP5_13TeV-powheg-pythia8/MINIAODSIM/102X_upgrade2018_realistic_v15-v1/90000/8EF5A092-804F-8A40-BBBA-259BA9864B64.root'
p346
aS'/store/mc/RunIIAutumn18MiniAOD/TTToSemiLeptonic_widthx1p3_TuneCP5_13TeV-powheg-pythia8/MINIAODSIM/102X_upgrade2018_realistic_v15-v1/90000/8CA3E60C-F0D5-8548-AB70-B56351805A8E.root'
p347
aS'/store/mc/RunIIAutumn18MiniAOD/TTToSemiLeptonic_widthx1p3_TuneCP5_13TeV-powheg-pythia8/MINIAODSIM/102X_upgrade2018_realistic_v15-v1/90000/8AB9E328-018B-C549-8FF3-CF21545F9AA7.root'
p348
aS'/store/mc/RunIIAutumn18MiniAOD/TTToSemiLeptonic_widthx1p3_TuneCP5_13TeV-powheg-pythia8/MINIAODSIM/102X_upgrade2018_realistic_v15-v1/90000/855C7EA8-BD62-0042-9443-549C6A45B10A.root'
p349
aS'/store/mc/RunIIAutumn18MiniAOD/TTToSemiLeptonic_widthx1p3_TuneCP5_13TeV-powheg-pythia8/MINIAODSIM/102X_upgrade2018_realistic_v15-v1/90000/81555E54-704B-AB40-ADE3-BA4274B0D7FD.root'
p350
aS'/store/mc/RunIIAutumn18MiniAOD/TTToSemiLeptonic_widthx1p3_TuneCP5_13TeV-powheg-pythia8/MINIAODSIM/102X_upgrade2018_realistic_v15-v1/90000/8066E626-200F-7549-8750-A3CC22192362.root'
p351
aS'/store/mc/RunIIAutumn18MiniAOD/TTToSemiLeptonic_widthx1p3_TuneCP5_13TeV-powheg-pythia8/MINIAODSIM/102X_upgrade2018_realistic_v15-v1/90000/8016EF0E-8ABD-274D-AE32-BD23303CB17F.root'
p352
atp353
Rp354
(dp355
g11
I00
sg19
I00
sg20
I00
sg21
I1
sbsg46
S'PoolSource'
p356
sbsS'StripCPEfromTrackAngleESProducer'
p357
g0
(cFWCore.ParameterSet.Modules
ESProducer
p358
g2
Ntp359
Rp360
(dp361
g38
(lp362
S'ComponentType'
p363
aS'ComponentName'
p364
aS'parameters'
p365
asg11
I00
sg20
I01
sg365
g0
(g28
g2
Ntp366
Rp367
(dp368
g11
I00
sg19
I01
sS'maxChgOneMIP'
p369
g0
(cFWCore.ParameterSet.Types
double
p370
g2
Ntp371
Rp372
(dp373
g11
I00
sg19
I01
sg37
F6000.0
sg20
I00
sbsS'mLC_P2'
p374
g0
(g370
g2
Ntp375
Rp376
(dp377
g11
I00
sg19
I01
sg37
F0.3
sg20
I00
sbsS'mLC_P1'
p378
g0
(g370
g2
Ntp379
Rp380
(dp381
g11
I00
sg19
I01
sg37
F0.618
sg20
I00
sbsS'mLC_P0'
p382
g0
(g370
g2
Ntp383
Rp384
(dp385
g11
I00
sg19
I01
sg37
F-0.326
sg20
I00
sbsS'useLegacyError'
p386
g0
(g33
g2
Ntp387
Rp388
(dp389
g11
I00
sg19
I01
sg37
I00
sg20
I00
sbsS'mTIB_P1'
p390
g0
(g370
g2
Ntp391
Rp392
(dp393
g11
I00
sg19
I01
sg37
F0.202
sg20
I00
sbsS'mTEC_P1'
p394
g0
(g370
g2
Ntp395
Rp396
(dp397
g11
I00
sg19
I01
sg37
F0.471
sg20
I00
sbsS'mTEC_P0'
p398
g0
(g370
g2
Ntp399
Rp400
(dp401
g11
I00
sg19
I01
sg37
F-1.885
sg20
I00
sbsS'mTOB_P0'
p402
g0
(g370
g2
Ntp403
Rp404
(dp405
g11
I00
sg19
I01
sg37
F-1.026
sg20
I00
sbsS'mTOB_P1'
p406
g0
(g370
g2
Ntp407
Rp408
(dp409
g11
I00
sg19
I01
sg37
F0.253
sg20
I00
sbsS'mTIB_P0'
p410
g0
(g370
g2
Ntp411
Rp412
(dp413
g11
I00
sg19
I01
sg37
F-0.742
sg20
I00
sbsg38
(lp414
g369
ag374
ag378
ag382
ag386
ag394
ag398
ag402
ag406
ag410
ag390
aS'mTID_P0'
p415
aS'mTID_P1'
p416
asg415
g0
(g370
g2
Ntp417
Rp418
(dp419
g11
I00
sg19
I01
sg37
F-1.427
sg20
I00
sbsg416
g0
(g370
g2
Ntp420
Rp421
(dp422
g11
I00
sg19
I01
sg37
F0.433
sg20
I00
sbsg20
I00
sbsg40
I4
sg364
g0
(g164
g2
Ntp423
Rp424
(dp425
g11
I00
sg19
I01
sg37
S'StripCPEfromTrackAngle'
p426
sg20
I00
sbsg363
g0
(g164
g2
Ntp427
Rp428
(dp429
g11
I00
sg19
I01
sg37
g426
sg20
I00
sbsg69
S'/cvmfs/cms.cern.ch/slc7_amd64_gcc700/cms/cmssw-patch/CMSSW_10_2_4_patch1/python/RecoLocalTracker/SiStripRecHitConverter/StripCPEfromTrackAngle_cfi.py'
p430
sg290
g357
sg46
S'StripCPEESProducer'
p431
sbsS'_Process__aliases'
p432
(dp433
sS'siStripBackPlaneCorrectionDepESProducer'
p434
g0
(g358
g2
Ntp435
Rp436
(dp437
g38
(lp438
S'LatencyRecord'
p439
aS'BackPlaneCorrectionDeconvMode'
p440
aS'BackPlaneCorrectionPeakMode'
p441
asg11
I00
sg20
I00
sg40
I53
sg69
g70
sg439
g0
(g28
g2
Ntp442
Rp443
(dp444
g11
I00
sg19
I01
sg20
I00
sS'label'
p445
g0
(g164
g2
Ntp446
Rp447
(dp448
g11
I00
sg19
I00
sg37
g283
sg20
I00
sbsS'record'
p449
g0
(g164
g2
Ntp450
Rp451
(dp452
g11
I00
sg19
I01
sg37
S'SiStripLatencyRcd'
p453
sg20
I00
sbsg38
(lp454
g449
ag445
asbsg441
g0
(g28
g2
Ntp455
Rp456
(dp457
g11
I00
sg19
I01
sg20
I00
sg445
g0
(g164
g2
Ntp458
Rp459
(dp460
g11
I00
sg19
I00
sg37
S'peak'
p461
sg20
I00
sbsg449
g0
(g164
g2
Ntp462
Rp463
(dp464
g11
I00
sg19
I01
sg37
S'SiStripBackPlaneCorrectionRcd'
p465
sg20
I00
sbsg38
(lp466
g449
ag445
asbsg290
g434
sg440
g0
(g28
g2
Ntp467
Rp468
(dp469
g11
I00
sg19
I01
sg20
I00
sg445
g0
(g164
g2
Ntp470
Rp471
(dp472
g11
I00
sg19
I00
sg37
S'deconvolution'
p473
sg20
I00
sbsg449
g0
(g164
g2
Ntp474
Rp475
(dp476
g11
I00
sg19
I01
sg37
g465
sg20
I00
sbsg38
(lp477
g449
ag445
asbsg46
S'SiStripBackPlaneCorrectionDepESProducer'
p478
sbsS'HFRecalParameterBlock'
p479
g0
(g28
g2
Ntp480
Rp481
(dp482
g11
I00
sg19
I01
sg20
I00
sS'HFdepthTwoParameterA'
p483
g0
(cFWCore.ParameterSet.Types
vdouble
p484
g14
(lp485
F0.002861
aF0.004168
aF0.0064
aF0.008388
aF0.011601
aF0.014425
aF0.018633
aF0.023232
aF0.028274
aF0.035447
aF0.051579
aF0.086593
atp486
Rp487
(dp488
g11
I00
sg19
I01
sg20
I00
sbsS'HFdepthOneParameterA'
p489
g0
(g484
g14
(lp490
F0.004123
aF0.00602
aF0.008201
aF0.010489
aF0.013379
aF0.016997
aF0.021464
aF0.027371
aF0.034195
aF0.044807
aF0.058939
aF0.125497
atp491
Rp492
(dp493
g11
I00
sg19
I01
sg20
I00
sbsS'HFdepthOneParameterB'
p494
g0
(g484
g14
(lp495
F-4e-06
aF-2e-06
aF0.0
aF4e-06
aF1.5e-05
aF2.6e-05
aF6.3e-05
aF8.4e-05
aF0.00016
aF0.000107
aF0.000425
aF0.000209
atp496
Rp497
(dp498
g11
I00
sg19
I01
sg20
I00
sbsS'HFdepthTwoParameterB'
p499
g0
(g484
g14
(lp500
F-2e-06
aF-0.0
aF-7e-06
aF-6e-06
aF-2e-06
aF1e-06
aF1.9e-05
aF3.1e-05
aF6.7e-05
aF1.2e-05
aF0.000157
aF-3e-06
atp501
Rp502
(dp503
g11
I00
sg19
I01
sg20
I00
sbsg38
(lp504
g489
ag494
ag499
ag483
asg290
g479
sbsS'stripCPEESProducer'
p505
g0
(g358
g2
Ntp506
Rp507
(dp508
g38
(lp509
g363
ag364
ag365
asg11
I00
sg20
I00
sg365
g0
(g28
g2
Ntp510
Rp511
(dp512
g11
I00
sg19
I01
sg20
I00
sg38
(lp513
sbsg40
I53
sg364
g0
(g164
g2
Ntp514
Rp515
(dp516
g11
I00
sg19
I01
sg37
S'stripCPE'
p517
sg20
I00
sbsg363
g0
(g164
g2
Ntp518
Rp519
(dp520
g11
I00
sg19
I01
sg37
S'SimpleStripCPE'
p521
sg20
I00
sbsg69
g70
sg290
g505
sg46
g431
sbsS'EcalLaserCorrectionService'
p522
g0
(g358
g2
Ntp523
Rp524
(dp525
g38
(lp526
sg11
I00
sg20
I00
sg40
I53
sg69
g70
sg290
g522
sg46
g522
sbsS'_Process__psets'
p527
(dp528
S'maxEvents'
p529
g0
(g28
g2
Ntp530
Rp531
(dp532
g11
I00
sg19
I00
sg20
I00
sg38
(lp533
S'input'
p534
asg290
g529
sg534
g0
(g103
g2
Ntp535
Rp536
(dp537
g11
I00
sg19
I00
sg37
I3000000
sg20
I00
sbsbsg479
g481
sS'options'
p538
g0
(g28
g2
Ntp539
Rp540
(dp541
g11
I00
sg19
I00
sg20
I00
sS'wantSummary'
p542
g0
(g33
g2
Ntp543
Rp544
(dp545
g11
I00
sg19
I00
sg37
I01
sg20
I00
sbsg38
(lp546
g542
asg290
g538
sbssS'hcal_db_producer'
p547
g0
(g358
g2
Ntp548
Rp549
(dp550
g38
(lp551
S'file'
p552
aS'dump'
p553
asg11
I00
sg20
I00
sg553
g0
(g13
g14
(lp554
g283
atp555
Rp556
(dp557
g11
I00
sg19
I00
sg20
I00
sg21
I1
sbsg40
I53
sg69
g70
sg552
g0
(g164
g2
Ntp558
Rp559
(dp560
g11
I00
sg19
I00
sg37
g283
sg20
I00
sbsg290
g547
sg46
S'HcalDbProducer'
p561
sbsg311
g313
sS'_Process__essources'
p562
(dp563
S'HepPDTESSource'
p564
g0
(cFWCore.ParameterSet.Modules
ESSource
p565
g2
Ntp566
Rp567
(dp568
g38
(lp569
S'pdtFileName'
p570
asg11
I00
sg570
g0
(cFWCore.ParameterSet.Types
FileInPath
p571
g2
Ntp572
Rp573
(dp574
g11
I00
sg19
I01
sg37
S'SimGeneral/HepPDTESSource/data/pythiaparticle.tbl'
p575
sg20
I00
sbsg20
I00
sg40
I4
sg69
S'/cvmfs/cms.cern.ch/slc7_amd64_gcc700/cms/cmssw-patch/CMSSW_10_2_4_patch1/python/SimGeneral/HepPDTESSource/pythiapdt_cfi.py'
p576
sg290
g564
sg46
g564
sbsS'es_hardcode'
p577
g0
(g565
g2
Ntp578
Rp579
(dp580
g11
I00
sg40
I172
sS'useHEUpgrade'
p581
g0
(g33
g2
Ntp582
Rp583
(dp584
g11
I00
sg19
I01
sg37
I00
sg20
I00
sbsS'HBRecalibration'
p585
g0
(g33
g2
Ntp586
Rp587
(dp588
g11
I00
sg19
I01
sg37
I00
sg20
I00
sbsS'useLayer0Weight'
p589
g0
(g33
g2
Ntp590
Rp591
(dp592
g11
I00
sg19
I01
sg37
I00
sg20
I00
sbsS'HEmeanenergies'
p593
g0
(g571
g2
Ntp594
Rp595
(dp596
g11
I00
sg19
I01
sg37
S'CalibCalorimetry/HcalPlugins/data/meanenergiesHE.txt'
p597
sg20
I00
sbsg479
g481
sS'heUpgrade'
p598
g0
(g28
g2
Ntp599
Rp600
(dp601
g11
I00
sg19
I01
sS'qieType'
p602
g0
(g103
g2
Ntp603
Rp604
(dp605
g11
I00
sg19
I01
sg37
I2
sg20
I00
sbsg20
I00
sS'pedestalWidth'
p606
g0
(g370
g2
Ntp607
Rp608
(dp609
g11
I00
sg19
I01
sg37
F1.5
sg20
I00
sbsS'recoShape'
p610
g0
(g103
g2
Ntp611
Rp612
(dp613
g11
I00
sg19
I01
sg37
I206
sg20
I00
sbsS'zsThreshold'
p614
g0
(g103
g2
Ntp615
Rp616
(dp617
g11
I00
sg19
I01
sg37
I16
sg20
I00
sbsS'darkCurrent'
p618
g0
(g484
g14
(lp619
F0.01
aF0.015
atp620
Rp621
(dp622
g11
I00
sg19
I01
sg20
I00
sbsS'qieOffset'
p623
g0
(g484
g14
(lp624
F0.0
aF0.0
aF0.0
aF0.0
atp625
Rp626
(dp627
g11
I00
sg19
I01
sg20
I00
sbsS'qieSlope'
p628
g0
(g484
g14
(lp629
F0.05376
aF0.05376
aF0.05376
aF0.05376
atp630
Rp631
(dp632
g11
I00
sg19
I01
sg20
I00
sbsS'radiationDamage'
p633
g0
(g28
g2
Ntp634
Rp635
(dp636
g11
I00
sg19
I01
sS'temperatureNew'
p637
g0
(g370
g2
Ntp638
Rp639
(dp640
g11
I00
sg19
I01
sg37
I5
sg20
I00
sbsg20
I00
sS'depVsNeutrons'
p641
g0
(g484
g14
(lp642
F5.543e-10
aF8.012e-10
atp643
Rp644
(dp645
g11
I00
sg19
I01
sg20
I00
sbsS'temperatureBase'
p646
g0
(g370
g2
Ntp647
Rp648
(dp649
g11
I00
sg19
I01
sg37
I20
sg20
I00
sbsS'depVsTemp'
p650
g0
(g370
g2
Ntp651
Rp652
(dp653
g11
I00
sg19
I01
sg37
F0.0631
sg20
I00
sbsS'intlumiOffset'
p654
g0
(g370
g2
Ntp655
Rp656
(dp657
g11
I00
sg19
I01
sg37
I75
sg20
I00
sbsg38
(lp658
g637
ag641
ag646
ag650
ag654
aS'intlumiToNeutrons'
p659
asg659
g0
(g370
g2
Ntp660
Rp661
(dp662
g11
I00
sg19
I01
sg37
F29200000.0
sg20
I00
sbsbsS'doRadiationDamage'
p663
g0
(g33
g2
Ntp664
Rp665
(dp666
g11
I00
sg19
I01
sg37
I01
sg20
I00
sbsg38
(lp667
g602
ag606
ag610
ag614
aS'photoelectronsToAnalog'
p668
ag623
ag628
ag633
ag663
ag618
aS'pedestal'
p669
aS'mcShape'
p670
aS'gainWidth'
p671
aS'gain'
p672
asg668
g0
(g370
g2
Ntp673
Rp674
(dp675
g11
I00
sg19
I01
sg37
F40.0
sg20
I00
sbsg669
g0
(g370
g2
Ntp676
Rp677
(dp678
g11
I00
sg19
I01
sg37
F17.3
sg20
I00
sbsg670
g0
(g103
g2
Ntp679
Rp680
(dp681
g11
I00
sg19
I01
sg37
I206
sg20
I00
sbsg671
g0
(g484
g14
(lp682
I0
atp683
Rp684
(dp685
g11
I00
sg19
I01
sg20
I00
sbsg672
g0
(g484
g14
(lp686
F0.0006252
atp687
Rp688
(dp689
g11
I00
sg19
I01
sg20
I00
sbsbsg38
(lp690
S'toGet'
p691
ag585
ag589
ag593
ag479
ag598
aS'useIeta18depth1'
p692
aS'killHE'
p693
aS'useHBUpgrade'
p694
aS'hbUpgrade'
p695
aS'testHEPlan1'
p696
aS'iLumi'
p697
aS'testHFQIE10'
p698
aS'HBmeanenergies'
p699
ag581
aS'GainWidthsForTrigPrims'
p700
aS'HBreCalibCutoff'
p701
aS'HFRecalibration'
p702
aS'ho'
p703
aS'hb'
p704
aS'hf'
p705
aS'he'
p706
aS'HERecalibration'
p707
aS'useHFUpgrade'
p708
aS'HEreCalibCutoff'
p709
aS'SiPMCharacteristics'
p710
aS'useHOUpgrade'
p711
aS'hfUpgrade'
p712
asg69
S'/cvmfs/cms.cern.ch/slc7_amd64_gcc700/cms/cmssw-patch/CMSSW_10_2_4_patch1/python/CalibCalorimetry/HcalPlugins/Hcal_Conditions_forGlobalTag_cff.py'
p713
sg692
g0
(g33
g2
Ntp714
Rp715
(dp716
g11
I00
sg19
I01
sg37
I01
sg20
I00
sbsg693
g0
(g33
g2
Ntp717
Rp718
(dp719
g11
I00
sg19
I01
sg37
I00
sg20
I00
sbsg694
g0
(g33
g2
Ntp720
Rp721
(dp722
g11
I00
sg19
I01
sg37
I00
sg20
I00
sbsg695
g0
(g28
g2
Ntp723
Rp724
(dp725
g11
I00
sg19
I01
sg602
g0
(g103
g2
Ntp726
Rp727
(dp728
g11
I00
sg19
I01
sg37
I2
sg20
I00
sbsg20
I00
sg606
g0
(g370
g2
Ntp729
Rp730
(dp731
g11
I00
sg19
I01
sg37
F1.5
sg20
I00
sbsg610
g0
(g103
g2
Ntp732
Rp733
(dp734
g11
I00
sg19
I01
sg37
I206
sg20
I00
sbsg614
g0
(g103
g2
Ntp735
Rp736
(dp737
g11
I00
sg19
I01
sg37
I16
sg20
I00
sbsg618
g0
(g484
g14
(lp738
F0.01
aF0.015
atp739
Rp740
(dp741
g11
I00
sg19
I01
sg20
I00
sbsg623
g0
(g484
g14
(lp742
F0.0
aF0.0
aF0.0
aF0.0
atp743
Rp744
(dp745
g11
I00
sg19
I01
sg20
I00
sbsg628
g0
(g484
g14
(lp746
F0.05376
aF0.05376
aF0.05376
aF0.05376
atp747
Rp748
(dp749
g11
I00
sg19
I01
sg20
I00
sbsg633
g0
(g28
g2
Ntp750
Rp751
(dp752
g11
I00
sg19
I01
sg637
g0
(g370
g2
Ntp753
Rp754
(dp755
g11
I00
sg19
I01
sg37
I-5
sg20
I00
sbsg20
I00
sg641
g0
(g484
g14
(lp756
F5.543e-10
aF8.012e-10
atp757
Rp758
(dp759
g11
I00
sg19
I01
sg20
I00
sbsg646
g0
(g370
g2
Ntp760
Rp761
(dp762
g11
I00
sg19
I01
sg37
I20
sg20
I00
sbsg650
g0
(g370
g2
Ntp763
Rp764
(dp765
g11
I00
sg19
I01
sg37
F0.0631
sg20
I00
sbsg654
g0
(g370
g2
Ntp766
Rp767
(dp768
g11
I00
sg19
I01
sg37
I150
sg20
I00
sbsg38
(lp769
g637
ag641
ag646
ag650
ag654
ag659
asg659
g0
(g370
g2
Ntp770
Rp771
(dp772
g11
I00
sg19
I01
sg37
F367000000.0
sg20
I00
sbsbsg663
g0
(g33
g2
Ntp773
Rp774
(dp775
g11
I00
sg19
I01
sg37
I01
sg20
I00
sbsg38
(lp776
g602
ag606
ag610
ag614
ag668
ag623
ag628
ag633
ag663
ag618
ag669
ag670
ag671
ag672
asg668
g0
(g370
g2
Ntp777
Rp778
(dp779
g11
I00
sg19
I01
sg37
F40.0
sg20
I00
sbsg669
g0
(g370
g2
Ntp780
Rp781
(dp782
g11
I00
sg19
I01
sg37
F17.3
sg20
I00
sbsg670
g0
(g103
g2
Ntp783
Rp784
(dp785
g11
I00
sg19
I01
sg37
I206
sg20
I00
sbsg671
g0
(g484
g14
(lp786
I0
atp787
Rp788
(dp789
g11
I00
sg19
I01
sg20
I00
sbsg672
g0
(g484
g14
(lp790
F0.0006252
atp791
Rp792
(dp793
g11
I00
sg19
I01
sg20
I00
sbsbsg46
S'HcalHardcodeCalibrations'
p794
sg696
g0
(g33
g2
Ntp795
Rp796
(dp797
g11
I00
sg19
I01
sg37
I00
sg20
I00
sbsg697
g0
(g370
g2
Ntp798
Rp799
(dp800
g11
I00
sg19
I01
sg37
F-1.0
sg20
I00
sbsg698
g0
(g33
g2
Ntp801
Rp802
(dp803
g11
I00
sg19
I01
sg37
I00
sg20
I00
sbsg699
g0
(g571
g2
Ntp804
Rp805
(dp806
g11
I00
sg19
I01
sg37
S'CalibCalorimetry/HcalPlugins/data/meanenergiesHB.txt'
p807
sg20
I00
sbsg691
g0
(g13
g14
(lp808
S'GainWidths'
p809
atp810
Rp811
(dp812
g11
I00
sg19
I00
sg20
I00
sg21
I1
sbsg700
g0
(g33
g2
Ntp813
Rp814
(dp815
g11
I00
sg19
I01
sg37
I00
sg20
I00
sbsg701
g0
(g370
g2
Ntp816
Rp817
(dp818
g11
I00
sg19
I01
sg37
F20.0
sg20
I00
sbsg702
g0
(g33
g2
Ntp819
Rp820
(dp821
g11
I00
sg19
I01
sg37
I00
sg20
I00
sbsg703
g0
(g28
g2
Ntp822
Rp823
(dp824
g11
I00
sg19
I01
sg602
g0
(g103
g2
Ntp825
Rp826
(dp827
g11
I00
sg19
I01
sg37
I0
sg20
I00
sbsg20
I00
sg606
g0
(g370
g2
Ntp828
Rp829
(dp830
g11
I00
sg19
I01
sg37
F0.6285
sg20
I00
sbsg610
g0
(g103
g2
Ntp831
Rp832
(dp833
g11
I00
sg19
I01
sg37
I201
sg20
I00
sbsg614
g0
(g103
g2
Ntp834
Rp835
(dp836
g11
I00
sg19
I01
sg37
I24
sg20
I00
sbsg618
g0
(g484
g14
(lp837
F0.0
atp838
Rp839
(dp840
g11
I00
sg19
I01
sg20
I00
sbsg623
g0
(g484
g14
(lp841
F-0.44
aF1.4
aF7.1
aF38.5
atp842
Rp843
(dp844
g11
I00
sg19
I01
sg20
I00
sbsg628
g0
(g484
g14
(lp845
F0.907
aF0.915
aF0.92
aF0.921
atp846
Rp847
(dp848
g11
I00
sg19
I01
sg20
I00
sbsg672
g0
(g484
g14
(lp849
F0.006
aF0.0087
atp850
Rp851
(dp852
g11
I00
sg19
I01
sg20
I00
sbsg663
g0
(g33
g2
Ntp853
Rp854
(dp855
g11
I00
sg19
I01
sg37
I00
sg20
I00
sbsg38
(lp856
g602
ag606
ag610
ag614
ag668
ag623
ag628
ag672
ag663
ag618
ag669
ag670
ag671
asg668
g0
(g370
g2
Ntp857
Rp858
(dp859
g11
I00
sg19
I01
sg37
F4.0
sg20
I00
sbsg669
g0
(g370
g2
Ntp860
Rp861
(dp862
g11
I00
sg19
I01
sg37
F12.06
sg20
I00
sbsg670
g0
(g103
g2
Ntp863
Rp864
(dp865
g11
I00
sg19
I01
sg37
I201
sg20
I00
sbsg671
g0
(g484
g14
(lp866
F0.0
aF0.0
atp867
Rp868
(dp869
g11
I00
sg19
I01
sg20
I00
sbsbsg704
g0
(g28
g2
Ntp870
Rp871
(dp872
g11
I00
sg19
I01
sg602
g0
(g103
g2
Ntp873
Rp874
(dp875
g11
I00
sg19
I01
sg37
I0
sg20
I00
sbsg20
I00
sg606
g0
(g370
g2
Ntp876
Rp877
(dp878
g11
I00
sg19
I01
sg37
F0.809
sg20
I00
sbsg610
g0
(g103
g2
Ntp879
Rp880
(dp881
g11
I00
sg19
I01
sg37
I105
sg20
I00
sbsg614
g0
(g103
g2
Ntp882
Rp883
(dp884
g11
I00
sg19
I01
sg37
I8
sg20
I00
sbsg618
g0
(g484
g14
(lp885
F0.0
atp886
Rp887
(dp888
g11
I00
sg19
I01
sg20
I00
sbsg623
g0
(g484
g14
(lp889
F-0.49
aF1.8
aF7.2
aF37.9
atp890
Rp891
(dp892
g11
I00
sg19
I01
sg20
I00
sbsg628
g0
(g484
g14
(lp893
F0.912
aF0.917
aF0.922
aF0.923
atp894
Rp895
(dp896
g11
I00
sg19
I01
sg20
I00
sbsg672
g0
(g484
g14
(lp897
F0.19
atp898
Rp899
(dp900
g11
I00
sg19
I01
sg20
I00
sbsg663
g0
(g33
g2
Ntp901
Rp902
(dp903
g11
I00
sg19
I01
sg37
I00
sg20
I00
sbsg38
(lp904
g602
ag606
ag610
ag614
ag668
ag623
ag628
ag672
ag663
ag618
ag669
ag670
ag671
asg668
g0
(g370
g2
Ntp905
Rp906
(dp907
g11
I00
sg19
I01
sg37
F0.3305
sg20
I00
sbsg669
g0
(g370
g2
Ntp908
Rp909
(dp910
g11
I00
sg19
I01
sg37
F3.285
sg20
I00
sbsg670
g0
(g103
g2
Ntp911
Rp912
(dp913
g11
I00
sg19
I01
sg37
I125
sg20
I00
sbsg671
g0
(g484
g14
(lp914
F0.0
atp915
Rp916
(dp917
g11
I00
sg19
I01
sg20
I00
sbsbsg705
g0
(g28
g2
Ntp918
Rp919
(dp920
g11
I00
sg19
I01
sg602
g0
(g103
g2
Ntp921
Rp922
(dp923
g11
I00
sg19
I01
sg37
I0
sg20
I00
sbsg20
I00
sg606
g0
(g370
g2
Ntp924
Rp925
(dp926
g11
I00
sg19
I01
sg37
F2.516
sg20
I00
sbsg610
g0
(g103
g2
Ntp927
Rp928
(dp929
g11
I00
sg19
I01
sg37
I301
sg20
I00
sbsg614
g0
(g103
g2
Ntp930
Rp931
(dp932
g11
I00
sg19
I01
sg37
I-9999
sg20
I00
sbsg618
g0
(g484
g14
(lp933
F0.0
atp934
Rp935
(dp936
g11
I00
sg19
I01
sg20
I00
sbsg623
g0
(g484
g14
(lp937
F-0.87
aF1.4
aF7.8
aF-29.6
atp938
Rp939
(dp940
g11
I00
sg19
I01
sg20
I00
sbsg628
g0
(g484
g14
(lp941
F0.359
aF0.358
aF0.36
aF0.367
atp942
Rp943
(dp944
g11
I00
sg19
I01
sg20
I00
sbsg672
g0
(g484
g14
(lp945
F0.14
aF0.135
atp946
Rp947
(dp948
g11
I00
sg19
I01
sg20
I00
sbsg663
g0
(g33
g2
Ntp949
Rp950
(dp951
g11
I00
sg19
I01
sg37
I00
sg20
I00
sbsg38
(lp952
g602
ag606
ag610
ag614
ag668
ag623
ag628
ag672
ag663
ag618
ag669
ag670
ag671
asg668
g0
(g370
g2
Ntp953
Rp954
(dp955
g11
I00
sg19
I01
sg37
F0.0
sg20
I00
sbsg669
g0
(g370
g2
Ntp956
Rp957
(dp958
g11
I00
sg19
I01
sg37
F9.354
sg20
I00
sbsg670
g0
(g103
g2
Ntp959
Rp960
(dp961
g11
I00
sg19
I01
sg37
I301
sg20
I00
sbsg671
g0
(g484
g14
(lp962
F0.0
aF0.0
atp963
Rp964
(dp965
g11
I00
sg19
I01
sg20
I00
sbsbsg706
g0
(g28
g2
Ntp966
Rp967
(dp968
g11
I00
sg19
I01
sg602
g0
(g103
g2
Ntp969
Rp970
(dp971
g11
I00
sg19
I01
sg37
I0
sg20
I00
sbsg20
I00
sg606
g0
(g370
g2
Ntp972
Rp973
(dp974
g11
I00
sg19
I01
sg37
F0.9698
sg20
I00
sbsg610
g0
(g103
g2
Ntp975
Rp976
(dp977
g11
I00
sg19
I01
sg37
I105
sg20
I00
sbsg614
g0
(g103
g2
Ntp978
Rp979
(dp980
g11
I00
sg19
I01
sg37
I9
sg20
I00
sbsg618
g0
(g484
g14
(lp981
F0.0
atp982
Rp983
(dp984
g11
I00
sg19
I01
sg20
I00
sbsg623
g0
(g484
g14
(lp985
F-0.38
aF2.0
aF7.6
aF39.6
atp986
Rp987
(dp988
g11
I00
sg19
I01
sg20
I00
sbsg628
g0
(g484
g14
(lp989
F0.912
aF0.916
aF0.92
aF0.922
atp990
Rp991
(dp992
g11
I00
sg19
I01
sg20
I00
sbsg672
g0
(g484
g14
(lp993
F0.23
atp994
Rp995
(dp996
g11
I00
sg19
I01
sg20
I00
sbsg663
g0
(g33
g2
Ntp997
Rp998
(dp999
g11
I00
sg19
I01
sg37
I00
sg20
I00
sbsg38
(lp1000
g602
ag606
ag610
ag614
ag668
ag623
ag628
ag672
ag663
ag618
ag669
ag670
ag671
asg668
g0
(g370
g2
Ntp1001
Rp1002
(dp1003
g11
I00
sg19
I01
sg37
F0.3305
sg20
I00
sbsg669
g0
(g370
g2
Ntp1004
Rp1005
(dp1006
g11
I00
sg19
I01
sg37
F3.163
sg20
I00
sbsg670
g0
(g103
g2
Ntp1007
Rp1008
(dp1009
g11
I00
sg19
I01
sg37
I125
sg20
I00
sbsg671
g0
(g484
g14
(lp1010
I0
atp1011
Rp1012
(dp1013
g11
I00
sg19
I01
sg20
I00
sbsbsg20
I00
sg707
g0
(g33
g2
Ntp1014
Rp1015
(dp1016
g11
I00
sg19
I01
sg37
I00
sg20
I00
sbsg708
g0
(g33
g2
Ntp1017
Rp1018
(dp1019
g11
I00
sg19
I01
sg37
I00
sg20
I00
sbsg709
g0
(g370
g2
Ntp1020
Rp1021
(dp1022
g11
I00
sg19
I01
sg37
F20.0
sg20
I00
sbsg710
g0
(cFWCore.ParameterSet.Types
VPSet
p1023
g14
(lp1024
g0
(g28
g2
Ntp1025
Rp1026
(dp1027
g11
I00
sg19
I01
sg20
I00
sS'crosstalk'
p1028
g0
(g370
g2
Ntp1029
Rp1030
(dp1031
g11
I00
sg19
I01
sg37
F0.0
sg20
I00
sbsS'nonlin1'
p1032
g0
(g370
g2
Ntp1033
Rp1034
(dp1035
g11
I00
sg19
I01
sg37
F1.0
sg20
I00
sbsS'nonlin3'
p1036
g0
(g370
g2
Ntp1037
Rp1038
(dp1039
g11
I00
sg19
I01
sg37
F0.0
sg20
I00
sbsS'nonlin2'
p1040
g0
(g370
g2
Ntp1041
Rp1042
(dp1043
g11
I00
sg19
I01
sg37
F0.0
sg20
I00
sbsg38
(lp1044
g1032
ag1036
ag1040
aS'pixels'
p1045
ag1028
asg1045
g0
(g103
g2
Ntp1046
Rp1047
(dp1048
g11
I00
sg19
I01
sg37
I36000
sg20
I00
sbsbag0
(g28
g2
Ntp1049
Rp1050
(dp1051
g11
I00
sg19
I01
sg20
I00
sg1028
g0
(g370
g2
Ntp1052
Rp1053
(dp1054
g11
I00
sg19
I01
sg37
F0.0
sg20
I00
sbsg1032
g0
(g370
g2
Ntp1055
Rp1056
(dp1057
g11
I00
sg19
I01
sg37
F1.0
sg20
I00
sbsg1036
g0
(g370
g2
Ntp1058
Rp1059
(dp1060
g11
I00
sg19
I01
sg37
F0.0
sg20
I00
sbsg1040
g0
(g370
g2
Ntp1061
Rp1062
(dp1063
g11
I00
sg19
I01
sg37
F0.0
sg20
I00
sbsg38
(lp1064
g1032
ag1036
ag1040
ag1045
ag1028
asg1045
g0
(g103
g2
Ntp1065
Rp1066
(dp1067
g11
I00
sg19
I01
sg37
I2500
sg20
I00
sbsbag0
(g28
g2
Ntp1068
Rp1069
(dp1070
g11
I00
sg19
I01
sg20
I00
sg1028
g0
(g370
g2
Ntp1071
Rp1072
(dp1073
g11
I00
sg19
I01
sg37
F0.17
sg20
I00
sbsg1032
g0
(g370
g2
Ntp1074
Rp1075
(dp1076
g11
I00
sg19
I01
sg37
F1.00985
sg20
I00
sbsg1036
g0
(g370
g2
Ntp1077
Rp1078
(dp1079
g11
I00
sg19
I01
sg37
F2.86282e-10
sg20
I00
sbsg1040
g0
(g370
g2
Ntp1080
Rp1081
(dp1082
g11
I00
sg19
I01
sg37
F7.84089e-06
sg20
I00
sbsg38
(lp1083
g1032
ag1036
ag1040
ag1045
ag1028
asg1045
g0
(g103
g2
Ntp1084
Rp1085
(dp1086
g11
I00
sg19
I01
sg37
I27370
sg20
I00
sbsbag0
(g28
g2
Ntp1087
Rp1088
(dp1089
g11
I00
sg19
I01
sg20
I00
sg1028
g0
(g370
g2
Ntp1090
Rp1091
(dp1092
g11
I00
sg19
I01
sg37
F0.196
sg20
I00
sbsg1032
g0
(g370
g2
Ntp1093
Rp1094
(dp1095
g11
I00
sg19
I01
sg37
F1.00546
sg20
I00
sbsg1036
g0
(g370
g2
Ntp1096
Rp1097
(dp1098
g11
I00
sg19
I01
sg37
F1.27011e-10
sg20
I00
sbsg1040
g0
(g370
g2
Ntp1099
Rp1100
(dp1101
g11
I00
sg19
I01
sg37
F6.40239e-06
sg20
I00
sbsg38
(lp1102
g1032
ag1036
ag1040
ag1045
ag1028
asg1045
g0
(g103
g2
Ntp1103
Rp1104
(dp1105
g11
I00
sg19
I01
sg37
I38018
sg20
I00
sbsbag0
(g28
g2
Ntp1106
Rp1107
(dp1108
g11
I00
sg19
I01
sg20
I00
sg1028
g0
(g370
g2
Ntp1109
Rp1110
(dp1111
g11
I00
sg19
I01
sg37
F0.17
sg20
I00
sbsg1032
g0
(g370
g2
Ntp1112
Rp1113
(dp1114
g11
I00
sg19
I01
sg37
F1.00985
sg20
I00
sbsg1036
g0
(g370
g2
Ntp1115
Rp1116
(dp1117
g11
I00
sg19
I01
sg37
F2.86282e-10
sg20
I00
sbsg1040
g0
(g370
g2
Ntp1118
Rp1119
(dp1120
g11
I00
sg19
I01
sg37
F7.84089e-06
sg20
I00
sbsg38
(lp1121
g1032
ag1036
ag1040
ag1045
ag1028
asg1045
g0
(g103
g2
Ntp1122
Rp1123
(dp1124
g11
I00
sg19
I01
sg37
I27370
sg20
I00
sbsbag0
(g28
g2
Ntp1125
Rp1126
(dp1127
g11
I00
sg19
I01
sg20
I00
sg1028
g0
(g370
g2
Ntp1128
Rp1129
(dp1130
g11
I00
sg19
I01
sg37
F0.196
sg20
I00
sbsg1032
g0
(g370
g2
Ntp1131
Rp1132
(dp1133
g11
I00
sg19
I01
sg37
F1.00546
sg20
I00
sbsg1036
g0
(g370
g2
Ntp1134
Rp1135
(dp1136
g11
I00
sg19
I01
sg37
F1.27011e-10
sg20
I00
sbsg1040
g0
(g370
g2
Ntp1137
Rp1138
(dp1139
g11
I00
sg19
I01
sg37
F6.40239e-06
sg20
I00
sbsg38
(lp1140
g1032
ag1036
ag1040
ag1045
ag1028
asg1045
g0
(g103
g2
Ntp1141
Rp1142
(dp1143
g11
I00
sg19
I01
sg37
I38018
sg20
I00
sbsbag0
(g28
g2
Ntp1144
Rp1145
(dp1146
g11
I00
sg19
I01
sg20
I00
sg1028
g0
(g370
g2
Ntp1147
Rp1148
(dp1149
g11
I00
sg19
I01
sg37
F0.0
sg20
I00
sbsg1032
g0
(g370
g2
Ntp1150
Rp1151
(dp1152
g11
I00
sg19
I01
sg37
F1.0
sg20
I00
sbsg1036
g0
(g370
g2
Ntp1153
Rp1154
(dp1155
g11
I00
sg19
I01
sg37
F0.0
sg20
I00
sbsg1040
g0
(g370
g2
Ntp1156
Rp1157
(dp1158
g11
I00
sg19
I01
sg37
F0.0
sg20
I00
sbsg38
(lp1159
g1032
ag1036
ag1040
ag1045
ag1028
asg1045
g0
(g103
g2
Ntp1160
Rp1161
(dp1162
g11
I00
sg19
I01
sg37
I0
sg20
I00
sbsbatp1163
Rp1164
(dp1165
g11
I00
sg19
I01
sg20
I00
sg21
I1
sbsg290
g577
sg711
g0
(g33
g2
Ntp1166
Rp1167
(dp1168
g11
I00
sg19
I01
sg37
I01
sg20
I00
sbsg712
g0
(g28
g2
Ntp1169
Rp1170
(dp1171
g11
I00
sg19
I01
sg602
g0
(g103
g2
Ntp1172
Rp1173
(dp1174
g11
I00
sg19
I01
sg37
I1
sg20
I00
sbsg20
I00
sg606
g0
(g370
g2
Ntp1175
Rp1176
(dp1177
g11
I00
sg19
I01
sg37
F3.33
sg20
I00
sbsg610
g0
(g103
g2
Ntp1178
Rp1179
(dp1180
g11
I00
sg19
I01
sg37
I301
sg20
I00
sbsg614
g0
(g103
g2
Ntp1181
Rp1182
(dp1183
g11
I00
sg19
I01
sg37
I-9999
sg20
I00
sbsg618
g0
(g484
g14
(lp1184
F0.0
atp1185
Rp1186
(dp1187
g11
I00
sg19
I01
sg20
I00
sbsg623
g0
(g484
g14
(lp1188
F0.0697
aF-0.7405
aF12.38
aF-671.9
atp1189
Rp1190
(dp1191
g11
I00
sg19
I01
sg20
I00
sbsg628
g0
(g484
g14
(lp1192
F0.297
aF0.298
aF0.298
aF0.313
atp1193
Rp1194
(dp1195
g11
I00
sg19
I01
sg20
I00
sbsg672
g0
(g484
g14
(lp1196
F0.14
aF0.135
atp1197
Rp1198
(dp1199
g11
I00
sg19
I01
sg20
I00
sbsg663
g0
(g33
g2
Ntp1200
Rp1201
(dp1202
g11
I00
sg19
I01
sg37
I00
sg20
I00
sbsg38
(lp1203
g602
ag606
ag610
ag614
ag668
ag623
ag628
ag672
ag663
ag618
ag669
ag670
ag671
asg668
g0
(g370
g2
Ntp1204
Rp1205
(dp1206
g11
I00
sg19
I01
sg37
F0.0
sg20
I00
sbsg669
g0
(g370
g2
Ntp1207
Rp1208
(dp1209
g11
I00
sg19
I01
sg37
F13.33
sg20
I00
sbsg670
g0
(g103
g2
Ntp1210
Rp1211
(dp1212
g11
I00
sg19
I01
sg37
I301
sg20
I00
sbsg671
g0
(g484
g14
(lp1213
F0.0
aF0.0
atp1214
Rp1215
(dp1216
g11
I00
sg19
I01
sg20
I00
sbsbsbsS'GlobalTag'
p1217
g0
(g565
g2
Ntp1218
Rp1219
(dp1220
g38
(lp1221
S'DBParameters'
p1222
aS'connect'
p1223
aS'globaltag'
p1224
aS'RefreshEachRun'
p1225
aS'pfnPrefix'
p1226
aS'snapshotTime'
p1227
ag691
aS'pfnPostfix'
p1228
aS'RefreshAlways'
p1229
aS'ReconnectEachRun'
p1230
aS'RefreshOpenIOVs'
p1231
aS'DumpStat'
p1232
asg11
I00
sg69
S'/cvmfs/cms.cern.ch/slc7_amd64_gcc700/cms/cmssw-patch/CMSSW_10_2_4_patch1/python/CondCore/ESSources/CondDBESSource_cfi.py'
p1233
sg20
I01
sg1224
g0
(g164
g2
Ntp1234
Rp1235
(dp1236
g11
I00
sg19
I01
sg37
S'92X_dataRun2_Prompt_v4'
p1237
sg20
I01
sbsg1225
g0
(g33
g2
Ntp1238
Rp1239
(dp1240
g11
I00
sg19
I00
sg37
I00
sg20
I00
sbsg1226
g0
(g164
g2
Ntp1241
Rp1242
(dp1243
g11
I00
sg19
I00
sg37
g283
sg20
I00
sbsg1227
g0
(g164
g2
Ntp1244
Rp1245
(dp1246
g11
I00
sg19
I01
sg37
g283
sg20
I00
sbsg691
g0
(g1023
g14
(lp1247
tp1248
Rp1249
(dp1250
g11
I00
sg19
I01
sg20
I00
sg21
I1
sbsg1228
g0
(g164
g2
Ntp1251
Rp1252
(dp1253
g11
I00
sg19
I00
sg37
g283
sg20
I00
sbsg1222
g0
(g28
g2
Ntp1254
Rp1255
(dp1256
g11
I00
sg19
I01
sS'authenticationPath'
p1257
g0
(g164
g2
Ntp1258
Rp1259
(dp1260
g11
I00
sg19
I00
sg37
g283
sg20
I00
sbsg20
I00
sS'messageLevel'
p1261
g0
(g103
g2
Ntp1262
Rp1263
(dp1264
g11
I00
sg19
I00
sg37
I0
sg20
I00
sbsg38
(lp1265
g1261
aS'security'
p1266
aS'authenticationSystem'
p1267
ag1257
asg1266
g0
(g164
g2
Ntp1268
Rp1269
(dp1270
g11
I00
sg19
I00
sg37
g283
sg20
I00
sbsg1267
g0
(g103
g2
Ntp1271
Rp1272
(dp1273
g11
I00
sg19
I00
sg37
I0
sg20
I00
sbsbsg1229
g0
(g33
g2
Ntp1274
Rp1275
(dp1276
g11
I00
sg19
I00
sg37
I00
sg20
I00
sbsg40
I19
sg1223
g0
(g164
g2
Ntp1277
Rp1278
(dp1279
g11
I00
sg19
I01
sg37
S'frontier://FrontierProd/CMS_CONDITIONS'
p1280
sg20
I00
sbsg1230
g0
(g33
g2
Ntp1281
Rp1282
(dp1283
g11
I00
sg19
I00
sg37
I00
sg20
I00
sbsg290
g1217
sg1231
g0
(g33
g2
Ntp1284
Rp1285
(dp1286
g11
I00
sg19
I00
sg37
I00
sg20
I00
sbsg1232
g0
(g33
g2
Ntp1287
Rp1288
(dp1289
g11
I00
sg19
I00
sg37
I00
sg20
I00
sbsg46
S'PoolDBESSource'
p1290
sbsS'HcalTimeSlewEP'
p1291
g0
(g565
g2
Ntp1292
Rp1293
(dp1294
g38
(lp1295
S'timeSlewParametersM3'
p1296
aS'timeSlewParametersM2'
p1297
aS'appendToDataLabel'
p1298
asg11
I00
sg1296
g0
(g1023
g14
(lp1299
g0
(g28
g2
Ntp1300
Rp1301
(dp1302
g11
I00
sg19
I01
sS'tspar2'
p1303
g0
(g370
g2
Ntp1304
Rp1305
(dp1306
g11
I00
sg19
I01
sg37
F0.0
sg20
I00
sbsg20
I00
sS'tspar0'
p1307
g0
(g370
g2
Ntp1308
Rp1309
(dp1310
g11
I00
sg19
I01
sg37
F12.2999
sg20
I00
sbsS'tspar1'
p1311
g0
(g370
g2
Ntp1312
Rp1313
(dp1314
g11
I00
sg19
I01
sg37
F-2.19142
sg20
I00
sbsS'tspar1_siPM'
p1315
g0
(g370
g2
Ntp1316
Rp1317
(dp1318
g11
I00
sg19
I01
sg37
F0.0
sg20
I00
sbsS'cap'
p1319
g0
(g370
g2
Ntp1320
Rp1321
(dp1322
g11
I00
sg19
I01
sg37
F6.0
sg20
I00
sbsS'tspar0_siPM'
p1323
g0
(g370
g2
Ntp1324
Rp1325
(dp1326
g11
I00
sg19
I01
sg37
F0.0
sg20
I00
sbsg38
(lp1327
g1303
ag1307
ag1311
ag1315
ag1319
ag1323
aS'tspar2_siPM'
p1328
asg1328
g0
(g370
g2
Ntp1329
Rp1330
(dp1331
g11
I00
sg19
I01
sg37
F0.0
sg20
I00
sbsbag0
(g28
g2
Ntp1332
Rp1333
(dp1334
g11
I00
sg19
I01
sg1303
g0
(g370
g2
Ntp1335
Rp1336
(dp1337
g11
I00
sg19
I01
sg37
F32.0
sg20
I00
sbsg20
I00
sg1307
g0
(g370
g2
Ntp1338
Rp1339
(dp1340
g11
I00
sg19
I01
sg37
F15.5
sg20
I00
sbsg1311
g0
(g370
g2
Ntp1341
Rp1342
(dp1343
g11
I00
sg19
I01
sg37
F-3.2
sg20
I00
sbsg1315
g0
(g370
g2
Ntp1344
Rp1345
(dp1346
g11
I00
sg19
I01
sg37
F0.0
sg20
I00
sbsg1319
g0
(g370
g2
Ntp1347
Rp1348
(dp1349
g11
I00
sg19
I01
sg37
F6.0
sg20
I00
sbsg1323
g0
(g370
g2
Ntp1350
Rp1351
(dp1352
g11
I00
sg19
I01
sg37
F0.0
sg20
I00
sbsg38
(lp1353
g1303
ag1307
ag1311
ag1315
ag1319
ag1323
ag1328
asg1328
g0
(g370
g2
Ntp1354
Rp1355
(dp1356
g11
I00
sg19
I01
sg37
F0.0
sg20
I00
sbsbag0
(g28
g2
Ntp1357
Rp1358
(dp1359
g11
I00
sg19
I01
sg1303
g0
(g370
g2
Ntp1360
Rp1361
(dp1362
g11
I00
sg19
I01
sg37
F0.0
sg20
I00
sbsg20
I00
sg1307
g0
(g370
g2
Ntp1363
Rp1364
(dp1365
g11
I00
sg19
I01
sg37
F12.2999
sg20
I00
sbsg1311
g0
(g370
g2
Ntp1366
Rp1367
(dp1368
g11
I00
sg19
I01
sg37
F-2.19142
sg20
I00
sbsg1315
g0
(g370
g2
Ntp1369
Rp1370
(dp1371
g11
I00
sg19
I01
sg37
F0.0
sg20
I00
sbsg1319
g0
(g370
g2
Ntp1372
Rp1373
(dp1374
g11
I00
sg19
I01
sg37
F6.0
sg20
I00
sbsg1323
g0
(g370
g2
Ntp1375
Rp1376
(dp1377
g11
I00
sg19
I01
sg37
F0.0
sg20
I00
sbsg38
(lp1378
g1303
ag1307
ag1311
ag1315
ag1319
ag1323
ag1328
asg1328
g0
(g370
g2
Ntp1379
Rp1380
(dp1381
g11
I00
sg19
I01
sg37
F0.0
sg20
I00
sbsbag0
(g28
g2
Ntp1382
Rp1383
(dp1384
g11
I00
sg19
I01
sg1303
g0
(g370
g2
Ntp1385
Rp1386
(dp1387
g11
I00
sg19
I01
sg37
F0.0
sg20
I00
sbsg20
I00
sg1307
g0
(g370
g2
Ntp1388
Rp1389
(dp1390
g11
I00
sg19
I01
sg37
F12.2999
sg20
I00
sbsg1311
g0
(g370
g2
Ntp1391
Rp1392
(dp1393
g11
I00
sg19
I01
sg37
F-2.19142
sg20
I00
sbsg1315
g0
(g370
g2
Ntp1394
Rp1395
(dp1396
g11
I00
sg19
I01
sg37
F0.0
sg20
I00
sbsg1319
g0
(g370
g2
Ntp1397
Rp1398
(dp1399
g11
I00
sg19
I01
sg37
F6.0
sg20
I00
sbsg1323
g0
(g370
g2
Ntp1400
Rp1401
(dp1402
g11
I00
sg19
I01
sg37
F0.0
sg20
I00
sbsg38
(lp1403
g1303
ag1307
ag1311
ag1315
ag1319
ag1323
ag1328
asg1328
g0
(g370
g2
Ntp1404
Rp1405
(dp1406
g11
I00
sg19
I01
sg37
F0.0
sg20
I00
sbsbatp1407
Rp1408
(dp1409
g11
I00
sg19
I01
sg20
I00
sg21
I1
sbsg1297
g0
(g1023
g14
(lp1410
g0
(g28
g2
Ntp1411
Rp1412
(dp1413
g11
I00
sg19
I01
sg20
I00
sS'slope'
p1414
g0
(g370
g2
Ntp1415
Rp1416
(dp1417
g11
I00
sg19
I01
sg37
F-3.178648
sg20
I00
sbsS'tmax'
p1418
g0
(g370
g2
Ntp1419
Rp1420
(dp1421
g11
I00
sg19
I01
sg37
F16.0
sg20
I00
sbsS'tzero'
p1422
g0
(g370
g2
Ntp1423
Rp1424
(dp1425
g11
I00
sg19
I01
sg37
F23.960177
sg20
I00
sbsg38
(lp1426
g1414
ag1418
ag1422
asbag0
(g28
g2
Ntp1427
Rp1428
(dp1429
g11
I00
sg19
I01
sg20
I00
sg1414
g0
(g370
g2
Ntp1430
Rp1431
(dp1432
g11
I00
sg19
I01
sg37
F-1.556668
sg20
I00
sbsg1418
g0
(g370
g2
Ntp1433
Rp1434
(dp1435
g11
I00
sg19
I01
sg37
F10.0
sg20
I00
sbsg1422
g0
(g370
g2
Ntp1436
Rp1437
(dp1438
g11
I00
sg19
I01
sg37
F13.307784
sg20
I00
sbsg38
(lp1439
g1414
ag1418
ag1422
asbag0
(g28
g2
Ntp1440
Rp1441
(dp1442
g11
I00
sg19
I01
sg20
I00
sg1414
g0
(g370
g2
Ntp1443
Rp1444
(dp1445
g11
I00
sg19
I01
sg37
F-1.075824
sg20
I00
sbsg1418
g0
(g370
g2
Ntp1446
Rp1447
(dp1448
g11
I00
sg19
I01
sg37
F6.25
sg20
I00
sbsg1422
g0
(g370
g2
Ntp1449
Rp1450
(dp1451
g11
I00
sg19
I01
sg37
F9.109694
sg20
I00
sbsg38
(lp1452
g1414
ag1418
ag1422
asbatp1453
Rp1454
(dp1455
g11
I00
sg19
I01
sg20
I00
sg21
I1
sbsg20
I00
sg40
I23
sg69
S'/cvmfs/cms.cern.ch/slc7_amd64_gcc700/cms/cmssw-patch/CMSSW_10_2_4_patch1/python/CalibCalorimetry/HcalPlugins/HcalTimeSlew_cff.py'
p1456
sg1298
g0
(g164
g2
Ntp1457
Rp1458
(dp1459
g11
I00
sg19
I01
sg37
S'HBHE'
p1460
sg20
I00
sbsg290
g1291
sg46
g1291
sbssg356
g324
sg529
g531
sS'source'
p1461
g324
sS'CastorDbProducer'
p1462
g0
(g358
g2
Ntp1463
Rp1464
(dp1465
g38
(lp1466
g1298
asg11
I00
sg1298
g0
(g164
g2
Ntp1467
Rp1468
(dp1469
g11
I00
sg19
I01
sg37
g283
sg20
I00
sbsg20
I00
sg40
I53
sg69
g70
sg290
g1462
sg46
g1462
sbsS'_Process__vpsets'
p1470
(dp1471
sS'_Process__name'
p1472
S'analysis'
p1473
sg1291
g1293
sS'es_prefer_hcalHardcode'
p1474
g0
(cFWCore.ParameterSet.Modules
ESPrefer
p1475
g2
Ntp1476
Rp1477
(dp1478
g38
(lp1479
sg11
I00
sg20
I00
sS'_targetLabel'
p1480
g577
sg40
I89
sg69
g70
sg290
g1474
sg46
g794
sbsS'_Process__subProcesses'
p1481
(lp1482
sS'_cloneToObjectDict'
p1483
(dp1484
I139794442171472
g540
sI139794442241168
g258
sI139794442624912
g436
sI139794442139344
g0
(g358
g2
Ntp1485
Rp1486
(dp1487
g38
(lp1488
S'PreFilter'
p1489
ag364
aS'NSigmaInside'
p1490
asg11
I00
sg20
I00
sg69
g70
sg364
g0
(g164
g2
Ntp1491
Rp1492
(dp1493
g11
I00
sg19
I01
sg37
S'StandardMatcher'
p1494
sg20
I00
sbsg1489
g0
(g33
g2
Ntp1495
Rp1496
(dp1497
g11
I00
sg19
I01
sg37
I00
sg20
I00
sbsg40
I53
sg1490
g0
(g370
g2
Ntp1498
Rp1499
(dp1500
g11
I00
sg19
I01
sg37
F3.0
sg20
I00
sbsg290
S'SiStripRecHitMatcherESProducer'
p1501
sg46
g1501
sbsI139794442528528
g481
sI139794442139472
g0
(g358
g2
Ntp1502
Rp1503
(dp1504
g38
(lp1505
sg11
I00
sg20
I00
sg40
I53
sg69
g70
sg290
S'sistripconn'
p1506
sg46
S'SiStripConnectivity'
p1507
sbsI139794442139920
g269
sI139794442623312
g0
(g358
g2
Ntp1508
Rp1509
(dp1510
g38
(lp1511
S'printDebug'
p1512
ag1298
aS'APVGain'
p1513
aS'AutomaticNormalization'
p1514
asg11
I00
sg1298
g0
(g164
g2
Ntp1515
Rp1516
(dp1517
g11
I00
sg19
I01
sg37
g283
sg20
I00
sbsg20
I00
sg1514
g0
(g33
g2
Ntp1518
Rp1519
(dp1520
g11
I00
sg19
I01
sg37
I00
sg20
I00
sbsg40
I53
sg1512
g0
(g33
g2
Ntp1521
Rp1522
(dp1523
g11
I00
sg19
I00
sg37
I00
sg20
I00
sbsg69
g70
sg1513
g0
(g1023
g14
(lp1524
g0
(g28
g2
Ntp1525
Rp1526
(dp1527
g11
I00
sg19
I01
sg20
I00
sS'Label'
p1528
g0
(g164
g2
Ntp1529
Rp1530
(dp1531
g11
I00
sg19
I00
sg37
g283
sg20
I00
sbsS'Record'
p1532
g0
(g164
g2
Ntp1533
Rp1534
(dp1535
g11
I00
sg19
I01
sg37
S'SiStripApvGainRcd'
p1536
sg20
I00
sbsS'NormalizationFactor'
p1537
g0
(g370
g2
Ntp1538
Rp1539
(dp1540
g11
I00
sg19
I00
sg37
F1.0
sg20
I00
sbsg38
(lp1541
g1532
ag1537
ag1528
asbag0
(g28
g2
Ntp1542
Rp1543
(dp1544
g11
I00
sg19
I01
sg20
I00
sg1528
g0
(g164
g2
Ntp1545
Rp1546
(dp1547
g11
I00
sg19
I00
sg37
g283
sg20
I00
sbsg1532
g0
(g164
g2
Ntp1548
Rp1549
(dp1550
g11
I00
sg19
I01
sg37
S'SiStripApvGain2Rcd'
p1551
sg20
I00
sbsg1537
g0
(g370
g2
Ntp1552
Rp1553
(dp1554
g11
I00
sg19
I00
sg37
F1.0
sg20
I00
sbsg38
(lp1555
g1532
ag1537
ag1528
asbatp1556
Rp1557
(dp1558
g11
I00
sg19
I01
sg20
I00
sg21
I1
sbsg290
S'siStripGainESProducer'
p1559
sg46
S'SiStripGainESProducer'
p1560
sbsI139794442140112
g0
(g358
g2
Ntp1561
Rp1562
(dp1563
g38
(lp1564
S'ListOfRecordToMerge'
p1565
asg11
I00
sg20
I01
sg40
I53
sg69
g70
sg1565
g0
(g1023
g14
(lp1566
g0
(g28
g2
Ntp1567
Rp1568
(dp1569
g11
I00
sg19
I01
sg20
I00
sg449
g0
(g164
g2
Ntp1570
Rp1571
(dp1572
g11
I00
sg19
I01
sg37
S'SiPixelQualityFromDbRcd'
p1573
sg20
I00
sbsS'tag'
p1574
g0
(g164
g2
Ntp1575
Rp1576
(dp1577
g11
I00
sg19
I01
sg37
g283
sg20
I00
sbsg38
(lp1578
g449
ag1574
asbag0
(g28
g2
Ntp1579
Rp1580
(dp1581
g11
I00
sg19
I01
sg20
I00
sg449
g0
(g164
g2
Ntp1582
Rp1583
(dp1584
g11
I00
sg19
I01
sg37
S'SiPixelDetVOffRcd'
p1585
sg20
I00
sbsg1574
g0
(g164
g2
Ntp1586
Rp1587
(dp1588
g11
I00
sg19
I01
sg37
g283
sg20
I00
sbsg38
(lp1589
g449
ag1574
asbatp1590
Rp1591
(dp1592
g11
I00
sg19
I01
sg20
I00
sg21
I1
sbsg290
S'siPixelQualityESProducer'
p1593
sg46
S'SiPixelQualityESProducer'
p1594
sbsI139794442590736
g579
sI139794442241104
g567
sI139794442140816
g531
sI139794442624208
g0
(g358
g2
Ntp1595
Rp1596
(dp1597
g38
(lp1598
g439
aS'LorentzAngleDeconvMode'
p1599
aS'LorentzAnglePeakMode'
p1600
asg11
I00
sg20
I00
sg40
I53
sg69
g70
sg439
g0
(g28
g2
Ntp1601
Rp1602
(dp1603
g11
I00
sg19
I01
sg20
I00
sg445
g0
(g164
g2
Ntp1604
Rp1605
(dp1606
g11
I00
sg19
I00
sg37
g283
sg20
I00
sbsg449
g0
(g164
g2
Ntp1607
Rp1608
(dp1609
g11
I00
sg19
I01
sg37
g453
sg20
I00
sbsg38
(lp1610
g449
ag445
asbsg290
S'siStripLorentzAngleDepESProducer'
p1611
sg1600
g0
(g28
g2
Ntp1612
Rp1613
(dp1614
g11
I00
sg19
I01
sg20
I00
sg445
g0
(g164
g2
Ntp1615
Rp1616
(dp1617
g11
I00
sg19
I00
sg37
g461
sg20
I00
sbsg449
g0
(g164
g2
Ntp1618
Rp1619
(dp1620
g11
I00
sg19
I01
sg37
S'SiStripLorentzAngleRcd'
p1621
sg20
I00
sbsg38
(lp1622
g449
ag445
asbsg46
S'SiStripLorentzAngleDepESProducer'
p1623
sg1599
g0
(g28
g2
Ntp1624
Rp1625
(dp1626
g11
I00
sg19
I01
sg20
I00
sg445
g0
(g164
g2
Ntp1627
Rp1628
(dp1629
g11
I00
sg19
I00
sg37
g473
sg20
I00
sbsg449
g0
(g164
g2
Ntp1630
Rp1631
(dp1632
g11
I00
sg19
I01
sg37
g1621
sg20
I00
sbsg38
(lp1633
g449
ag445
asbsbsI139794442528592
g549
sI139794443865424
g1219
sI139794442141264
g0
(g358
g2
Ntp1634
Rp1635
(dp1636
g38
(lp1637
g1298
aS'PrintDebugOutput'
p1638
aS'ThresholdForReducedGranularity'
p1639
aS'UseEmptyRunInfo'
p1640
aS'ReduceGranularity'
p1641
ag1565
asg11
I00
sg1298
g0
(g164
g2
Ntp1642
Rp1643
(dp1644
g11
I00
sg19
I01
sg37
g283
sg20
I00
sbsg20
I01
sg40
I53
sg69
g70
sg1639
g0
(g370
g2
Ntp1645
Rp1646
(dp1647
g11
I00
sg19
I01
sg37
F0.3
sg20
I00
sbsg290
S'siStripQualityESProducer'
p1648
sg1640
g0
(g33
g2
Ntp1649
Rp1650
(dp1651
g11
I00
sg19
I01
sg37
I00
sg20
I00
sbsg1641
g0
(g33
g2
Ntp1652
Rp1653
(dp1654
g11
I00
sg19
I01
sg37
I00
sg20
I00
sbsg1565
g0
(g1023
g14
(lp1655
g0
(g28
g2
Ntp1656
Rp1657
(dp1658
g11
I00
sg19
I01
sg20
I00
sg449
g0
(g164
g2
Ntp1659
Rp1660
(dp1661
g11
I00
sg19
I01
sg37
S'SiStripDetVOffRcd'
p1662
sg20
I00
sbsg1574
g0
(g164
g2
Ntp1663
Rp1664
(dp1665
g11
I00
sg19
I01
sg37
g283
sg20
I00
sbsg38
(lp1666
g449
ag1574
asbag0
(g28
g2
Ntp1667
Rp1668
(dp1669
g11
I00
sg19
I01
sg20
I00
sg449
g0
(g164
g2
Ntp1670
Rp1671
(dp1672
g11
I00
sg19
I01
sg37
S'SiStripDetCablingRcd'
p1673
sg20
I00
sbsg1574
g0
(g164
g2
Ntp1674
Rp1675
(dp1676
g11
I00
sg19
I01
sg37
g283
sg20
I00
sbsg38
(lp1677
g449
ag1574
asbag0
(g28
g2
Ntp1678
Rp1679
(dp1680
g11
I00
sg19
I01
sg20
I00
sg449
g0
(g164
g2
Ntp1681
Rp1682
(dp1683
g11
I00
sg19
I01
sg37
S'RunInfoRcd'
p1684
sg20
I00
sbsg1574
g0
(g164
g2
Ntp1685
Rp1686
(dp1687
g11
I00
sg19
I01
sg37
g283
sg20
I00
sbsg38
(lp1688
g449
ag1574
asbag0
(g28
g2
Ntp1689
Rp1690
(dp1691
g11
I00
sg19
I01
sg20
I00
sg449
g0
(g164
g2
Ntp1692
Rp1693
(dp1694
g11
I00
sg19
I01
sg37
S'SiStripBadChannelRcd'
p1695
sg20
I00
sbsg1574
g0
(g164
g2
Ntp1696
Rp1697
(dp1698
g11
I00
sg19
I01
sg37
g283
sg20
I00
sbsg38
(lp1699
g449
ag1574
asbag0
(g28
g2
Ntp1700
Rp1701
(dp1702
g11
I00
sg19
I01
sg20
I00
sg449
g0
(g164
g2
Ntp1703
Rp1704
(dp1705
g11
I00
sg19
I01
sg37
S'SiStripBadFiberRcd'
p1706
sg20
I00
sbsg1574
g0
(g164
g2
Ntp1707
Rp1708
(dp1709
g11
I00
sg19
I01
sg37
g283
sg20
I00
sbsg38
(lp1710
g449
ag1574
asbag0
(g28
g2
Ntp1711
Rp1712
(dp1713
g11
I00
sg19
I01
sg20
I00
sg449
g0
(g164
g2
Ntp1714
Rp1715
(dp1716
g11
I00
sg19
I01
sg37
S'SiStripBadModuleRcd'
p1717
sg20
I00
sbsg1574
g0
(g164
g2
Ntp1718
Rp1719
(dp1720
g11
I00
sg19
I01
sg37
g283
sg20
I00
sbsg38
(lp1721
g449
ag1574
asbag0
(g28
g2
Ntp1722
Rp1723
(dp1724
g11
I00
sg19
I01
sg20
I00
sg449
g0
(g164
g2
Ntp1725
Rp1726
(dp1727
g11
I00
sg19
I01
sg37
S'SiStripBadStripRcd'
p1728
sg20
I00
sbsg1574
g0
(g164
g2
Ntp1729
Rp1730
(dp1731
g11
I00
sg19
I01
sg37
g283
sg20
I00
sbsg38
(lp1732
g449
ag1574
asbatp1733
Rp1734
(dp1735
g11
I00
sg19
I01
sg20
I00
sg21
I1
sbsg46
S'SiStripQualityESProducer'
p1736
sg1638
g0
(g33
g2
Ntp1737
Rp1738
(dp1739
g11
I00
sg19
I01
sg37
I00
sg20
I00
sbsbsI139794442591952
g1477
sI139794443823568
g524
sI139794442137872
g507
sI139794442138000
g360
sI139794442527440
g1293
sI139794442621712
g1464
ssg1559
g1509
sg1506
g1503
sS'_Process__esprefers'
p1740
(dp1741
g1474
g1477
ssg1501
g1486
sg291
g269
sS'_Process__schedule'
p1742
Nsg1648
g1635
sg564
g567
sS'_Process__outputmodules'
p1743
(dp1744
sS'_Process__analyzers'
p1745
(dp1746
g291
g269
ssS'_Process__InExtendCall'
p1747
I00
sg1611
g1596
sS'_Process__modifiers'
p1748
(tsS'_Process__producers'
p1749
(dp1750
sg1593
g1562
sg1217
g1219
sS'_Process__filters'
p1751
(dp1752
sg577
g579
sS'_Process__looper'
p1753
NsS'_Process__endpaths'
p1754
g0
(cFWCore.ParameterSet.DictTypes
SortedKeysDict
p1755
c__builtin__
dict
p1756
(dp1757
tp1758
Rp1759
(dp1760
S'list'
p1761
(lp1762
sbsS'_Process__esproducers'
p1763
(dp1764
g1611
g1596
sg505
g507
sg1501
g1486
sg1593
g1562
sg547
g549
sg1559
g1509
sg1506
g1503
sg357
g360
sg1462
g1464
sg522
g524
sg434
g436
sg1648
g1635
ssS'_Process__tasks'
p1765
(dp1766
sS'_Process__paths'
p1767
g0
(g1755
g1756
(dp1768
g255
g258
stp1769
Rp1770
(dp1771
g1761
(lp1772
g255
asbsS'_Process__partialschedules'
p1773
(dp1774
sg538
g540
sS'_Process__isStrict'
p1775
I00
sb.