ccopy_reg
_reconstructor
p0
(cFWCore.ParameterSet.Config
Process
p1
c__builtin__
object
p2
Ntp3
Rp4
(dp5
S'MessageLogger'
p6
g0
(cFWCore.ParameterSet.Modules
Service
p7
g2
Ntp8
Rp9
(dp10
S'_isFrozen'
p11
I00
sS'suppressInfo'
p12
g0
(cFWCore.ParameterSet.Types
vstring
p13
c__builtin__
list
p14
(lp15
tp16
Rp17
(dp18
g11
I00
sS'_ParameterTypeBase__isTracked'
p19
I00
sS'_isModified'
p20
I00
sS'_nPerLine'
p21
I1
sbsS'suppressDebug'
p22
g0
(g13
g14
(lp23
tp24
Rp25
(dp26
g11
I00
sg19
I00
sg20
I00
sg21
I1
sbsS'cout'
p27
g0
(cFWCore.ParameterSet.Types
PSet
p28
g2
Ntp29
Rp30
(dp31
g11
I00
sg19
I00
sS'placeholder'
p32
g0
(cFWCore.ParameterSet.Types
bool
p33
g2
Ntp34
Rp35
(dp36
g11
I00
sg19
I00
sS'_value'
p37
I01
sg20
I00
sbsg20
I00
sS'_Parameterizable__parameterNames'
p38
(lp39
g32
asbsS'_lineNumber'
p40
I11
sS'debugModules'
p41
g0
(g13
g14
(lp42
tp43
Rp44
(dp45
g11
I00
sg19
I00
sg20
I00
sg21
I1
sbsS'_TypedParameterizable__type'
p46
g6
sS'fwkJobReports'
p47
g0
(g13
g14
(lp48
S'FrameworkJobReport'
p49
atp50
Rp51
(dp52
g11
I00
sg19
I00
sg20
I00
sg21
I1
sbsg38
(lp53
g12
aS'debugs'
p54
ag22
ag27
aS'cerr_stats'
p55
aS'warnings'
p56
aS'default'
p57
aS'statistics'
p58
aS'cerr'
p59
ag49
aS'suppressWarning'
p60
aS'errors'
p61
aS'destinations'
p62
ag41
aS'infos'
p63
aS'categories'
p64
ag47
asg58
g0
(g13
g14
(lp65
g55
atp66
Rp67
(dp68
g11
I00
sg19
I00
sg20
I00
sg21
I1
sbsS'_filename'
p69
S'/cvmfs/cms.cern.ch/slc7_amd64_gcc700/cms/cmssw-patch/CMSSW_10_2_4_patch1/python/FWCore/ParameterSet/Modules.py'
p70
sg62
g0
(g13
g14
(lp71
g56
ag61
ag63
ag54
ag27
ag59
atp72
Rp73
(dp74
g11
I00
sg19
I00
sg20
I00
sg21
I1
sbsg54
g0
(g28
g2
Ntp75
Rp76
(dp77
g11
I00
sg19
I00
sg32
g0
(g33
g2
Ntp78
Rp79
(dp80
g11
I00
sg19
I00
sg37
I01
sg20
I00
sbsg20
I00
sg38
(lp81
g32
asbsg56
g0
(g28
g2
Ntp82
Rp83
(dp84
g11
I00
sg19
I00
sg32
g0
(g33
g2
Ntp85
Rp86
(dp87
g11
I00
sg19
I00
sg37
I01
sg20
I00
sbsg20
I00
sg38
(lp88
g32
asbsg61
g0
(g28
g2
Ntp89
Rp90
(dp91
g11
I00
sg19
I00
sg32
g0
(g33
g2
Ntp92
Rp93
(dp94
g11
I00
sg19
I00
sg37
I01
sg20
I00
sbsg20
I00
sg38
(lp95
g32
asbsg49
g0
(g28
g2
Ntp96
Rp97
(dp98
g11
I00
sg19
I00
sg20
I00
sg57
g0
(g28
g2
Ntp99
Rp100
(dp101
g11
I00
sg19
I00
sS'limit'
p102
g0
(cFWCore.ParameterSet.Types
int32
p103
g2
Ntp104
Rp105
(dp106
g11
I00
sg19
I00
sg37
I0
sg20
I00
sbsg20
I00
sg38
(lp107
g102
asbsS'FwkJob'
p108
g0
(g28
g2
Ntp109
Rp110
(dp111
g11
I00
sg19
I00
sg20
I00
sg102
g0
(g103
g2
Ntp112
Rp113
(dp114
g11
I00
sg19
I00
sg37
I10000000
sg20
I00
sbsg38
(lp115
S'optionalPSet'
p116
ag102
asg116
g0
(g33
g2
Ntp117
Rp118
(dp119
g11
I00
sg19
I00
sg37
I01
sg20
I00
sbsbsg38
(lp120
g57
ag116
ag108
asg116
g0
(g33
g2
Ntp121
Rp122
(dp123
g11
I00
sg19
I00
sg37
I01
sg20
I00
sbsbsg60
g0
(g13
g14
(lp124
tp125
Rp126
(dp127
g11
I00
sg19
I00
sg20
I00
sg21
I1
sbsg63
g0
(g28
g2
Ntp128
Rp129
(dp130
g11
I00
sg19
I00
sg20
I00
sS'Root_NoDictionary'
p131
g0
(g28
g2
Ntp132
Rp133
(dp134
g11
I00
sg19
I00
sg20
I00
sg102
g0
(g103
g2
Ntp135
Rp136
(dp137
g11
I00
sg19
I00
sg37
I0
sg20
I00
sbsg38
(lp138
g116
ag102
asg116
g0
(g33
g2
Ntp139
Rp140
(dp141
g11
I00
sg19
I00
sg37
I01
sg20
I00
sbsbsg38
(lp142
g116
ag131
ag32
asg116
g0
(g33
g2
Ntp143
Rp144
(dp145
g11
I00
sg19
I00
sg37
I01
sg20
I00
sbsg32
g0
(g33
g2
Ntp146
Rp147
(dp148
g11
I00
sg19
I00
sg37
I01
sg20
I00
sbsbsg64
g0
(g13
g14
(lp149
g108
aS'FwkReport'
p150
aS'FwkSummary'
p151
ag131
atp152
Rp153
(dp154
g11
I00
sg19
I00
sg20
I00
sg21
I1
sbsg20
I00
sg55
g0
(g28
g2
Ntp155
Rp156
(dp157
g11
I00
sg19
I00
sg20
I00
sg116
g0
(g33
g2
Ntp158
Rp159
(dp160
g11
I00
sg19
I00
sg37
I01
sg20
I00
sbsg38
(lp161
S'threshold'
p162
aS'output'
p163
ag116
asg162
g0
(cFWCore.ParameterSet.Types
string
p164
g2
Ntp165
Rp166
(dp167
g11
I00
sg19
I00
sg37
S'WARNING'
p168
sg20
I00
sbsg163
g0
(g164
g2
Ntp169
Rp170
(dp171
g11
I00
sg19
I00
sg37
g59
sg20
I00
sbsbsg57
g0
(g28
g2
Ntp172
Rp173
(dp174
g11
I00
sg19
I00
sg20
I00
sg38
(lp175
sbsS'_inProcess'
p176
I01
sg59
g0
(g28
g2
Ntp177
Rp178
(dp179
g11
I00
sg19
I00
sS'noTimeStamps'
p180
g0
(g33
g2
Ntp181
Rp182
(dp183
g11
I00
sg19
I00
sg37
I00
sg20
I00
sbsg150
g0
(g28
g2
Ntp184
Rp185
(dp186
g11
I00
sg19
I00
sg20
I01
sS'reportEvery'
p187
g0
(g103
g2
Ntp188
Rp189
(dp190
g11
I00
sg19
I00
sg37
I1000
sg20
I01
sbsg102
g0
(g103
g2
Ntp191
Rp192
(dp193
g11
I00
sg19
I00
sg37
I10000000
sg20
I00
sbsg38
(lp194
g187
ag116
ag102
asg116
g0
(g33
g2
Ntp195
Rp196
(dp197
g11
I00
sg19
I00
sg37
I01
sg20
I00
sbsbsg20
I00
sg57
g0
(g28
g2
Ntp198
Rp199
(dp200
g11
I00
sg19
I00
sg102
g0
(g103
g2
Ntp201
Rp202
(dp203
g11
I00
sg19
I00
sg37
I10000000
sg20
I00
sbsg20
I00
sg38
(lp204
g102
asbsg131
g0
(g28
g2
Ntp205
Rp206
(dp207
g11
I00
sg19
I00
sg20
I00
sg102
g0
(g103
g2
Ntp208
Rp209
(dp210
g11
I00
sg19
I00
sg37
I0
sg20
I00
sbsg38
(lp211
g116
ag102
asg116
g0
(g33
g2
Ntp212
Rp213
(dp214
g11
I00
sg19
I00
sg37
I01
sg20
I00
sbsbsS'INFO'
p215
g0
(g28
g2
Ntp216
Rp217
(dp218
g11
I00
sg19
I00
sg102
g0
(g103
g2
Ntp219
Rp220
(dp221
g11
I00
sg19
I00
sg37
I0
sg20
I00
sbsg20
I00
sg38
(lp222
g102
asbsg116
g0
(g33
g2
Ntp223
Rp224
(dp225
g11
I00
sg19
I00
sg37
I01
sg20
I00
sbsg108
g0
(g28
g2
Ntp226
Rp227
(dp228
g11
I00
sg19
I00
sg20
I00
sg102
g0
(g103
g2
Ntp229
Rp230
(dp231
g11
I00
sg19
I00
sg37
I0
sg20
I00
sbsg38
(lp232
g116
ag102
asg116
g0
(g33
g2
Ntp233
Rp234
(dp235
g11
I00
sg19
I00
sg37
I01
sg20
I00
sbsbsg151
g0
(g28
g2
Ntp236
Rp237
(dp238
g11
I00
sg19
I00
sg20
I00
sg187
g0
(g103
g2
Ntp239
Rp240
(dp241
g11
I00
sg19
I00
sg37
I1
sg20
I00
sbsg102
g0
(g103
g2
Ntp242
Rp243
(dp244
g11
I00
sg19
I00
sg37
I10000000
sg20
I00
sbsg38
(lp245
g187
ag116
ag102
asg116
g0
(g33
g2
Ntp246
Rp247
(dp248
g11
I00
sg19
I00
sg37
I01
sg20
I00
sbsbsg38
(lp249
g215
ag180
ag150
ag57
ag131
ag162
ag108
ag151
ag116
asg162
g0
(g164
g2
Ntp250
Rp251
(dp252
g11
I00
sg19
I00
sg37
g215
sg20
I00
sbsbsbsS'_Process__sequences'
p253
(dp254
sS'p'
p255
g0
(cFWCore.ParameterSet.SequenceTypes
Path
p256
g2
Ntp257
Rp258
(dp259
g11
I00
sS'_seq'
p260
g0
(cFWCore.ParameterSet.SequenceTypes
_SequenceCollection
p261
g2
Ntp262
Rp263
(dp264
S'_collection'
p265
(lp266
g0
(cFWCore.ParameterSet.Modules
EDAnalyzer
p267
g2
Ntp268
Rp269
(dp270
g38
(lp271
S'PUPPI_AK4Collection'
p272
aS'fatJetCollection'
p273
aS'muonCollection'
p274
asg11
I00
sg20
I00
sg40
I12
sg272
g0
(cFWCore.ParameterSet.Types
InputTag
p275
g2
Ntp276
Rp277
(dp278
g11
I00
sg19
I01
sg20
I00
sS'_InputTag__moduleLabel'
p279
S'slimmedJetsPuppi'
p280
sS'_InputTag__processName'
p281
S''
p282
sS'_InputTag__productInstance'
p283
g282
sbsg69
S'/uscms_data/d3/cannaert/src/thrust/CMSSW_10_2_4_patch1/src/ttbarAnalyzer_cfg.py'
p284
sS'_Labelable__label'
p285
S'ttbarAnalyzer'
p286
sg273
g0
(g275
g2
Ntp287
Rp288
(dp289
g11
I00
sg19
I01
sg20
I00
sg279
S'slimmedJetsAK8'
p290
sg281
g282
sg283
g282
sbsg274
g0
(g275
g2
Ntp291
Rp292
(dp293
g11
I00
sg19
I01
sg20
I00
sg279
S'slimmedMuons'
p294
sg281
g282
sg283
g282
sbsg46
g286
sbasbsg285
g255
sg20
I00
sS'_tasks'
p295
g0
(cFWCore.ParameterSet.OrderedSet
OrderedSet
p296
g2
Ntp297
Rp298
(dp299
S'map'
p300
(dp301
sS'end'
p302
(lp303
Nag303
ag303
asbsbsS'_Process__services'
p304
(dp305
g6
g9
sS'TFileService'
p306
g0
(g7
g2
Ntp307
Rp308
(dp309
g38
(lp310
S'fileName'
p311
asg11
I00
sg176
I01
sg20
I00
sg40
I11
sg69
g70
sg311
g0
(g164
g2
Ntp312
Rp313
(dp314
g11
I00
sg19
I01
sg37
S'QCD_ttbar_test.root'
p315
sg20
I00
sbsg46
g306
sbssS'_Process__source'
p316
g0
(cFWCore.ParameterSet.Modules
Source
p317
g2
Ntp318
Rp319
(dp320
g38
(lp321
S'fileNames'
p322
asg11
I00
sg20
I00
sg40
I193
sg69
g70
sg322
g0
(g13
g14
(lp323
S'/store/mc/RunIIAutumn18MiniAOD/TTToSemiLeptonic_widthx1p3_TuneCP5_13TeV-powheg-pythia8/MINIAODSIM/102X_upgrade2018_realistic_v15-v1/90000/FD15A642-B164-9942-A410-EBE9991827AA.root'
p324
aS'/store/mc/RunIIAutumn18MiniAOD/TTToSemiLeptonic_widthx1p3_TuneCP5_13TeV-powheg-pythia8/MINIAODSIM/102X_upgrade2018_realistic_v15-v1/90000/F68799DB-2630-6F4A-ACC1-BEBE6CAC348D.root'
p325
aS'/store/mc/RunIIAutumn18MiniAOD/TTToSemiLeptonic_widthx1p3_TuneCP5_13TeV-powheg-pythia8/MINIAODSIM/102X_upgrade2018_realistic_v15-v1/90000/F47F9770-3224-A64B-A8A9-F2C2B663434A.root'
p326
aS'/store/mc/RunIIAutumn18MiniAOD/TTToSemiLeptonic_widthx1p3_TuneCP5_13TeV-powheg-pythia8/MINIAODSIM/102X_upgrade2018_realistic_v15-v1/90000/EF2610C9-ECB1-4542-849C-292254CE409B.root'
p327
aS'/store/mc/RunIIAutumn18MiniAOD/TTToSemiLeptonic_widthx1p3_TuneCP5_13TeV-powheg-pythia8/MINIAODSIM/102X_upgrade2018_realistic_v15-v1/90000/EF25CB28-DB09-044F-AA64-758C54CD65E2.root'
p328
aS'/store/mc/RunIIAutumn18MiniAOD/TTToSemiLeptonic_widthx1p3_TuneCP5_13TeV-powheg-pythia8/MINIAODSIM/102X_upgrade2018_realistic_v15-v1/90000/E721F5B7-8928-B14E-AE1C-53E164903DCB.root'
p329
aS'/store/mc/RunIIAutumn18MiniAOD/TTToSemiLeptonic_widthx1p3_TuneCP5_13TeV-powheg-pythia8/MINIAODSIM/102X_upgrade2018_realistic_v15-v1/90000/E17293BF-1AFD-C349-B325-357D462AB2F1.root'
p330
aS'/store/mc/RunIIAutumn18MiniAOD/TTToSemiLeptonic_widthx1p3_TuneCP5_13TeV-powheg-pythia8/MINIAODSIM/102X_upgrade2018_realistic_v15-v1/90000/DEBD99CA-3C11-0746-B5E0-04AC7E150986.root'
p331
aS'/store/mc/RunIIAutumn18MiniAOD/TTToSemiLeptonic_widthx1p3_TuneCP5_13TeV-powheg-pythia8/MINIAODSIM/102X_upgrade2018_realistic_v15-v1/90000/D753B61C-0A05-FE49-B0C5-718FC9D95595.root'
p332
aS'/store/mc/RunIIAutumn18MiniAOD/TTToSemiLeptonic_widthx1p3_TuneCP5_13TeV-powheg-pythia8/MINIAODSIM/102X_upgrade2018_realistic_v15-v1/90000/D2076A6F-9FEE-7E49-B7AD-7B2028E3CB9D.root'
p333
aS'/store/mc/RunIIAutumn18MiniAOD/TTToSemiLeptonic_widthx1p3_TuneCP5_13TeV-powheg-pythia8/MINIAODSIM/102X_upgrade2018_realistic_v15-v1/90000/CB43BCA1-2F16-204A-A88A-B3181EFCED5A.root'
p334
atp335
Rp336
(dp337
g11
I00
sg19
I00
sg20
I00
sg21
I1
sbsg46
S'PoolSource'
p338
sbsS'StripCPEfromTrackAngleESProducer'
p339
g0
(cFWCore.ParameterSet.Modules
ESProducer
p340
g2
Ntp341
Rp342
(dp343
g38
(lp344
S'ComponentType'
p345
aS'ComponentName'
p346
aS'parameters'
p347
asg11
I00
sg20
I01
sg347
g0
(g28
g2
Ntp348
Rp349
(dp350
g11
I00
sg19
I01
sS'maxChgOneMIP'
p351
g0
(cFWCore.ParameterSet.Types
double
p352
g2
Ntp353
Rp354
(dp355
g11
I00
sg19
I01
sg37
F6000.0
sg20
I00
sbsS'mLC_P2'
p356
g0
(g352
g2
Ntp357
Rp358
(dp359
g11
I00
sg19
I01
sg37
F0.3
sg20
I00
sbsS'mLC_P1'
p360
g0
(g352
g2
Ntp361
Rp362
(dp363
g11
I00
sg19
I01
sg37
F0.618
sg20
I00
sbsS'mLC_P0'
p364
g0
(g352
g2
Ntp365
Rp366
(dp367
g11
I00
sg19
I01
sg37
F-0.326
sg20
I00
sbsS'useLegacyError'
p368
g0
(g33
g2
Ntp369
Rp370
(dp371
g11
I00
sg19
I01
sg37
I00
sg20
I00
sbsS'mTIB_P1'
p372
g0
(g352
g2
Ntp373
Rp374
(dp375
g11
I00
sg19
I01
sg37
F0.202
sg20
I00
sbsS'mTEC_P1'
p376
g0
(g352
g2
Ntp377
Rp378
(dp379
g11
I00
sg19
I01
sg37
F0.471
sg20
I00
sbsS'mTEC_P0'
p380
g0
(g352
g2
Ntp381
Rp382
(dp383
g11
I00
sg19
I01
sg37
F-1.885
sg20
I00
sbsS'mTOB_P0'
p384
g0
(g352
g2
Ntp385
Rp386
(dp387
g11
I00
sg19
I01
sg37
F-1.026
sg20
I00
sbsS'mTOB_P1'
p388
g0
(g352
g2
Ntp389
Rp390
(dp391
g11
I00
sg19
I01
sg37
F0.253
sg20
I00
sbsS'mTIB_P0'
p392
g0
(g352
g2
Ntp393
Rp394
(dp395
g11
I00
sg19
I01
sg37
F-0.742
sg20
I00
sbsg38
(lp396
g351
ag356
ag360
ag364
ag368
ag376
ag380
ag384
ag388
ag392
ag372
aS'mTID_P0'
p397
aS'mTID_P1'
p398
asg397
g0
(g352
g2
Ntp399
Rp400
(dp401
g11
I00
sg19
I01
sg37
F-1.427
sg20
I00
sbsg398
g0
(g352
g2
Ntp402
Rp403
(dp404
g11
I00
sg19
I01
sg37
F0.433
sg20
I00
sbsg20
I00
sbsg40
I4
sg346
g0
(g164
g2
Ntp405
Rp406
(dp407
g11
I00
sg19
I01
sg37
S'StripCPEfromTrackAngle'
p408
sg20
I00
sbsg345
g0
(g164
g2
Ntp409
Rp410
(dp411
g11
I00
sg19
I01
sg37
g408
sg20
I00
sbsg69
S'/cvmfs/cms.cern.ch/slc7_amd64_gcc700/cms/cmssw-patch/CMSSW_10_2_4_patch1/python/RecoLocalTracker/SiStripRecHitConverter/StripCPEfromTrackAngle_cfi.py'
p412
sg285
g339
sg46
S'StripCPEESProducer'
p413
sbsS'_Process__aliases'
p414
(dp415
sS'siStripBackPlaneCorrectionDepESProducer'
p416
g0
(g340
g2
Ntp417
Rp418
(dp419
g38
(lp420
S'LatencyRecord'
p421
aS'BackPlaneCorrectionDeconvMode'
p422
aS'BackPlaneCorrectionPeakMode'
p423
asg11
I00
sg20
I00
sg40
I53
sg69
g70
sg421
g0
(g28
g2
Ntp424
Rp425
(dp426
g11
I00
sg19
I01
sg20
I00
sS'label'
p427
g0
(g164
g2
Ntp428
Rp429
(dp430
g11
I00
sg19
I00
sg37
g282
sg20
I00
sbsS'record'
p431
g0
(g164
g2
Ntp432
Rp433
(dp434
g11
I00
sg19
I01
sg37
S'SiStripLatencyRcd'
p435
sg20
I00
sbsg38
(lp436
g431
ag427
asbsg423
g0
(g28
g2
Ntp437
Rp438
(dp439
g11
I00
sg19
I01
sg20
I00
sg427
g0
(g164
g2
Ntp440
Rp441
(dp442
g11
I00
sg19
I00
sg37
S'peak'
p443
sg20
I00
sbsg431
g0
(g164
g2
Ntp444
Rp445
(dp446
g11
I00
sg19
I01
sg37
S'SiStripBackPlaneCorrectionRcd'
p447
sg20
I00
sbsg38
(lp448
g431
ag427
asbsg285
g416
sg422
g0
(g28
g2
Ntp449
Rp450
(dp451
g11
I00
sg19
I01
sg20
I00
sg427
g0
(g164
g2
Ntp452
Rp453
(dp454
g11
I00
sg19
I00
sg37
S'deconvolution'
p455
sg20
I00
sbsg431
g0
(g164
g2
Ntp456
Rp457
(dp458
g11
I00
sg19
I01
sg37
g447
sg20
I00
sbsg38
(lp459
g431
ag427
asbsg46
S'SiStripBackPlaneCorrectionDepESProducer'
p460
sbsS'HFRecalParameterBlock'
p461
g0
(g28
g2
Ntp462
Rp463
(dp464
g11
I00
sg19
I01
sg20
I00
sS'HFdepthTwoParameterA'
p465
g0
(cFWCore.ParameterSet.Types
vdouble
p466
g14
(lp467
F0.002861
aF0.004168
aF0.0064
aF0.008388
aF0.011601
aF0.014425
aF0.018633
aF0.023232
aF0.028274
aF0.035447
aF0.051579
aF0.086593
atp468
Rp469
(dp470
g11
I00
sg19
I01
sg20
I00
sbsS'HFdepthOneParameterA'
p471
g0
(g466
g14
(lp472
F0.004123
aF0.00602
aF0.008201
aF0.010489
aF0.013379
aF0.016997
aF0.021464
aF0.027371
aF0.034195
aF0.044807
aF0.058939
aF0.125497
atp473
Rp474
(dp475
g11
I00
sg19
I01
sg20
I00
sbsS'HFdepthOneParameterB'
p476
g0
(g466
g14
(lp477
F-4e-06
aF-2e-06
aF0.0
aF4e-06
aF1.5e-05
aF2.6e-05
aF6.3e-05
aF8.4e-05
aF0.00016
aF0.000107
aF0.000425
aF0.000209
atp478
Rp479
(dp480
g11
I00
sg19
I01
sg20
I00
sbsS'HFdepthTwoParameterB'
p481
g0
(g466
g14
(lp482
F-2e-06
aF-0.0
aF-7e-06
aF-6e-06
aF-2e-06
aF1e-06
aF1.9e-05
aF3.1e-05
aF6.7e-05
aF1.2e-05
aF0.000157
aF-3e-06
atp483
Rp484
(dp485
g11
I00
sg19
I01
sg20
I00
sbsg38
(lp486
g471
ag476
ag481
ag465
asg285
g461
sbsS'stripCPEESProducer'
p487
g0
(g340
g2
Ntp488
Rp489
(dp490
g38
(lp491
g345
ag346
ag347
asg11
I00
sg20
I00
sg347
g0
(g28
g2
Ntp492
Rp493
(dp494
g11
I00
sg19
I01
sg20
I00
sg38
(lp495
sbsg40
I53
sg346
g0
(g164
g2
Ntp496
Rp497
(dp498
g11
I00
sg19
I01
sg37
S'stripCPE'
p499
sg20
I00
sbsg345
g0
(g164
g2
Ntp500
Rp501
(dp502
g11
I00
sg19
I01
sg37
S'SimpleStripCPE'
p503
sg20
I00
sbsg69
g70
sg285
g487
sg46
g413
sbsS'EcalLaserCorrectionService'
p504
g0
(g340
g2
Ntp505
Rp506
(dp507
g38
(lp508
sg11
I00
sg20
I00
sg40
I53
sg69
g70
sg285
g504
sg46
g504
sbsS'_Process__psets'
p509
(dp510
S'maxEvents'
p511
g0
(g28
g2
Ntp512
Rp513
(dp514
g11
I00
sg19
I00
sg20
I00
sg38
(lp515
S'input'
p516
asg285
g511
sg516
g0
(g103
g2
Ntp517
Rp518
(dp519
g11
I00
sg19
I00
sg37
I350000
sg20
I00
sbsbsg461
g463
sS'options'
p520
g0
(g28
g2
Ntp521
Rp522
(dp523
g11
I00
sg19
I00
sg20
I00
sS'wantSummary'
p524
g0
(g33
g2
Ntp525
Rp526
(dp527
g11
I00
sg19
I00
sg37
I01
sg20
I00
sbsg38
(lp528
g524
asg285
g520
sbssS'hcal_db_producer'
p529
g0
(g340
g2
Ntp530
Rp531
(dp532
g38
(lp533
S'file'
p534
aS'dump'
p535
asg11
I00
sg20
I00
sg535
g0
(g13
g14
(lp536
g282
atp537
Rp538
(dp539
g11
I00
sg19
I00
sg20
I00
sg21
I1
sbsg40
I53
sg69
g70
sg534
g0
(g164
g2
Ntp540
Rp541
(dp542
g11
I00
sg19
I00
sg37
g282
sg20
I00
sbsg285
g529
sg46
S'HcalDbProducer'
p543
sbsg306
g308
sS'_Process__essources'
p544
(dp545
S'HepPDTESSource'
p546
g0
(cFWCore.ParameterSet.Modules
ESSource
p547
g2
Ntp548
Rp549
(dp550
g38
(lp551
S'pdtFileName'
p552
asg11
I00
sg552
g0
(cFWCore.ParameterSet.Types
FileInPath
p553
g2
Ntp554
Rp555
(dp556
g11
I00
sg19
I01
sg37
S'SimGeneral/HepPDTESSource/data/pythiaparticle.tbl'
p557
sg20
I00
sbsg20
I00
sg40
I4
sg69
S'/cvmfs/cms.cern.ch/slc7_amd64_gcc700/cms/cmssw-patch/CMSSW_10_2_4_patch1/python/SimGeneral/HepPDTESSource/pythiapdt_cfi.py'
p558
sg285
g546
sg46
g546
sbsS'es_hardcode'
p559
g0
(g547
g2
Ntp560
Rp561
(dp562
g11
I00
sg40
I172
sS'useHEUpgrade'
p563
g0
(g33
g2
Ntp564
Rp565
(dp566
g11
I00
sg19
I01
sg37
I00
sg20
I00
sbsS'HBRecalibration'
p567
g0
(g33
g2
Ntp568
Rp569
(dp570
g11
I00
sg19
I01
sg37
I00
sg20
I00
sbsS'useLayer0Weight'
p571
g0
(g33
g2
Ntp572
Rp573
(dp574
g11
I00
sg19
I01
sg37
I00
sg20
I00
sbsS'HEmeanenergies'
p575
g0
(g553
g2
Ntp576
Rp577
(dp578
g11
I00
sg19
I01
sg37
S'CalibCalorimetry/HcalPlugins/data/meanenergiesHE.txt'
p579
sg20
I00
sbsg461
g463
sS'heUpgrade'
p580
g0
(g28
g2
Ntp581
Rp582
(dp583
g11
I00
sg19
I01
sS'qieType'
p584
g0
(g103
g2
Ntp585
Rp586
(dp587
g11
I00
sg19
I01
sg37
I2
sg20
I00
sbsg20
I00
sS'pedestalWidth'
p588
g0
(g352
g2
Ntp589
Rp590
(dp591
g11
I00
sg19
I01
sg37
F1.5
sg20
I00
sbsS'recoShape'
p592
g0
(g103
g2
Ntp593
Rp594
(dp595
g11
I00
sg19
I01
sg37
I206
sg20
I00
sbsS'zsThreshold'
p596
g0
(g103
g2
Ntp597
Rp598
(dp599
g11
I00
sg19
I01
sg37
I16
sg20
I00
sbsS'darkCurrent'
p600
g0
(g466
g14
(lp601
F0.01
aF0.015
atp602
Rp603
(dp604
g11
I00
sg19
I01
sg20
I00
sbsS'qieOffset'
p605
g0
(g466
g14
(lp606
F0.0
aF0.0
aF0.0
aF0.0
atp607
Rp608
(dp609
g11
I00
sg19
I01
sg20
I00
sbsS'qieSlope'
p610
g0
(g466
g14
(lp611
F0.05376
aF0.05376
aF0.05376
aF0.05376
atp612
Rp613
(dp614
g11
I00
sg19
I01
sg20
I00
sbsS'radiationDamage'
p615
g0
(g28
g2
Ntp616
Rp617
(dp618
g11
I00
sg19
I01
sS'temperatureNew'
p619
g0
(g352
g2
Ntp620
Rp621
(dp622
g11
I00
sg19
I01
sg37
I5
sg20
I00
sbsg20
I00
sS'depVsNeutrons'
p623
g0
(g466
g14
(lp624
F5.543e-10
aF8.012e-10
atp625
Rp626
(dp627
g11
I00
sg19
I01
sg20
I00
sbsS'temperatureBase'
p628
g0
(g352
g2
Ntp629
Rp630
(dp631
g11
I00
sg19
I01
sg37
I20
sg20
I00
sbsS'depVsTemp'
p632
g0
(g352
g2
Ntp633
Rp634
(dp635
g11
I00
sg19
I01
sg37
F0.0631
sg20
I00
sbsS'intlumiOffset'
p636
g0
(g352
g2
Ntp637
Rp638
(dp639
g11
I00
sg19
I01
sg37
I75
sg20
I00
sbsg38
(lp640
g619
ag623
ag628
ag632
ag636
aS'intlumiToNeutrons'
p641
asg641
g0
(g352
g2
Ntp642
Rp643
(dp644
g11
I00
sg19
I01
sg37
F29200000.0
sg20
I00
sbsbsS'doRadiationDamage'
p645
g0
(g33
g2
Ntp646
Rp647
(dp648
g11
I00
sg19
I01
sg37
I01
sg20
I00
sbsg38
(lp649
g584
ag588
ag592
ag596
aS'photoelectronsToAnalog'
p650
ag605
ag610
ag615
ag645
ag600
aS'pedestal'
p651
aS'mcShape'
p652
aS'gainWidth'
p653
aS'gain'
p654
asg650
g0
(g352
g2
Ntp655
Rp656
(dp657
g11
I00
sg19
I01
sg37
F40.0
sg20
I00
sbsg651
g0
(g352
g2
Ntp658
Rp659
(dp660
g11
I00
sg19
I01
sg37
F17.3
sg20
I00
sbsg652
g0
(g103
g2
Ntp661
Rp662
(dp663
g11
I00
sg19
I01
sg37
I206
sg20
I00
sbsg653
g0
(g466
g14
(lp664
I0
atp665
Rp666
(dp667
g11
I00
sg19
I01
sg20
I00
sbsg654
g0
(g466
g14
(lp668
F0.0006252
atp669
Rp670
(dp671
g11
I00
sg19
I01
sg20
I00
sbsbsg38
(lp672
S'toGet'
p673
ag567
ag571
ag575
ag461
ag580
aS'useIeta18depth1'
p674
aS'killHE'
p675
aS'useHBUpgrade'
p676
aS'hbUpgrade'
p677
aS'testHEPlan1'
p678
aS'iLumi'
p679
aS'testHFQIE10'
p680
aS'HBmeanenergies'
p681
ag563
aS'GainWidthsForTrigPrims'
p682
aS'HBreCalibCutoff'
p683
aS'HFRecalibration'
p684
aS'ho'
p685
aS'hb'
p686
aS'hf'
p687
aS'he'
p688
aS'HERecalibration'
p689
aS'useHFUpgrade'
p690
aS'HEreCalibCutoff'
p691
aS'SiPMCharacteristics'
p692
aS'useHOUpgrade'
p693
aS'hfUpgrade'
p694
asg69
S'/cvmfs/cms.cern.ch/slc7_amd64_gcc700/cms/cmssw-patch/CMSSW_10_2_4_patch1/python/CalibCalorimetry/HcalPlugins/Hcal_Conditions_forGlobalTag_cff.py'
p695
sg674
g0
(g33
g2
Ntp696
Rp697
(dp698
g11
I00
sg19
I01
sg37
I01
sg20
I00
sbsg675
g0
(g33
g2
Ntp699
Rp700
(dp701
g11
I00
sg19
I01
sg37
I00
sg20
I00
sbsg676
g0
(g33
g2
Ntp702
Rp703
(dp704
g11
I00
sg19
I01
sg37
I00
sg20
I00
sbsg677
g0
(g28
g2
Ntp705
Rp706
(dp707
g11
I00
sg19
I01
sg584
g0
(g103
g2
Ntp708
Rp709
(dp710
g11
I00
sg19
I01
sg37
I2
sg20
I00
sbsg20
I00
sg588
g0
(g352
g2
Ntp711
Rp712
(dp713
g11
I00
sg19
I01
sg37
F1.5
sg20
I00
sbsg592
g0
(g103
g2
Ntp714
Rp715
(dp716
g11
I00
sg19
I01
sg37
I206
sg20
I00
sbsg596
g0
(g103
g2
Ntp717
Rp718
(dp719
g11
I00
sg19
I01
sg37
I16
sg20
I00
sbsg600
g0
(g466
g14
(lp720
F0.01
aF0.015
atp721
Rp722
(dp723
g11
I00
sg19
I01
sg20
I00
sbsg605
g0
(g466
g14
(lp724
F0.0
aF0.0
aF0.0
aF0.0
atp725
Rp726
(dp727
g11
I00
sg19
I01
sg20
I00
sbsg610
g0
(g466
g14
(lp728
F0.05376
aF0.05376
aF0.05376
aF0.05376
atp729
Rp730
(dp731
g11
I00
sg19
I01
sg20
I00
sbsg615
g0
(g28
g2
Ntp732
Rp733
(dp734
g11
I00
sg19
I01
sg619
g0
(g352
g2
Ntp735
Rp736
(dp737
g11
I00
sg19
I01
sg37
I-5
sg20
I00
sbsg20
I00
sg623
g0
(g466
g14
(lp738
F5.543e-10
aF8.012e-10
atp739
Rp740
(dp741
g11
I00
sg19
I01
sg20
I00
sbsg628
g0
(g352
g2
Ntp742
Rp743
(dp744
g11
I00
sg19
I01
sg37
I20
sg20
I00
sbsg632
g0
(g352
g2
Ntp745
Rp746
(dp747
g11
I00
sg19
I01
sg37
F0.0631
sg20
I00
sbsg636
g0
(g352
g2
Ntp748
Rp749
(dp750
g11
I00
sg19
I01
sg37
I150
sg20
I00
sbsg38
(lp751
g619
ag623
ag628
ag632
ag636
ag641
asg641
g0
(g352
g2
Ntp752
Rp753
(dp754
g11
I00
sg19
I01
sg37
F367000000.0
sg20
I00
sbsbsg645
g0
(g33
g2
Ntp755
Rp756
(dp757
g11
I00
sg19
I01
sg37
I01
sg20
I00
sbsg38
(lp758
g584
ag588
ag592
ag596
ag650
ag605
ag610
ag615
ag645
ag600
ag651
ag652
ag653
ag654
asg650
g0
(g352
g2
Ntp759
Rp760
(dp761
g11
I00
sg19
I01
sg37
F40.0
sg20
I00
sbsg651
g0
(g352
g2
Ntp762
Rp763
(dp764
g11
I00
sg19
I01
sg37
F17.3
sg20
I00
sbsg652
g0
(g103
g2
Ntp765
Rp766
(dp767
g11
I00
sg19
I01
sg37
I206
sg20
I00
sbsg653
g0
(g466
g14
(lp768
I0
atp769
Rp770
(dp771
g11
I00
sg19
I01
sg20
I00
sbsg654
g0
(g466
g14
(lp772
F0.0006252
atp773
Rp774
(dp775
g11
I00
sg19
I01
sg20
I00
sbsbsg46
S'HcalHardcodeCalibrations'
p776
sg678
g0
(g33
g2
Ntp777
Rp778
(dp779
g11
I00
sg19
I01
sg37
I00
sg20
I00
sbsg679
g0
(g352
g2
Ntp780
Rp781
(dp782
g11
I00
sg19
I01
sg37
F-1.0
sg20
I00
sbsg680
g0
(g33
g2
Ntp783
Rp784
(dp785
g11
I00
sg19
I01
sg37
I00
sg20
I00
sbsg681
g0
(g553
g2
Ntp786
Rp787
(dp788
g11
I00
sg19
I01
sg37
S'CalibCalorimetry/HcalPlugins/data/meanenergiesHB.txt'
p789
sg20
I00
sbsg673
g0
(g13
g14
(lp790
S'GainWidths'
p791
atp792
Rp793
(dp794
g11
I00
sg19
I00
sg20
I00
sg21
I1
sbsg682
g0
(g33
g2
Ntp795
Rp796
(dp797
g11
I00
sg19
I01
sg37
I00
sg20
I00
sbsg683
g0
(g352
g2
Ntp798
Rp799
(dp800
g11
I00
sg19
I01
sg37
F20.0
sg20
I00
sbsg684
g0
(g33
g2
Ntp801
Rp802
(dp803
g11
I00
sg19
I01
sg37
I00
sg20
I00
sbsg685
g0
(g28
g2
Ntp804
Rp805
(dp806
g11
I00
sg19
I01
sg584
g0
(g103
g2
Ntp807
Rp808
(dp809
g11
I00
sg19
I01
sg37
I0
sg20
I00
sbsg20
I00
sg588
g0
(g352
g2
Ntp810
Rp811
(dp812
g11
I00
sg19
I01
sg37
F0.6285
sg20
I00
sbsg592
g0
(g103
g2
Ntp813
Rp814
(dp815
g11
I00
sg19
I01
sg37
I201
sg20
I00
sbsg596
g0
(g103
g2
Ntp816
Rp817
(dp818
g11
I00
sg19
I01
sg37
I24
sg20
I00
sbsg600
g0
(g466
g14
(lp819
F0.0
atp820
Rp821
(dp822
g11
I00
sg19
I01
sg20
I00
sbsg605
g0
(g466
g14
(lp823
F-0.44
aF1.4
aF7.1
aF38.5
atp824
Rp825
(dp826
g11
I00
sg19
I01
sg20
I00
sbsg610
g0
(g466
g14
(lp827
F0.907
aF0.915
aF0.92
aF0.921
atp828
Rp829
(dp830
g11
I00
sg19
I01
sg20
I00
sbsg654
g0
(g466
g14
(lp831
F0.006
aF0.0087
atp832
Rp833
(dp834
g11
I00
sg19
I01
sg20
I00
sbsg645
g0
(g33
g2
Ntp835
Rp836
(dp837
g11
I00
sg19
I01
sg37
I00
sg20
I00
sbsg38
(lp838
g584
ag588
ag592
ag596
ag650
ag605
ag610
ag654
ag645
ag600
ag651
ag652
ag653
asg650
g0
(g352
g2
Ntp839
Rp840
(dp841
g11
I00
sg19
I01
sg37
F4.0
sg20
I00
sbsg651
g0
(g352
g2
Ntp842
Rp843
(dp844
g11
I00
sg19
I01
sg37
F12.06
sg20
I00
sbsg652
g0
(g103
g2
Ntp845
Rp846
(dp847
g11
I00
sg19
I01
sg37
I201
sg20
I00
sbsg653
g0
(g466
g14
(lp848
F0.0
aF0.0
atp849
Rp850
(dp851
g11
I00
sg19
I01
sg20
I00
sbsbsg686
g0
(g28
g2
Ntp852
Rp853
(dp854
g11
I00
sg19
I01
sg584
g0
(g103
g2
Ntp855
Rp856
(dp857
g11
I00
sg19
I01
sg37
I0
sg20
I00
sbsg20
I00
sg588
g0
(g352
g2
Ntp858
Rp859
(dp860
g11
I00
sg19
I01
sg37
F0.809
sg20
I00
sbsg592
g0
(g103
g2
Ntp861
Rp862
(dp863
g11
I00
sg19
I01
sg37
I105
sg20
I00
sbsg596
g0
(g103
g2
Ntp864
Rp865
(dp866
g11
I00
sg19
I01
sg37
I8
sg20
I00
sbsg600
g0
(g466
g14
(lp867
F0.0
atp868
Rp869
(dp870
g11
I00
sg19
I01
sg20
I00
sbsg605
g0
(g466
g14
(lp871
F-0.49
aF1.8
aF7.2
aF37.9
atp872
Rp873
(dp874
g11
I00
sg19
I01
sg20
I00
sbsg610
g0
(g466
g14
(lp875
F0.912
aF0.917
aF0.922
aF0.923
atp876
Rp877
(dp878
g11
I00
sg19
I01
sg20
I00
sbsg654
g0
(g466
g14
(lp879
F0.19
atp880
Rp881
(dp882
g11
I00
sg19
I01
sg20
I00
sbsg645
g0
(g33
g2
Ntp883
Rp884
(dp885
g11
I00
sg19
I01
sg37
I00
sg20
I00
sbsg38
(lp886
g584
ag588
ag592
ag596
ag650
ag605
ag610
ag654
ag645
ag600
ag651
ag652
ag653
asg650
g0
(g352
g2
Ntp887
Rp888
(dp889
g11
I00
sg19
I01
sg37
F0.3305
sg20
I00
sbsg651
g0
(g352
g2
Ntp890
Rp891
(dp892
g11
I00
sg19
I01
sg37
F3.285
sg20
I00
sbsg652
g0
(g103
g2
Ntp893
Rp894
(dp895
g11
I00
sg19
I01
sg37
I125
sg20
I00
sbsg653
g0
(g466
g14
(lp896
F0.0
atp897
Rp898
(dp899
g11
I00
sg19
I01
sg20
I00
sbsbsg687
g0
(g28
g2
Ntp900
Rp901
(dp902
g11
I00
sg19
I01
sg584
g0
(g103
g2
Ntp903
Rp904
(dp905
g11
I00
sg19
I01
sg37
I0
sg20
I00
sbsg20
I00
sg588
g0
(g352
g2
Ntp906
Rp907
(dp908
g11
I00
sg19
I01
sg37
F2.516
sg20
I00
sbsg592
g0
(g103
g2
Ntp909
Rp910
(dp911
g11
I00
sg19
I01
sg37
I301
sg20
I00
sbsg596
g0
(g103
g2
Ntp912
Rp913
(dp914
g11
I00
sg19
I01
sg37
I-9999
sg20
I00
sbsg600
g0
(g466
g14
(lp915
F0.0
atp916
Rp917
(dp918
g11
I00
sg19
I01
sg20
I00
sbsg605
g0
(g466
g14
(lp919
F-0.87
aF1.4
aF7.8
aF-29.6
atp920
Rp921
(dp922
g11
I00
sg19
I01
sg20
I00
sbsg610
g0
(g466
g14
(lp923
F0.359
aF0.358
aF0.36
aF0.367
atp924
Rp925
(dp926
g11
I00
sg19
I01
sg20
I00
sbsg654
g0
(g466
g14
(lp927
F0.14
aF0.135
atp928
Rp929
(dp930
g11
I00
sg19
I01
sg20
I00
sbsg645
g0
(g33
g2
Ntp931
Rp932
(dp933
g11
I00
sg19
I01
sg37
I00
sg20
I00
sbsg38
(lp934
g584
ag588
ag592
ag596
ag650
ag605
ag610
ag654
ag645
ag600
ag651
ag652
ag653
asg650
g0
(g352
g2
Ntp935
Rp936
(dp937
g11
I00
sg19
I01
sg37
F0.0
sg20
I00
sbsg651
g0
(g352
g2
Ntp938
Rp939
(dp940
g11
I00
sg19
I01
sg37
F9.354
sg20
I00
sbsg652
g0
(g103
g2
Ntp941
Rp942
(dp943
g11
I00
sg19
I01
sg37
I301
sg20
I00
sbsg653
g0
(g466
g14
(lp944
F0.0
aF0.0
atp945
Rp946
(dp947
g11
I00
sg19
I01
sg20
I00
sbsbsg688
g0
(g28
g2
Ntp948
Rp949
(dp950
g11
I00
sg19
I01
sg584
g0
(g103
g2
Ntp951
Rp952
(dp953
g11
I00
sg19
I01
sg37
I0
sg20
I00
sbsg20
I00
sg588
g0
(g352
g2
Ntp954
Rp955
(dp956
g11
I00
sg19
I01
sg37
F0.9698
sg20
I00
sbsg592
g0
(g103
g2
Ntp957
Rp958
(dp959
g11
I00
sg19
I01
sg37
I105
sg20
I00
sbsg596
g0
(g103
g2
Ntp960
Rp961
(dp962
g11
I00
sg19
I01
sg37
I9
sg20
I00
sbsg600
g0
(g466
g14
(lp963
F0.0
atp964
Rp965
(dp966
g11
I00
sg19
I01
sg20
I00
sbsg605
g0
(g466
g14
(lp967
F-0.38
aF2.0
aF7.6
aF39.6
atp968
Rp969
(dp970
g11
I00
sg19
I01
sg20
I00
sbsg610
g0
(g466
g14
(lp971
F0.912
aF0.916
aF0.92
aF0.922
atp972
Rp973
(dp974
g11
I00
sg19
I01
sg20
I00
sbsg654
g0
(g466
g14
(lp975
F0.23
atp976
Rp977
(dp978
g11
I00
sg19
I01
sg20
I00
sbsg645
g0
(g33
g2
Ntp979
Rp980
(dp981
g11
I00
sg19
I01
sg37
I00
sg20
I00
sbsg38
(lp982
g584
ag588
ag592
ag596
ag650
ag605
ag610
ag654
ag645
ag600
ag651
ag652
ag653
asg650
g0
(g352
g2
Ntp983
Rp984
(dp985
g11
I00
sg19
I01
sg37
F0.3305
sg20
I00
sbsg651
g0
(g352
g2
Ntp986
Rp987
(dp988
g11
I00
sg19
I01
sg37
F3.163
sg20
I00
sbsg652
g0
(g103
g2
Ntp989
Rp990
(dp991
g11
I00
sg19
I01
sg37
I125
sg20
I00
sbsg653
g0
(g466
g14
(lp992
I0
atp993
Rp994
(dp995
g11
I00
sg19
I01
sg20
I00
sbsbsg20
I00
sg689
g0
(g33
g2
Ntp996
Rp997
(dp998
g11
I00
sg19
I01
sg37
I00
sg20
I00
sbsg690
g0
(g33
g2
Ntp999
Rp1000
(dp1001
g11
I00
sg19
I01
sg37
I00
sg20
I00
sbsg691
g0
(g352
g2
Ntp1002
Rp1003
(dp1004
g11
I00
sg19
I01
sg37
F20.0
sg20
I00
sbsg692
g0
(cFWCore.ParameterSet.Types
VPSet
p1005
g14
(lp1006
g0
(g28
g2
Ntp1007
Rp1008
(dp1009
g11
I00
sg19
I01
sg20
I00
sS'crosstalk'
p1010
g0
(g352
g2
Ntp1011
Rp1012
(dp1013
g11
I00
sg19
I01
sg37
F0.0
sg20
I00
sbsS'nonlin1'
p1014
g0
(g352
g2
Ntp1015
Rp1016
(dp1017
g11
I00
sg19
I01
sg37
F1.0
sg20
I00
sbsS'nonlin3'
p1018
g0
(g352
g2
Ntp1019
Rp1020
(dp1021
g11
I00
sg19
I01
sg37
F0.0
sg20
I00
sbsS'nonlin2'
p1022
g0
(g352
g2
Ntp1023
Rp1024
(dp1025
g11
I00
sg19
I01
sg37
F0.0
sg20
I00
sbsg38
(lp1026
g1014
ag1018
ag1022
aS'pixels'
p1027
ag1010
asg1027
g0
(g103
g2
Ntp1028
Rp1029
(dp1030
g11
I00
sg19
I01
sg37
I36000
sg20
I00
sbsbag0
(g28
g2
Ntp1031
Rp1032
(dp1033
g11
I00
sg19
I01
sg20
I00
sg1010
g0
(g352
g2
Ntp1034
Rp1035
(dp1036
g11
I00
sg19
I01
sg37
F0.0
sg20
I00
sbsg1014
g0
(g352
g2
Ntp1037
Rp1038
(dp1039
g11
I00
sg19
I01
sg37
F1.0
sg20
I00
sbsg1018
g0
(g352
g2
Ntp1040
Rp1041
(dp1042
g11
I00
sg19
I01
sg37
F0.0
sg20
I00
sbsg1022
g0
(g352
g2
Ntp1043
Rp1044
(dp1045
g11
I00
sg19
I01
sg37
F0.0
sg20
I00
sbsg38
(lp1046
g1014
ag1018
ag1022
ag1027
ag1010
asg1027
g0
(g103
g2
Ntp1047
Rp1048
(dp1049
g11
I00
sg19
I01
sg37
I2500
sg20
I00
sbsbag0
(g28
g2
Ntp1050
Rp1051
(dp1052
g11
I00
sg19
I01
sg20
I00
sg1010
g0
(g352
g2
Ntp1053
Rp1054
(dp1055
g11
I00
sg19
I01
sg37
F0.17
sg20
I00
sbsg1014
g0
(g352
g2
Ntp1056
Rp1057
(dp1058
g11
I00
sg19
I01
sg37
F1.00985
sg20
I00
sbsg1018
g0
(g352
g2
Ntp1059
Rp1060
(dp1061
g11
I00
sg19
I01
sg37
F2.86282e-10
sg20
I00
sbsg1022
g0
(g352
g2
Ntp1062
Rp1063
(dp1064
g11
I00
sg19
I01
sg37
F7.84089e-06
sg20
I00
sbsg38
(lp1065
g1014
ag1018
ag1022
ag1027
ag1010
asg1027
g0
(g103
g2
Ntp1066
Rp1067
(dp1068
g11
I00
sg19
I01
sg37
I27370
sg20
I00
sbsbag0
(g28
g2
Ntp1069
Rp1070
(dp1071
g11
I00
sg19
I01
sg20
I00
sg1010
g0
(g352
g2
Ntp1072
Rp1073
(dp1074
g11
I00
sg19
I01
sg37
F0.196
sg20
I00
sbsg1014
g0
(g352
g2
Ntp1075
Rp1076
(dp1077
g11
I00
sg19
I01
sg37
F1.00546
sg20
I00
sbsg1018
g0
(g352
g2
Ntp1078
Rp1079
(dp1080
g11
I00
sg19
I01
sg37
F1.27011e-10
sg20
I00
sbsg1022
g0
(g352
g2
Ntp1081
Rp1082
(dp1083
g11
I00
sg19
I01
sg37
F6.40239e-06
sg20
I00
sbsg38
(lp1084
g1014
ag1018
ag1022
ag1027
ag1010
asg1027
g0
(g103
g2
Ntp1085
Rp1086
(dp1087
g11
I00
sg19
I01
sg37
I38018
sg20
I00
sbsbag0
(g28
g2
Ntp1088
Rp1089
(dp1090
g11
I00
sg19
I01
sg20
I00
sg1010
g0
(g352
g2
Ntp1091
Rp1092
(dp1093
g11
I00
sg19
I01
sg37
F0.17
sg20
I00
sbsg1014
g0
(g352
g2
Ntp1094
Rp1095
(dp1096
g11
I00
sg19
I01
sg37
F1.00985
sg20
I00
sbsg1018
g0
(g352
g2
Ntp1097
Rp1098
(dp1099
g11
I00
sg19
I01
sg37
F2.86282e-10
sg20
I00
sbsg1022
g0
(g352
g2
Ntp1100
Rp1101
(dp1102
g11
I00
sg19
I01
sg37
F7.84089e-06
sg20
I00
sbsg38
(lp1103
g1014
ag1018
ag1022
ag1027
ag1010
asg1027
g0
(g103
g2
Ntp1104
Rp1105
(dp1106
g11
I00
sg19
I01
sg37
I27370
sg20
I00
sbsbag0
(g28
g2
Ntp1107
Rp1108
(dp1109
g11
I00
sg19
I01
sg20
I00
sg1010
g0
(g352
g2
Ntp1110
Rp1111
(dp1112
g11
I00
sg19
I01
sg37
F0.196
sg20
I00
sbsg1014
g0
(g352
g2
Ntp1113
Rp1114
(dp1115
g11
I00
sg19
I01
sg37
F1.00546
sg20
I00
sbsg1018
g0
(g352
g2
Ntp1116
Rp1117
(dp1118
g11
I00
sg19
I01
sg37
F1.27011e-10
sg20
I00
sbsg1022
g0
(g352
g2
Ntp1119
Rp1120
(dp1121
g11
I00
sg19
I01
sg37
F6.40239e-06
sg20
I00
sbsg38
(lp1122
g1014
ag1018
ag1022
ag1027
ag1010
asg1027
g0
(g103
g2
Ntp1123
Rp1124
(dp1125
g11
I00
sg19
I01
sg37
I38018
sg20
I00
sbsbag0
(g28
g2
Ntp1126
Rp1127
(dp1128
g11
I00
sg19
I01
sg20
I00
sg1010
g0
(g352
g2
Ntp1129
Rp1130
(dp1131
g11
I00
sg19
I01
sg37
F0.0
sg20
I00
sbsg1014
g0
(g352
g2
Ntp1132
Rp1133
(dp1134
g11
I00
sg19
I01
sg37
F1.0
sg20
I00
sbsg1018
g0
(g352
g2
Ntp1135
Rp1136
(dp1137
g11
I00
sg19
I01
sg37
F0.0
sg20
I00
sbsg1022
g0
(g352
g2
Ntp1138
Rp1139
(dp1140
g11
I00
sg19
I01
sg37
F0.0
sg20
I00
sbsg38
(lp1141
g1014
ag1018
ag1022
ag1027
ag1010
asg1027
g0
(g103
g2
Ntp1142
Rp1143
(dp1144
g11
I00
sg19
I01
sg37
I0
sg20
I00
sbsbatp1145
Rp1146
(dp1147
g11
I00
sg19
I01
sg20
I00
sg21
I1
sbsg285
g559
sg693
g0
(g33
g2
Ntp1148
Rp1149
(dp1150
g11
I00
sg19
I01
sg37
I01
sg20
I00
sbsg694
g0
(g28
g2
Ntp1151
Rp1152
(dp1153
g11
I00
sg19
I01
sg584
g0
(g103
g2
Ntp1154
Rp1155
(dp1156
g11
I00
sg19
I01
sg37
I1
sg20
I00
sbsg20
I00
sg588
g0
(g352
g2
Ntp1157
Rp1158
(dp1159
g11
I00
sg19
I01
sg37
F3.33
sg20
I00
sbsg592
g0
(g103
g2
Ntp1160
Rp1161
(dp1162
g11
I00
sg19
I01
sg37
I301
sg20
I00
sbsg596
g0
(g103
g2
Ntp1163
Rp1164
(dp1165
g11
I00
sg19
I01
sg37
I-9999
sg20
I00
sbsg600
g0
(g466
g14
(lp1166
F0.0
atp1167
Rp1168
(dp1169
g11
I00
sg19
I01
sg20
I00
sbsg605
g0
(g466
g14
(lp1170
F0.0697
aF-0.7405
aF12.38
aF-671.9
atp1171
Rp1172
(dp1173
g11
I00
sg19
I01
sg20
I00
sbsg610
g0
(g466
g14
(lp1174
F0.297
aF0.298
aF0.298
aF0.313
atp1175
Rp1176
(dp1177
g11
I00
sg19
I01
sg20
I00
sbsg654
g0
(g466
g14
(lp1178
F0.14
aF0.135
atp1179
Rp1180
(dp1181
g11
I00
sg19
I01
sg20
I00
sbsg645
g0
(g33
g2
Ntp1182
Rp1183
(dp1184
g11
I00
sg19
I01
sg37
I00
sg20
I00
sbsg38
(lp1185
g584
ag588
ag592
ag596
ag650
ag605
ag610
ag654
ag645
ag600
ag651
ag652
ag653
asg650
g0
(g352
g2
Ntp1186
Rp1187
(dp1188
g11
I00
sg19
I01
sg37
F0.0
sg20
I00
sbsg651
g0
(g352
g2
Ntp1189
Rp1190
(dp1191
g11
I00
sg19
I01
sg37
F13.33
sg20
I00
sbsg652
g0
(g103
g2
Ntp1192
Rp1193
(dp1194
g11
I00
sg19
I01
sg37
I301
sg20
I00
sbsg653
g0
(g466
g14
(lp1195
F0.0
aF0.0
atp1196
Rp1197
(dp1198
g11
I00
sg19
I01
sg20
I00
sbsbsbsS'GlobalTag'
p1199
g0
(g547
g2
Ntp1200
Rp1201
(dp1202
g38
(lp1203
S'DBParameters'
p1204
aS'connect'
p1205
aS'globaltag'
p1206
aS'RefreshEachRun'
p1207
aS'pfnPrefix'
p1208
aS'snapshotTime'
p1209
ag673
aS'pfnPostfix'
p1210
aS'RefreshAlways'
p1211
aS'ReconnectEachRun'
p1212
aS'RefreshOpenIOVs'
p1213
aS'DumpStat'
p1214
asg11
I00
sg69
S'/cvmfs/cms.cern.ch/slc7_amd64_gcc700/cms/cmssw-patch/CMSSW_10_2_4_patch1/python/CondCore/ESSources/CondDBESSource_cfi.py'
p1215
sg20
I01
sg1206
g0
(g164
g2
Ntp1216
Rp1217
(dp1218
g11
I00
sg19
I01
sg37
S'92X_dataRun2_Prompt_v4'
p1219
sg20
I01
sbsg1207
g0
(g33
g2
Ntp1220
Rp1221
(dp1222
g11
I00
sg19
I00
sg37
I00
sg20
I00
sbsg1208
g0
(g164
g2
Ntp1223
Rp1224
(dp1225
g11
I00
sg19
I00
sg37
g282
sg20
I00
sbsg1209
g0
(g164
g2
Ntp1226
Rp1227
(dp1228
g11
I00
sg19
I01
sg37
g282
sg20
I00
sbsg673
g0
(g1005
g14
(lp1229
tp1230
Rp1231
(dp1232
g11
I00
sg19
I01
sg20
I00
sg21
I1
sbsg1210
g0
(g164
g2
Ntp1233
Rp1234
(dp1235
g11
I00
sg19
I00
sg37
g282
sg20
I00
sbsg1204
g0
(g28
g2
Ntp1236
Rp1237
(dp1238
g11
I00
sg19
I01
sS'authenticationPath'
p1239
g0
(g164
g2
Ntp1240
Rp1241
(dp1242
g11
I00
sg19
I00
sg37
g282
sg20
I00
sbsg20
I00
sS'messageLevel'
p1243
g0
(g103
g2
Ntp1244
Rp1245
(dp1246
g11
I00
sg19
I00
sg37
I0
sg20
I00
sbsg38
(lp1247
g1243
aS'security'
p1248
aS'authenticationSystem'
p1249
ag1239
asg1248
g0
(g164
g2
Ntp1250
Rp1251
(dp1252
g11
I00
sg19
I00
sg37
g282
sg20
I00
sbsg1249
g0
(g103
g2
Ntp1253
Rp1254
(dp1255
g11
I00
sg19
I00
sg37
I0
sg20
I00
sbsbsg1211
g0
(g33
g2
Ntp1256
Rp1257
(dp1258
g11
I00
sg19
I00
sg37
I00
sg20
I00
sbsg40
I19
sg1205
g0
(g164
g2
Ntp1259
Rp1260
(dp1261
g11
I00
sg19
I01
sg37
S'frontier://FrontierProd/CMS_CONDITIONS'
p1262
sg20
I00
sbsg1212
g0
(g33
g2
Ntp1263
Rp1264
(dp1265
g11
I00
sg19
I00
sg37
I00
sg20
I00
sbsg285
g1199
sg1213
g0
(g33
g2
Ntp1266
Rp1267
(dp1268
g11
I00
sg19
I00
sg37
I00
sg20
I00
sbsg1214
g0
(g33
g2
Ntp1269
Rp1270
(dp1271
g11
I00
sg19
I00
sg37
I00
sg20
I00
sbsg46
S'PoolDBESSource'
p1272
sbsS'HcalTimeSlewEP'
p1273
g0
(g547
g2
Ntp1274
Rp1275
(dp1276
g38
(lp1277
S'timeSlewParametersM3'
p1278
aS'timeSlewParametersM2'
p1279
aS'appendToDataLabel'
p1280
asg11
I00
sg1278
g0
(g1005
g14
(lp1281
g0
(g28
g2
Ntp1282
Rp1283
(dp1284
g11
I00
sg19
I01
sS'tspar2'
p1285
g0
(g352
g2
Ntp1286
Rp1287
(dp1288
g11
I00
sg19
I01
sg37
F0.0
sg20
I00
sbsg20
I00
sS'tspar0'
p1289
g0
(g352
g2
Ntp1290
Rp1291
(dp1292
g11
I00
sg19
I01
sg37
F12.2999
sg20
I00
sbsS'tspar1'
p1293
g0
(g352
g2
Ntp1294
Rp1295
(dp1296
g11
I00
sg19
I01
sg37
F-2.19142
sg20
I00
sbsS'tspar1_siPM'
p1297
g0
(g352
g2
Ntp1298
Rp1299
(dp1300
g11
I00
sg19
I01
sg37
F0.0
sg20
I00
sbsS'cap'
p1301
g0
(g352
g2
Ntp1302
Rp1303
(dp1304
g11
I00
sg19
I01
sg37
F6.0
sg20
I00
sbsS'tspar0_siPM'
p1305
g0
(g352
g2
Ntp1306
Rp1307
(dp1308
g11
I00
sg19
I01
sg37
F0.0
sg20
I00
sbsg38
(lp1309
g1285
ag1289
ag1293
ag1297
ag1301
ag1305
aS'tspar2_siPM'
p1310
asg1310
g0
(g352
g2
Ntp1311
Rp1312
(dp1313
g11
I00
sg19
I01
sg37
F0.0
sg20
I00
sbsbag0
(g28
g2
Ntp1314
Rp1315
(dp1316
g11
I00
sg19
I01
sg1285
g0
(g352
g2
Ntp1317
Rp1318
(dp1319
g11
I00
sg19
I01
sg37
F32.0
sg20
I00
sbsg20
I00
sg1289
g0
(g352
g2
Ntp1320
Rp1321
(dp1322
g11
I00
sg19
I01
sg37
F15.5
sg20
I00
sbsg1293
g0
(g352
g2
Ntp1323
Rp1324
(dp1325
g11
I00
sg19
I01
sg37
F-3.2
sg20
I00
sbsg1297
g0
(g352
g2
Ntp1326
Rp1327
(dp1328
g11
I00
sg19
I01
sg37
F0.0
sg20
I00
sbsg1301
g0
(g352
g2
Ntp1329
Rp1330
(dp1331
g11
I00
sg19
I01
sg37
F6.0
sg20
I00
sbsg1305
g0
(g352
g2
Ntp1332
Rp1333
(dp1334
g11
I00
sg19
I01
sg37
F0.0
sg20
I00
sbsg38
(lp1335
g1285
ag1289
ag1293
ag1297
ag1301
ag1305
ag1310
asg1310
g0
(g352
g2
Ntp1336
Rp1337
(dp1338
g11
I00
sg19
I01
sg37
F0.0
sg20
I00
sbsbag0
(g28
g2
Ntp1339
Rp1340
(dp1341
g11
I00
sg19
I01
sg1285
g0
(g352
g2
Ntp1342
Rp1343
(dp1344
g11
I00
sg19
I01
sg37
F0.0
sg20
I00
sbsg20
I00
sg1289
g0
(g352
g2
Ntp1345
Rp1346
(dp1347
g11
I00
sg19
I01
sg37
F12.2999
sg20
I00
sbsg1293
g0
(g352
g2
Ntp1348
Rp1349
(dp1350
g11
I00
sg19
I01
sg37
F-2.19142
sg20
I00
sbsg1297
g0
(g352
g2
Ntp1351
Rp1352
(dp1353
g11
I00
sg19
I01
sg37
F0.0
sg20
I00
sbsg1301
g0
(g352
g2
Ntp1354
Rp1355
(dp1356
g11
I00
sg19
I01
sg37
F6.0
sg20
I00
sbsg1305
g0
(g352
g2
Ntp1357
Rp1358
(dp1359
g11
I00
sg19
I01
sg37
F0.0
sg20
I00
sbsg38
(lp1360
g1285
ag1289
ag1293
ag1297
ag1301
ag1305
ag1310
asg1310
g0
(g352
g2
Ntp1361
Rp1362
(dp1363
g11
I00
sg19
I01
sg37
F0.0
sg20
I00
sbsbag0
(g28
g2
Ntp1364
Rp1365
(dp1366
g11
I00
sg19
I01
sg1285
g0
(g352
g2
Ntp1367
Rp1368
(dp1369
g11
I00
sg19
I01
sg37
F0.0
sg20
I00
sbsg20
I00
sg1289
g0
(g352
g2
Ntp1370
Rp1371
(dp1372
g11
I00
sg19
I01
sg37
F12.2999
sg20
I00
sbsg1293
g0
(g352
g2
Ntp1373
Rp1374
(dp1375
g11
I00
sg19
I01
sg37
F-2.19142
sg20
I00
sbsg1297
g0
(g352
g2
Ntp1376
Rp1377
(dp1378
g11
I00
sg19
I01
sg37
F0.0
sg20
I00
sbsg1301
g0
(g352
g2
Ntp1379
Rp1380
(dp1381
g11
I00
sg19
I01
sg37
F6.0
sg20
I00
sbsg1305
g0
(g352
g2
Ntp1382
Rp1383
(dp1384
g11
I00
sg19
I01
sg37
F0.0
sg20
I00
sbsg38
(lp1385
g1285
ag1289
ag1293
ag1297
ag1301
ag1305
ag1310
asg1310
g0
(g352
g2
Ntp1386
Rp1387
(dp1388
g11
I00
sg19
I01
sg37
F0.0
sg20
I00
sbsbatp1389
Rp1390
(dp1391
g11
I00
sg19
I01
sg20
I00
sg21
I1
sbsg1279
g0
(g1005
g14
(lp1392
g0
(g28
g2
Ntp1393
Rp1394
(dp1395
g11
I00
sg19
I01
sg20
I00
sS'slope'
p1396
g0
(g352
g2
Ntp1397
Rp1398
(dp1399
g11
I00
sg19
I01
sg37
F-3.178648
sg20
I00
sbsS'tmax'
p1400
g0
(g352
g2
Ntp1401
Rp1402
(dp1403
g11
I00
sg19
I01
sg37
F16.0
sg20
I00
sbsS'tzero'
p1404
g0
(g352
g2
Ntp1405
Rp1406
(dp1407
g11
I00
sg19
I01
sg37
F23.960177
sg20
I00
sbsg38
(lp1408
g1396
ag1400
ag1404
asbag0
(g28
g2
Ntp1409
Rp1410
(dp1411
g11
I00
sg19
I01
sg20
I00
sg1396
g0
(g352
g2
Ntp1412
Rp1413
(dp1414
g11
I00
sg19
I01
sg37
F-1.556668
sg20
I00
sbsg1400
g0
(g352
g2
Ntp1415
Rp1416
(dp1417
g11
I00
sg19
I01
sg37
F10.0
sg20
I00
sbsg1404
g0
(g352
g2
Ntp1418
Rp1419
(dp1420
g11
I00
sg19
I01
sg37
F13.307784
sg20
I00
sbsg38
(lp1421
g1396
ag1400
ag1404
asbag0
(g28
g2
Ntp1422
Rp1423
(dp1424
g11
I00
sg19
I01
sg20
I00
sg1396
g0
(g352
g2
Ntp1425
Rp1426
(dp1427
g11
I00
sg19
I01
sg37
F-1.075824
sg20
I00
sbsg1400
g0
(g352
g2
Ntp1428
Rp1429
(dp1430
g11
I00
sg19
I01
sg37
F6.25
sg20
I00
sbsg1404
g0
(g352
g2
Ntp1431
Rp1432
(dp1433
g11
I00
sg19
I01
sg37
F9.109694
sg20
I00
sbsg38
(lp1434
g1396
ag1400
ag1404
asbatp1435
Rp1436
(dp1437
g11
I00
sg19
I01
sg20
I00
sg21
I1
sbsg20
I00
sg40
I23
sg69
S'/cvmfs/cms.cern.ch/slc7_amd64_gcc700/cms/cmssw-patch/CMSSW_10_2_4_patch1/python/CalibCalorimetry/HcalPlugins/HcalTimeSlew_cff.py'
p1438
sg1280
g0
(g164
g2
Ntp1439
Rp1440
(dp1441
g11
I00
sg19
I01
sg37
S'HBHE'
p1442
sg20
I00
sbsg285
g1273
sg46
g1273
sbssg338
g319
sg511
g513
sS'source'
p1443
g319
sS'CastorDbProducer'
p1444
g0
(g340
g2
Ntp1445
Rp1446
(dp1447
g38
(lp1448
g1280
asg11
I00
sg1280
g0
(g164
g2
Ntp1449
Rp1450
(dp1451
g11
I00
sg19
I01
sg37
g282
sg20
I00
sbsg20
I00
sg40
I53
sg69
g70
sg285
g1444
sg46
g1444
sbsS'_Process__vpsets'
p1452
(dp1453
sS'_Process__name'
p1454
S'analysis'
p1455
sg1273
g1275
sS'es_prefer_hcalHardcode'
p1456
g0
(cFWCore.ParameterSet.Modules
ESPrefer
p1457
g2
Ntp1458
Rp1459
(dp1460
g38
(lp1461
sg11
I00
sg20
I00
sS'_targetLabel'
p1462
g559
sg40
I89
sg69
g70
sg285
g1456
sg46
g776
sbsS'_Process__subProcesses'
p1463
(lp1464
sS'_cloneToObjectDict'
p1465
(dp1466
I139793241392144
g549
sI139793241318416
g522
sI139793241780112
g418
sI139793241290448
g0
(g340
g2
Ntp1467
Rp1468
(dp1469
g38
(lp1470
S'PreFilter'
p1471
ag346
aS'NSigmaInside'
p1472
asg11
I00
sg20
I00
sg69
g70
sg346
g0
(g164
g2
Ntp1473
Rp1474
(dp1475
g11
I00
sg19
I01
sg37
S'StandardMatcher'
p1476
sg20
I00
sbsg1471
g0
(g33
g2
Ntp1477
Rp1478
(dp1479
g11
I00
sg19
I01
sg37
I00
sg20
I00
sbsg40
I53
sg1472
g0
(g352
g2
Ntp1480
Rp1481
(dp1482
g11
I00
sg19
I01
sg37
F3.0
sg20
I00
sbsg285
S'SiStripRecHitMatcherESProducer'
p1483
sg46
g1483
sbsI139793241679632
g463
sI139793241290576
g0
(g340
g2
Ntp1484
Rp1485
(dp1486
g38
(lp1487
sg11
I00
sg20
I00
sg40
I53
sg69
g70
sg285
S'sistripconn'
p1488
sg46
S'SiStripConnectivity'
p1489
sbsI139793241290960
g269
sI139793241778512
g0
(g340
g2
Ntp1490
Rp1491
(dp1492
g38
(lp1493
S'printDebug'
p1494
ag1280
aS'APVGain'
p1495
aS'AutomaticNormalization'
p1496
asg11
I00
sg1280
g0
(g164
g2
Ntp1497
Rp1498
(dp1499
g11
I00
sg19
I01
sg37
g282
sg20
I00
sbsg20
I00
sg1496
g0
(g33
g2
Ntp1500
Rp1501
(dp1502
g11
I00
sg19
I01
sg37
I00
sg20
I00
sbsg40
I53
sg1494
g0
(g33
g2
Ntp1503
Rp1504
(dp1505
g11
I00
sg19
I00
sg37
I00
sg20
I00
sbsg69
g70
sg1495
g0
(g1005
g14
(lp1506
g0
(g28
g2
Ntp1507
Rp1508
(dp1509
g11
I00
sg19
I01
sg20
I00
sS'Label'
p1510
g0
(g164
g2
Ntp1511
Rp1512
(dp1513
g11
I00
sg19
I00
sg37
g282
sg20
I00
sbsS'Record'
p1514
g0
(g164
g2
Ntp1515
Rp1516
(dp1517
g11
I00
sg19
I01
sg37
S'SiStripApvGainRcd'
p1518
sg20
I00
sbsS'NormalizationFactor'
p1519
g0
(g352
g2
Ntp1520
Rp1521
(dp1522
g11
I00
sg19
I00
sg37
F1.0
sg20
I00
sbsg38
(lp1523
g1514
ag1519
ag1510
asbag0
(g28
g2
Ntp1524
Rp1525
(dp1526
g11
I00
sg19
I01
sg20
I00
sg1510
g0
(g164
g2
Ntp1527
Rp1528
(dp1529
g11
I00
sg19
I00
sg37
g282
sg20
I00
sbsg1514
g0
(g164
g2
Ntp1530
Rp1531
(dp1532
g11
I00
sg19
I01
sg37
S'SiStripApvGain2Rcd'
p1533
sg20
I00
sbsg1519
g0
(g352
g2
Ntp1534
Rp1535
(dp1536
g11
I00
sg19
I00
sg37
F1.0
sg20
I00
sbsg38
(lp1537
g1514
ag1519
ag1510
asbatp1538
Rp1539
(dp1540
g11
I00
sg19
I01
sg20
I00
sg21
I1
sbsg285
S'siStripGainESProducer'
p1541
sg46
S'SiStripGainESProducer'
p1542
sbsI139793241291216
g0
(g340
g2
Ntp1543
Rp1544
(dp1545
g38
(lp1546
S'ListOfRecordToMerge'
p1547
asg11
I00
sg20
I01
sg40
I53
sg69
g70
sg1547
g0
(g1005
g14
(lp1548
g0
(g28
g2
Ntp1549
Rp1550
(dp1551
g11
I00
sg19
I01
sg20
I00
sg431
g0
(g164
g2
Ntp1552
Rp1553
(dp1554
g11
I00
sg19
I01
sg37
S'SiPixelQualityFromDbRcd'
p1555
sg20
I00
sbsS'tag'
p1556
g0
(g164
g2
Ntp1557
Rp1558
(dp1559
g11
I00
sg19
I01
sg37
g282
sg20
I00
sbsg38
(lp1560
g431
ag1556
asbag0
(g28
g2
Ntp1561
Rp1562
(dp1563
g11
I00
sg19
I01
sg20
I00
sg431
g0
(g164
g2
Ntp1564
Rp1565
(dp1566
g11
I00
sg19
I01
sg37
S'SiPixelDetVOffRcd'
p1567
sg20
I00
sbsg1556
g0
(g164
g2
Ntp1568
Rp1569
(dp1570
g11
I00
sg19
I01
sg37
g282
sg20
I00
sbsg38
(lp1571
g431
ag1556
asbatp1572
Rp1573
(dp1574
g11
I00
sg19
I01
sg20
I00
sg21
I1
sbsg285
S'siPixelQualityESProducer'
p1575
sg46
S'SiPixelQualityESProducer'
p1576
sbsI139793241741840
g561
sI139793241779408
g0
(g340
g2
Ntp1577
Rp1578
(dp1579
g38
(lp1580
g421
aS'LorentzAngleDeconvMode'
p1581
aS'LorentzAnglePeakMode'
p1582
asg11
I00
sg20
I00
sg40
I53
sg69
g70
sg421
g0
(g28
g2
Ntp1583
Rp1584
(dp1585
g11
I00
sg19
I01
sg20
I00
sg427
g0
(g164
g2
Ntp1586
Rp1587
(dp1588
g11
I00
sg19
I00
sg37
g282
sg20
I00
sbsg431
g0
(g164
g2
Ntp1589
Rp1590
(dp1591
g11
I00
sg19
I01
sg37
g435
sg20
I00
sbsg38
(lp1592
g431
ag427
asbsg285
S'siStripLorentzAngleDepESProducer'
p1593
sg1582
g0
(g28
g2
Ntp1594
Rp1595
(dp1596
g11
I00
sg19
I01
sg20
I00
sg427
g0
(g164
g2
Ntp1597
Rp1598
(dp1599
g11
I00
sg19
I00
sg37
g443
sg20
I00
sbsg431
g0
(g164
g2
Ntp1600
Rp1601
(dp1602
g11
I00
sg19
I01
sg37
S'SiStripLorentzAngleRcd'
p1603
sg20
I00
sbsg38
(lp1604
g431
ag427
asbsg46
S'SiStripLorentzAngleDepESProducer'
p1605
sg1581
g0
(g28
g2
Ntp1606
Rp1607
(dp1608
g11
I00
sg19
I01
sg20
I00
sg427
g0
(g164
g2
Ntp1609
Rp1610
(dp1611
g11
I00
sg19
I00
sg37
g455
sg20
I00
sbsg431
g0
(g164
g2
Ntp1612
Rp1613
(dp1614
g11
I00
sg19
I01
sg37
g1603
sg20
I00
sbsg38
(lp1615
g431
ag427
asbsbsI139793241679696
g531
sI139793241292368
g0
(g340
g2
Ntp1616
Rp1617
(dp1618
g38
(lp1619
g1280
aS'PrintDebugOutput'
p1620
aS'ThresholdForReducedGranularity'
p1621
aS'UseEmptyRunInfo'
p1622
aS'ReduceGranularity'
p1623
ag1547
asg11
I00
sg1280
g0
(g164
g2
Ntp1624
Rp1625
(dp1626
g11
I00
sg19
I01
sg37
g282
sg20
I00
sbsg20
I01
sg40
I53
sg69
g70
sg1621
g0
(g352
g2
Ntp1627
Rp1628
(dp1629
g11
I00
sg19
I01
sg37
F0.3
sg20
I00
sbsg285
S'siStripQualityESProducer'
p1630
sg1622
g0
(g33
g2
Ntp1631
Rp1632
(dp1633
g11
I00
sg19
I01
sg37
I00
sg20
I00
sbsg1623
g0
(g33
g2
Ntp1634
Rp1635
(dp1636
g11
I00
sg19
I01
sg37
I00
sg20
I00
sbsg1547
g0
(g1005
g14
(lp1637
g0
(g28
g2
Ntp1638
Rp1639
(dp1640
g11
I00
sg19
I01
sg20
I00
sg431
g0
(g164
g2
Ntp1641
Rp1642
(dp1643
g11
I00
sg19
I01
sg37
S'SiStripDetVOffRcd'
p1644
sg20
I00
sbsg1556
g0
(g164
g2
Ntp1645
Rp1646
(dp1647
g11
I00
sg19
I01
sg37
g282
sg20
I00
sbsg38
(lp1648
g431
ag1556
asbag0
(g28
g2
Ntp1649
Rp1650
(dp1651
g11
I00
sg19
I01
sg20
I00
sg431
g0
(g164
g2
Ntp1652
Rp1653
(dp1654
g11
I00
sg19
I01
sg37
S'SiStripDetCablingRcd'
p1655
sg20
I00
sbsg1556
g0
(g164
g2
Ntp1656
Rp1657
(dp1658
g11
I00
sg19
I01
sg37
g282
sg20
I00
sbsg38
(lp1659
g431
ag1556
asbag0
(g28
g2
Ntp1660
Rp1661
(dp1662
g11
I00
sg19
I01
sg20
I00
sg431
g0
(g164
g2
Ntp1663
Rp1664
(dp1665
g11
I00
sg19
I01
sg37
S'RunInfoRcd'
p1666
sg20
I00
sbsg1556
g0
(g164
g2
Ntp1667
Rp1668
(dp1669
g11
I00
sg19
I01
sg37
g282
sg20
I00
sbsg38
(lp1670
g431
ag1556
asbag0
(g28
g2
Ntp1671
Rp1672
(dp1673
g11
I00
sg19
I01
sg20
I00
sg431
g0
(g164
g2
Ntp1674
Rp1675
(dp1676
g11
I00
sg19
I01
sg37
S'SiStripBadChannelRcd'
p1677
sg20
I00
sbsg1556
g0
(g164
g2
Ntp1678
Rp1679
(dp1680
g11
I00
sg19
I01
sg37
g282
sg20
I00
sbsg38
(lp1681
g431
ag1556
asbag0
(g28
g2
Ntp1682
Rp1683
(dp1684
g11
I00
sg19
I01
sg20
I00
sg431
g0
(g164
g2
Ntp1685
Rp1686
(dp1687
g11
I00
sg19
I01
sg37
S'SiStripBadFiberRcd'
p1688
sg20
I00
sbsg1556
g0
(g164
g2
Ntp1689
Rp1690
(dp1691
g11
I00
sg19
I01
sg37
g282
sg20
I00
sbsg38
(lp1692
g431
ag1556
asbag0
(g28
g2
Ntp1693
Rp1694
(dp1695
g11
I00
sg19
I01
sg20
I00
sg431
g0
(g164
g2
Ntp1696
Rp1697
(dp1698
g11
I00
sg19
I01
sg37
S'SiStripBadModuleRcd'
p1699
sg20
I00
sbsg1556
g0
(g164
g2
Ntp1700
Rp1701
(dp1702
g11
I00
sg19
I01
sg37
g282
sg20
I00
sbsg38
(lp1703
g431
ag1556
asbag0
(g28
g2
Ntp1704
Rp1705
(dp1706
g11
I00
sg19
I01
sg20
I00
sg431
g0
(g164
g2
Ntp1707
Rp1708
(dp1709
g11
I00
sg19
I01
sg37
S'SiStripBadStripRcd'
p1710
sg20
I00
sbsg1556
g0
(g164
g2
Ntp1711
Rp1712
(dp1713
g11
I00
sg19
I01
sg37
g282
sg20
I00
sbsg38
(lp1714
g431
ag1556
asbatp1715
Rp1716
(dp1717
g11
I00
sg19
I01
sg20
I00
sg21
I1
sbsg46
S'SiStripQualityESProducer'
p1718
sg1620
g0
(g33
g2
Ntp1719
Rp1720
(dp1721
g11
I00
sg19
I01
sg37
I00
sg20
I00
sbsbsI139793241392208
g258
sI139793241743056
g1459
sI139793242978768
g506
sI139793241288976
g489
sI139793243012432
g1201
sI139793241289104
g342
sI139793241291984
g513
sI139793241678544
g1275
sI139793241776912
g1446
ssg1541
g1491
sg1488
g1485
sS'_Process__esprefers'
p1722
(dp1723
g1456
g1459
ssg1483
g1468
sg286
g269
sS'_Process__schedule'
p1724
Nsg1630
g1617
sg546
g549
sS'_Process__outputmodules'
p1725
(dp1726
sS'_Process__analyzers'
p1727
(dp1728
g286
g269
ssS'_Process__InExtendCall'
p1729
I00
sg1593
g1578
sS'_Process__modifiers'
p1730
(tsS'_Process__producers'
p1731
(dp1732
sg1575
g1544
sg1199
g1201
sS'_Process__filters'
p1733
(dp1734
sg559
g561
sS'_Process__looper'
p1735
NsS'_Process__endpaths'
p1736
g0
(cFWCore.ParameterSet.DictTypes
SortedKeysDict
p1737
c__builtin__
dict
p1738
(dp1739
tp1740
Rp1741
(dp1742
S'list'
p1743
(lp1744
sbsS'_Process__esproducers'
p1745
(dp1746
g1593
g1578
sg487
g489
sg1483
g1468
sg1575
g1544
sg529
g531
sg1541
g1491
sg1488
g1485
sg339
g342
sg1444
g1446
sg504
g506
sg416
g418
sg1630
g1617
ssS'_Process__tasks'
p1747
(dp1748
sS'_Process__paths'
p1749
g0
(g1737
g1738
(dp1750
g255
g258
stp1751
Rp1752
(dp1753
g1743
(lp1754
g255
asbsS'_Process__partialschedules'
p1755
(dp1756
sg520
g522
sS'_Process__isStrict'
p1757
I00
sb.