ccopy_reg
_reconstructor
p0
(cFWCore.ParameterSet.Config
Process
p1
c__builtin__
object
p2
Ntp3
Rp4
(dp5
S'MessageLogger'
p6
g0
(cFWCore.ParameterSet.Modules
Service
p7
g2
Ntp8
Rp9
(dp10
S'_isFrozen'
p11
I00
sS'suppressInfo'
p12
g0
(cFWCore.ParameterSet.Types
vstring
p13
c__builtin__
list
p14
(lp15
tp16
Rp17
(dp18
g11
I00
sS'_ParameterTypeBase__isTracked'
p19
I00
sS'_isModified'
p20
I00
sS'_nPerLine'
p21
I1
sbsS'suppressDebug'
p22
g0
(g13
g14
(lp23
tp24
Rp25
(dp26
g11
I00
sg19
I00
sg20
I00
sg21
I1
sbsS'cout'
p27
g0
(cFWCore.ParameterSet.Types
PSet
p28
g2
Ntp29
Rp30
(dp31
g11
I00
sg19
I00
sS'placeholder'
p32
g0
(cFWCore.ParameterSet.Types
bool
p33
g2
Ntp34
Rp35
(dp36
g11
I00
sg19
I00
sS'_value'
p37
I01
sg20
I00
sbsg20
I00
sS'_Parameterizable__parameterNames'
p38
(lp39
g32
asbsS'_lineNumber'
p40
I14
sS'debugModules'
p41
g0
(g13
g14
(lp42
tp43
Rp44
(dp45
g11
I00
sg19
I00
sg20
I00
sg21
I1
sbsS'_TypedParameterizable__type'
p46
g6
sS'fwkJobReports'
p47
g0
(g13
g14
(lp48
S'FrameworkJobReport'
p49
atp50
Rp51
(dp52
g11
I00
sg19
I00
sg20
I00
sg21
I1
sbsg38
(lp53
g12
aS'debugs'
p54
ag22
ag27
aS'cerr_stats'
p55
aS'warnings'
p56
aS'default'
p57
aS'statistics'
p58
aS'cerr'
p59
ag49
aS'suppressWarning'
p60
aS'errors'
p61
aS'destinations'
p62
ag41
aS'infos'
p63
aS'categories'
p64
ag47
asg58
g0
(g13
g14
(lp65
g55
atp66
Rp67
(dp68
g11
I00
sg19
I00
sg20
I00
sg21
I1
sbsS'_filename'
p69
S'/cvmfs/cms.cern.ch/slc7_amd64_gcc820/cms/cmssw/CMSSW_10_6_0/python/FWCore/ParameterSet/Modules.py'
p70
sg62
g0
(g13
g14
(lp71
g56
ag61
ag63
ag54
ag27
ag59
atp72
Rp73
(dp74
g11
I00
sg19
I00
sg20
I00
sg21
I1
sbsg54
g0
(g28
g2
Ntp75
Rp76
(dp77
g11
I00
sg19
I00
sg32
g0
(g33
g2
Ntp78
Rp79
(dp80
g11
I00
sg19
I00
sg37
I01
sg20
I00
sbsg20
I00
sg38
(lp81
g32
asbsg56
g0
(g28
g2
Ntp82
Rp83
(dp84
g11
I00
sg19
I00
sg32
g0
(g33
g2
Ntp85
Rp86
(dp87
g11
I00
sg19
I00
sg37
I01
sg20
I00
sbsg20
I00
sg38
(lp88
g32
asbsg61
g0
(g28
g2
Ntp89
Rp90
(dp91
g11
I00
sg19
I00
sg32
g0
(g33
g2
Ntp92
Rp93
(dp94
g11
I00
sg19
I00
sg37
I01
sg20
I00
sbsg20
I00
sg38
(lp95
g32
asbsg49
g0
(g28
g2
Ntp96
Rp97
(dp98
g11
I00
sg19
I00
sg20
I00
sg57
g0
(g28
g2
Ntp99
Rp100
(dp101
g11
I00
sg19
I00
sS'limit'
p102
g0
(cFWCore.ParameterSet.Types
int32
p103
g2
Ntp104
Rp105
(dp106
g11
I00
sg19
I00
sg37
I0
sg20
I00
sbsg20
I00
sg38
(lp107
g102
asbsS'FwkJob'
p108
g0
(g28
g2
Ntp109
Rp110
(dp111
g11
I00
sg19
I00
sg20
I00
sg102
g0
(g103
g2
Ntp112
Rp113
(dp114
g11
I00
sg19
I00
sg37
I10000000
sg20
I00
sbsg38
(lp115
S'optionalPSet'
p116
ag102
asg116
g0
(g33
g2
Ntp117
Rp118
(dp119
g11
I00
sg19
I00
sg37
I01
sg20
I00
sbsbsg38
(lp120
g57
ag116
ag108
asg116
g0
(g33
g2
Ntp121
Rp122
(dp123
g11
I00
sg19
I00
sg37
I01
sg20
I00
sbsbsg60
g0
(g13
g14
(lp124
tp125
Rp126
(dp127
g11
I00
sg19
I00
sg20
I00
sg21
I1
sbsg63
g0
(g28
g2
Ntp128
Rp129
(dp130
g11
I00
sg19
I00
sg20
I00
sS'Root_NoDictionary'
p131
g0
(g28
g2
Ntp132
Rp133
(dp134
g11
I00
sg19
I00
sg20
I00
sg102
g0
(g103
g2
Ntp135
Rp136
(dp137
g11
I00
sg19
I00
sg37
I0
sg20
I00
sbsg38
(lp138
g116
ag102
asg116
g0
(g33
g2
Ntp139
Rp140
(dp141
g11
I00
sg19
I00
sg37
I01
sg20
I00
sbsbsg38
(lp142
g116
ag131
ag32
asg116
g0
(g33
g2
Ntp143
Rp144
(dp145
g11
I00
sg19
I00
sg37
I01
sg20
I00
sbsg32
g0
(g33
g2
Ntp146
Rp147
(dp148
g11
I00
sg19
I00
sg37
I01
sg20
I00
sbsbsg64
g0
(g13
g14
(lp149
g108
aS'FwkReport'
p150
aS'FwkSummary'
p151
ag131
atp152
Rp153
(dp154
g11
I00
sg19
I00
sg20
I00
sg21
I1
sbsg20
I00
sg55
g0
(g28
g2
Ntp155
Rp156
(dp157
g11
I00
sg19
I00
sg20
I00
sg116
g0
(g33
g2
Ntp158
Rp159
(dp160
g11
I00
sg19
I00
sg37
I01
sg20
I00
sbsg38
(lp161
S'threshold'
p162
aS'output'
p163
ag116
asg162
g0
(cFWCore.ParameterSet.Types
string
p164
g2
Ntp165
Rp166
(dp167
g11
I00
sg19
I00
sg37
S'WARNING'
p168
sg20
I00
sbsg163
g0
(g164
g2
Ntp169
Rp170
(dp171
g11
I00
sg19
I00
sg37
g59
sg20
I00
sbsbsg57
g0
(g28
g2
Ntp172
Rp173
(dp174
g11
I00
sg19
I00
sg20
I00
sg38
(lp175
sbsS'_inProcess'
p176
I01
sg59
g0
(g28
g2
Ntp177
Rp178
(dp179
g11
I00
sg19
I00
sS'noTimeStamps'
p180
g0
(g33
g2
Ntp181
Rp182
(dp183
g11
I00
sg19
I00
sg37
I00
sg20
I00
sbsg150
g0
(g28
g2
Ntp184
Rp185
(dp186
g11
I00
sg19
I00
sg20
I01
sS'reportEvery'
p187
g0
(g103
g2
Ntp188
Rp189
(dp190
g11
I00
sg19
I00
sg37
I1000
sg20
I01
sbsg102
g0
(g103
g2
Ntp191
Rp192
(dp193
g11
I00
sg19
I00
sg37
I10000000
sg20
I00
sbsg38
(lp194
g187
ag116
ag102
asg116
g0
(g33
g2
Ntp195
Rp196
(dp197
g11
I00
sg19
I00
sg37
I01
sg20
I00
sbsbsg20
I00
sg57
g0
(g28
g2
Ntp198
Rp199
(dp200
g11
I00
sg19
I00
sg102
g0
(g103
g2
Ntp201
Rp202
(dp203
g11
I00
sg19
I00
sg37
I10000000
sg20
I00
sbsg20
I00
sg38
(lp204
g102
asbsg131
g0
(g28
g2
Ntp205
Rp206
(dp207
g11
I00
sg19
I00
sg20
I00
sg102
g0
(g103
g2
Ntp208
Rp209
(dp210
g11
I00
sg19
I00
sg37
I0
sg20
I00
sbsg38
(lp211
g116
ag102
asg116
g0
(g33
g2
Ntp212
Rp213
(dp214
g11
I00
sg19
I00
sg37
I01
sg20
I00
sbsbsS'INFO'
p215
g0
(g28
g2
Ntp216
Rp217
(dp218
g11
I00
sg19
I00
sg102
g0
(g103
g2
Ntp219
Rp220
(dp221
g11
I00
sg19
I00
sg37
I0
sg20
I00
sbsg20
I00
sg38
(lp222
g102
asbsg116
g0
(g33
g2
Ntp223
Rp224
(dp225
g11
I00
sg19
I00
sg37
I01
sg20
I00
sbsg108
g0
(g28
g2
Ntp226
Rp227
(dp228
g11
I00
sg19
I00
sg20
I00
sg102
g0
(g103
g2
Ntp229
Rp230
(dp231
g11
I00
sg19
I00
sg37
I0
sg20
I00
sbsg38
(lp232
g116
ag102
asg116
g0
(g33
g2
Ntp233
Rp234
(dp235
g11
I00
sg19
I00
sg37
I01
sg20
I00
sbsbsg151
g0
(g28
g2
Ntp236
Rp237
(dp238
g11
I00
sg19
I00
sg20
I00
sg187
g0
(g103
g2
Ntp239
Rp240
(dp241
g11
I00
sg19
I00
sg37
I1
sg20
I00
sbsg102
g0
(g103
g2
Ntp242
Rp243
(dp244
g11
I00
sg19
I00
sg37
I10000000
sg20
I00
sbsg38
(lp245
g187
ag116
ag102
asg116
g0
(g33
g2
Ntp246
Rp247
(dp248
g11
I00
sg19
I00
sg37
I01
sg20
I00
sbsbsg38
(lp249
g215
ag180
ag150
ag57
ag131
ag162
ag108
ag151
ag116
asg162
g0
(g164
g2
Ntp250
Rp251
(dp252
g11
I00
sg19
I00
sg37
g215
sg20
I00
sbsbsbsS'_Process__sequences'
p253
(dp254
sS'p'
p255
g0
(cFWCore.ParameterSet.SequenceTypes
Path
p256
g2
Ntp257
Rp258
(dp259
g11
I00
sS'_seq'
p260
g0
(cFWCore.ParameterSet.SequenceTypes
_SequenceCollection
p261
g2
Ntp262
Rp263
(dp264
S'_collection'
p265
(lp266
g0
(cFWCore.ParameterSet.Modules
EDAnalyzer
p267
g2
Ntp268
Rp269
(dp270
g38
(lp271
S'fatJetCollection'
p272
aS'bits'
p273
asg11
I00
sg20
I00
sg40
I11
sg69
S'/uscms_data/d3/cannaert/src/thrust/CMSSW_10_6_0/src/diquarkAnalyzerBR_cfg.py'
p274
sS'_Labelable__label'
p275
S'diquarkAnalyzerBR'
p276
sg272
g0
(cFWCore.ParameterSet.Types
InputTag
p277
g2
Ntp278
Rp279
(dp280
g11
I00
sg19
I01
sg20
I00
sS'_InputTag__moduleLabel'
p281
S'slimmedJetsAK8'
p282
sS'_InputTag__processName'
p283
S''
p284
sS'_InputTag__productInstance'
p285
g284
sbsg273
g0
(g277
g2
Ntp286
Rp287
(dp288
g11
I00
sg19
I01
sg20
I00
sg281
S'TriggerResults'
p289
sg283
S'HLT'
p290
sg285
g284
sbsg46
g276
sbasbsg275
g255
sg20
I00
sS'_tasks'
p291
g0
(cFWCore.ParameterSet.OrderedSet
OrderedSet
p292
g2
Ntp293
Rp294
(dp295
S'map'
p296
(dp297
sS'end'
p298
(lp299
Nag299
ag299
asbsbsS'_Process__services'
p300
(dp301
g6
g9
sS'TFileService'
p302
g0
(g7
g2
Ntp303
Rp304
(dp305
g38
(lp306
S'fileName'
p307
asg11
I00
sg176
I01
sg20
I00
sg40
I14
sg69
g70
sg307
g0
(g164
g2
Ntp308
Rp309
(dp310
g11
I00
sg19
I01
sg37
S'diquarkBR_500GeV.root'
p311
sg20
I00
sbsg46
g302
sbssS'_Process__source'
p312
g0
(cFWCore.ParameterSet.Modules
Source
p313
g2
Ntp314
Rp315
(dp316
g38
(lp317
S'fileNames'
p318
asg11
I00
sg20
I00
sg40
I196
sg69
g70
sg318
g0
(g13
g14
(lp319
S'root://cmsxrootd.fnal.gov//store/data/Run2018A/JetHT/MINIAOD/17Sep2018-v1/00000/00A64001-F644-8740-AC48-14CD4E623E40.root'
p320
atp321
Rp322
(dp323
g11
I00
sg19
I00
sg20
I00
sg21
I1
sbsg46
S'PoolSource'
p324
sbsS'StripCPEfromTrackAngleESProducer'
p325
g0
(cFWCore.ParameterSet.Modules
ESProducer
p326
g2
Ntp327
Rp328
(dp329
g38
(lp330
S'ComponentType'
p331
aS'ComponentName'
p332
aS'parameters'
p333
asg11
I00
sg20
I01
sg333
g0
(g28
g2
Ntp334
Rp335
(dp336
g11
I00
sg19
I01
sS'maxChgOneMIP'
p337
g0
(cFWCore.ParameterSet.Types
double
p338
g2
Ntp339
Rp340
(dp341
g11
I00
sg19
I01
sg37
F6000.0
sg20
I00
sbsS'mLC_P2'
p342
g0
(g338
g2
Ntp343
Rp344
(dp345
g11
I00
sg19
I01
sg37
F0.3
sg20
I00
sbsS'mLC_P1'
p346
g0
(g338
g2
Ntp347
Rp348
(dp349
g11
I00
sg19
I01
sg37
F0.618
sg20
I00
sbsS'mLC_P0'
p350
g0
(g338
g2
Ntp351
Rp352
(dp353
g11
I00
sg19
I01
sg37
F-0.326
sg20
I00
sbsS'useLegacyError'
p354
g0
(g33
g2
Ntp355
Rp356
(dp357
g11
I00
sg19
I01
sg37
I00
sg20
I00
sbsS'mTIB_P1'
p358
g0
(g338
g2
Ntp359
Rp360
(dp361
g11
I00
sg19
I01
sg37
F0.202
sg20
I00
sbsS'mTEC_P1'
p362
g0
(g338
g2
Ntp363
Rp364
(dp365
g11
I00
sg19
I01
sg37
F0.471
sg20
I00
sbsS'mTEC_P0'
p366
g0
(g338
g2
Ntp367
Rp368
(dp369
g11
I00
sg19
I01
sg37
F-1.885
sg20
I00
sbsS'mTOB_P0'
p370
g0
(g338
g2
Ntp371
Rp372
(dp373
g11
I00
sg19
I01
sg37
F-1.026
sg20
I00
sbsS'mTOB_P1'
p374
g0
(g338
g2
Ntp375
Rp376
(dp377
g11
I00
sg19
I01
sg37
F0.253
sg20
I00
sbsS'mTIB_P0'
p378
g0
(g338
g2
Ntp379
Rp380
(dp381
g11
I00
sg19
I01
sg37
F-0.742
sg20
I00
sbsg38
(lp382
g337
ag342
ag346
ag350
ag354
ag362
ag366
ag370
ag374
ag378
ag358
aS'mTID_P0'
p383
aS'mTID_P1'
p384
asg383
g0
(g338
g2
Ntp385
Rp386
(dp387
g11
I00
sg19
I01
sg37
F-1.427
sg20
I00
sbsg384
g0
(g338
g2
Ntp388
Rp389
(dp390
g11
I00
sg19
I01
sg37
F0.433
sg20
I00
sbsg20
I00
sbsg40
I4
sg332
g0
(g164
g2
Ntp391
Rp392
(dp393
g11
I00
sg19
I01
sg37
S'StripCPEfromTrackAngle'
p394
sg20
I00
sbsg331
g0
(g164
g2
Ntp395
Rp396
(dp397
g11
I00
sg19
I01
sg37
g394
sg20
I00
sbsg69
S'/cvmfs/cms.cern.ch/slc7_amd64_gcc820/cms/cmssw/CMSSW_10_6_0/python/RecoLocalTracker/SiStripRecHitConverter/StripCPEfromTrackAngle_cfi.py'
p398
sg275
g325
sg46
S'StripCPEESProducer'
p399
sbsS'_Process__aliases'
p400
(dp401
sS'siStripBackPlaneCorrectionDepESProducer'
p402
g0
(g326
g2
Ntp403
Rp404
(dp405
g38
(lp406
S'LatencyRecord'
p407
aS'BackPlaneCorrectionDeconvMode'
p408
aS'BackPlaneCorrectionPeakMode'
p409
asg11
I00
sg20
I00
sg40
I56
sg69
g70
sg407
g0
(g28
g2
Ntp410
Rp411
(dp412
g11
I00
sg19
I01
sg20
I00
sS'label'
p413
g0
(g164
g2
Ntp414
Rp415
(dp416
g11
I00
sg19
I00
sg37
g284
sg20
I00
sbsS'record'
p417
g0
(g164
g2
Ntp418
Rp419
(dp420
g11
I00
sg19
I01
sg37
S'SiStripLatencyRcd'
p421
sg20
I00
sbsg38
(lp422
g417
ag413
asbsg409
g0
(g28
g2
Ntp423
Rp424
(dp425
g11
I00
sg19
I01
sg20
I00
sg413
g0
(g164
g2
Ntp426
Rp427
(dp428
g11
I00
sg19
I00
sg37
S'peak'
p429
sg20
I00
sbsg417
g0
(g164
g2
Ntp430
Rp431
(dp432
g11
I00
sg19
I01
sg37
S'SiStripBackPlaneCorrectionRcd'
p433
sg20
I00
sbsg38
(lp434
g417
ag413
asbsg275
g402
sg408
g0
(g28
g2
Ntp435
Rp436
(dp437
g11
I00
sg19
I01
sg20
I00
sg413
g0
(g164
g2
Ntp438
Rp439
(dp440
g11
I00
sg19
I00
sg37
S'deconvolution'
p441
sg20
I00
sbsg417
g0
(g164
g2
Ntp442
Rp443
(dp444
g11
I00
sg19
I01
sg37
g433
sg20
I00
sbsg38
(lp445
g417
ag413
asbsg46
S'SiStripBackPlaneCorrectionDepESProducer'
p446
sbsg276
g269
sS'HFRecalParameterBlock'
p447
g0
(g28
g2
Ntp448
Rp449
(dp450
g11
I00
sg19
I01
sg20
I00
sS'HFdepthTwoParameterA'
p451
g0
(cFWCore.ParameterSet.Types
vdouble
p452
g14
(lp453
F0.002861
aF0.004168
aF0.0064
aF0.008388
aF0.011601
aF0.014425
aF0.018633
aF0.023232
aF0.028274
aF0.035447
aF0.051579
aF0.086593
atp454
Rp455
(dp456
g11
I00
sg19
I01
sg20
I00
sbsS'HFdepthOneParameterA'
p457
g0
(g452
g14
(lp458
F0.004123
aF0.00602
aF0.008201
aF0.010489
aF0.013379
aF0.016997
aF0.021464
aF0.027371
aF0.034195
aF0.044807
aF0.058939
aF0.125497
atp459
Rp460
(dp461
g11
I00
sg19
I01
sg20
I00
sbsS'HFdepthOneParameterB'
p462
g0
(g452
g14
(lp463
F-4e-06
aF-2e-06
aF0.0
aF4e-06
aF1.5e-05
aF2.6e-05
aF6.3e-05
aF8.4e-05
aF0.00016
aF0.000107
aF0.000425
aF0.000209
atp464
Rp465
(dp466
g11
I00
sg19
I01
sg20
I00
sbsS'HFdepthTwoParameterB'
p467
g0
(g452
g14
(lp468
F-2e-06
aF-0.0
aF-7e-06
aF-6e-06
aF-2e-06
aF1e-06
aF1.9e-05
aF3.1e-05
aF6.7e-05
aF1.2e-05
aF0.000157
aF-3e-06
atp469
Rp470
(dp471
g11
I00
sg19
I01
sg20
I00
sbsg38
(lp472
g457
ag462
ag467
ag451
asg275
g447
sbsS'stripCPEESProducer'
p473
g0
(g326
g2
Ntp474
Rp475
(dp476
g38
(lp477
g331
ag332
ag333
asg11
I00
sg20
I00
sg333
g0
(g28
g2
Ntp478
Rp479
(dp480
g11
I00
sg19
I01
sg20
I00
sg38
(lp481
sbsg40
I56
sg332
g0
(g164
g2
Ntp482
Rp483
(dp484
g11
I00
sg19
I01
sg37
S'stripCPE'
p485
sg20
I00
sbsg331
g0
(g164
g2
Ntp486
Rp487
(dp488
g11
I00
sg19
I01
sg37
S'SimpleStripCPE'
p489
sg20
I00
sbsg69
g70
sg275
g473
sg46
g399
sbsS'EcalLaserCorrectionService'
p490
g0
(g326
g2
Ntp491
Rp492
(dp493
g38
(lp494
sg11
I00
sg20
I00
sg40
I56
sg69
g70
sg275
g490
sg46
g490
sbsS'_Process__psets'
p495
(dp496
S'maxEvents'
p497
g0
(g28
g2
Ntp498
Rp499
(dp500
g11
I00
sg19
I00
sg20
I00
sg38
(lp501
S'input'
p502
asg275
g497
sg502
g0
(g103
g2
Ntp503
Rp504
(dp505
g11
I00
sg19
I00
sg37
I5000000
sg20
I00
sbsbsg447
g449
sS'options'
p506
g0
(g28
g2
Ntp507
Rp508
(dp509
g11
I00
sg19
I00
sg20
I00
sS'wantSummary'
p510
g0
(g33
g2
Ntp511
Rp512
(dp513
g11
I00
sg19
I00
sg37
I01
sg20
I00
sbsg38
(lp514
g510
asg275
g506
sbssS'hcal_db_producer'
p515
g0
(g326
g2
Ntp516
Rp517
(dp518
g38
(lp519
S'file'
p520
aS'dump'
p521
asg11
I00
sg20
I00
sg521
g0
(g13
g14
(lp522
g284
atp523
Rp524
(dp525
g11
I00
sg19
I00
sg20
I00
sg21
I1
sbsg40
I56
sg69
g70
sg520
g0
(g164
g2
Ntp526
Rp527
(dp528
g11
I00
sg19
I00
sg37
g284
sg20
I00
sbsg275
g515
sg46
S'HcalDbProducer'
p529
sbsg302
g304
sS'_Process__essources'
p530
(dp531
S'HepPDTESSource'
p532
g0
(cFWCore.ParameterSet.Modules
ESSource
p533
g2
Ntp534
Rp535
(dp536
g38
(lp537
S'pdtFileName'
p538
asg11
I00
sg538
g0
(cFWCore.ParameterSet.Types
FileInPath
p539
g2
Ntp540
Rp541
(dp542
g11
I00
sg19
I01
sg37
S'SimGeneral/HepPDTESSource/data/pythiaparticle.tbl'
p543
sg20
I00
sbsg20
I00
sg40
I4
sg69
S'/cvmfs/cms.cern.ch/slc7_amd64_gcc820/cms/cmssw/CMSSW_10_6_0/python/SimGeneral/HepPDTESSource/pythiapdt_cfi.py'
p544
sg275
g532
sg46
g532
sbsS'es_hardcode'
p545
g0
(g533
g2
Ntp546
Rp547
(dp548
g11
I00
sg40
I172
sS'useHEUpgrade'
p549
g0
(g33
g2
Ntp550
Rp551
(dp552
g11
I00
sg19
I01
sg37
I00
sg20
I00
sbsS'HBRecalibration'
p553
g0
(g33
g2
Ntp554
Rp555
(dp556
g11
I00
sg19
I01
sg37
I00
sg20
I00
sbsS'useLayer0Weight'
p557
g0
(g33
g2
Ntp558
Rp559
(dp560
g11
I00
sg19
I01
sg37
I00
sg20
I00
sbsS'HEmeanenergies'
p561
g0
(g539
g2
Ntp562
Rp563
(dp564
g11
I00
sg19
I01
sg37
S'CalibCalorimetry/HcalPlugins/data/meanenergiesHE.txt'
p565
sg20
I00
sbsg447
g449
sS'heUpgrade'
p566
g0
(g28
g2
Ntp567
Rp568
(dp569
g11
I00
sg19
I01
sS'qieType'
p570
g0
(g103
g2
Ntp571
Rp572
(dp573
g11
I00
sg19
I01
sg37
I2
sg20
I00
sbsg20
I00
sS'pedestalWidth'
p574
g0
(g338
g2
Ntp575
Rp576
(dp577
g11
I00
sg19
I01
sg37
F1.5
sg20
I00
sbsS'recoShape'
p578
g0
(g103
g2
Ntp579
Rp580
(dp581
g11
I00
sg19
I01
sg37
I206
sg20
I00
sbsS'zsThreshold'
p582
g0
(g103
g2
Ntp583
Rp584
(dp585
g11
I00
sg19
I01
sg37
I16
sg20
I00
sbsS'darkCurrent'
p586
g0
(g452
g14
(lp587
F0.01
aF0.015
atp588
Rp589
(dp590
g11
I00
sg19
I01
sg20
I00
sbsS'qieOffset'
p591
g0
(g452
g14
(lp592
F0.0
aF0.0
aF0.0
aF0.0
atp593
Rp594
(dp595
g11
I00
sg19
I01
sg20
I00
sbsS'qieSlope'
p596
g0
(g452
g14
(lp597
F0.05376
aF0.05376
aF0.05376
aF0.05376
atp598
Rp599
(dp600
g11
I00
sg19
I01
sg20
I00
sbsS'radiationDamage'
p601
g0
(g28
g2
Ntp602
Rp603
(dp604
g11
I00
sg19
I01
sS'temperatureNew'
p605
g0
(g338
g2
Ntp606
Rp607
(dp608
g11
I00
sg19
I01
sg37
I5
sg20
I00
sbsg20
I00
sS'depVsNeutrons'
p609
g0
(g452
g14
(lp610
F5.543e-10
aF8.012e-10
atp611
Rp612
(dp613
g11
I00
sg19
I01
sg20
I00
sbsS'temperatureBase'
p614
g0
(g338
g2
Ntp615
Rp616
(dp617
g11
I00
sg19
I01
sg37
I20
sg20
I00
sbsS'depVsTemp'
p618
g0
(g338
g2
Ntp619
Rp620
(dp621
g11
I00
sg19
I01
sg37
F0.0631
sg20
I00
sbsS'intlumiOffset'
p622
g0
(g338
g2
Ntp623
Rp624
(dp625
g11
I00
sg19
I01
sg37
I75
sg20
I00
sbsg38
(lp626
g605
ag609
ag614
ag618
ag622
aS'intlumiToNeutrons'
p627
asg627
g0
(g338
g2
Ntp628
Rp629
(dp630
g11
I00
sg19
I01
sg37
F29200000.0
sg20
I00
sbsbsS'doRadiationDamage'
p631
g0
(g33
g2
Ntp632
Rp633
(dp634
g11
I00
sg19
I01
sg37
I01
sg20
I00
sbsg38
(lp635
g570
ag574
ag578
ag582
aS'photoelectronsToAnalog'
p636
ag591
ag596
ag601
ag631
ag586
aS'pedestal'
p637
aS'mcShape'
p638
aS'gainWidth'
p639
aS'gain'
p640
asg636
g0
(g338
g2
Ntp641
Rp642
(dp643
g11
I00
sg19
I01
sg37
F40.0
sg20
I00
sbsg637
g0
(g338
g2
Ntp644
Rp645
(dp646
g11
I00
sg19
I01
sg37
F17.3
sg20
I00
sbsg638
g0
(g103
g2
Ntp647
Rp648
(dp649
g11
I00
sg19
I01
sg37
I206
sg20
I00
sbsg639
g0
(g452
g14
(lp650
I0
atp651
Rp652
(dp653
g11
I00
sg19
I01
sg20
I00
sbsg640
g0
(g452
g14
(lp654
F0.0006252
atp655
Rp656
(dp657
g11
I00
sg19
I01
sg20
I00
sbsbsg38
(lp658
S'toGet'
p659
ag553
ag557
ag561
ag447
ag566
aS'useIeta18depth1'
p660
aS'killHE'
p661
aS'useHBUpgrade'
p662
aS'hbUpgrade'
p663
aS'testHEPlan1'
p664
aS'iLumi'
p665
aS'testHFQIE10'
p666
aS'HBmeanenergies'
p667
ag549
aS'GainWidthsForTrigPrims'
p668
aS'HBreCalibCutoff'
p669
aS'HFRecalibration'
p670
aS'ho'
p671
aS'hb'
p672
aS'hf'
p673
aS'he'
p674
aS'HERecalibration'
p675
aS'useHFUpgrade'
p676
aS'HEreCalibCutoff'
p677
aS'SiPMCharacteristics'
p678
aS'useHOUpgrade'
p679
aS'hfUpgrade'
p680
asg69
S'/cvmfs/cms.cern.ch/slc7_amd64_gcc820/cms/cmssw/CMSSW_10_6_0/python/CalibCalorimetry/HcalPlugins/Hcal_Conditions_forGlobalTag_cff.py'
p681
sg660
g0
(g33
g2
Ntp682
Rp683
(dp684
g11
I00
sg19
I01
sg37
I01
sg20
I00
sbsg661
g0
(g33
g2
Ntp685
Rp686
(dp687
g11
I00
sg19
I01
sg37
I00
sg20
I00
sbsg662
g0
(g33
g2
Ntp688
Rp689
(dp690
g11
I00
sg19
I01
sg37
I00
sg20
I00
sbsg663
g0
(g28
g2
Ntp691
Rp692
(dp693
g11
I00
sg19
I01
sg570
g0
(g103
g2
Ntp694
Rp695
(dp696
g11
I00
sg19
I01
sg37
I2
sg20
I00
sbsg20
I00
sg574
g0
(g338
g2
Ntp697
Rp698
(dp699
g11
I00
sg19
I01
sg37
F1.5
sg20
I00
sbsg578
g0
(g103
g2
Ntp700
Rp701
(dp702
g11
I00
sg19
I01
sg37
I206
sg20
I00
sbsg582
g0
(g103
g2
Ntp703
Rp704
(dp705
g11
I00
sg19
I01
sg37
I16
sg20
I00
sbsg586
g0
(g452
g14
(lp706
F0.01
aF0.015
atp707
Rp708
(dp709
g11
I00
sg19
I01
sg20
I00
sbsg591
g0
(g452
g14
(lp710
F0.0
aF0.0
aF0.0
aF0.0
atp711
Rp712
(dp713
g11
I00
sg19
I01
sg20
I00
sbsg596
g0
(g452
g14
(lp714
F0.05376
aF0.05376
aF0.05376
aF0.05376
atp715
Rp716
(dp717
g11
I00
sg19
I01
sg20
I00
sbsg601
g0
(g28
g2
Ntp718
Rp719
(dp720
g11
I00
sg19
I01
sg605
g0
(g338
g2
Ntp721
Rp722
(dp723
g11
I00
sg19
I01
sg37
I-5
sg20
I00
sbsg20
I00
sg609
g0
(g452
g14
(lp724
F5.543e-10
aF8.012e-10
atp725
Rp726
(dp727
g11
I00
sg19
I01
sg20
I00
sbsg614
g0
(g338
g2
Ntp728
Rp729
(dp730
g11
I00
sg19
I01
sg37
I20
sg20
I00
sbsg618
g0
(g338
g2
Ntp731
Rp732
(dp733
g11
I00
sg19
I01
sg37
F0.0631
sg20
I00
sbsg622
g0
(g338
g2
Ntp734
Rp735
(dp736
g11
I00
sg19
I01
sg37
I150
sg20
I00
sbsg38
(lp737
g605
ag609
ag614
ag618
ag622
ag627
asg627
g0
(g338
g2
Ntp738
Rp739
(dp740
g11
I00
sg19
I01
sg37
F367000000.0
sg20
I00
sbsbsg631
g0
(g33
g2
Ntp741
Rp742
(dp743
g11
I00
sg19
I01
sg37
I01
sg20
I00
sbsg38
(lp744
g570
ag574
ag578
ag582
ag636
ag591
ag596
ag601
ag631
ag586
ag637
ag638
ag639
ag640
asg636
g0
(g338
g2
Ntp745
Rp746
(dp747
g11
I00
sg19
I01
sg37
F40.0
sg20
I00
sbsg637
g0
(g338
g2
Ntp748
Rp749
(dp750
g11
I00
sg19
I01
sg37
F17.3
sg20
I00
sbsg638
g0
(g103
g2
Ntp751
Rp752
(dp753
g11
I00
sg19
I01
sg37
I206
sg20
I00
sbsg639
g0
(g452
g14
(lp754
I0
atp755
Rp756
(dp757
g11
I00
sg19
I01
sg20
I00
sbsg640
g0
(g452
g14
(lp758
F0.0006252
atp759
Rp760
(dp761
g11
I00
sg19
I01
sg20
I00
sbsbsg46
S'HcalHardcodeCalibrations'
p762
sg664
g0
(g33
g2
Ntp763
Rp764
(dp765
g11
I00
sg19
I01
sg37
I00
sg20
I00
sbsg665
g0
(g338
g2
Ntp766
Rp767
(dp768
g11
I00
sg19
I01
sg37
F-1.0
sg20
I00
sbsg666
g0
(g33
g2
Ntp769
Rp770
(dp771
g11
I00
sg19
I01
sg37
I00
sg20
I00
sbsg667
g0
(g539
g2
Ntp772
Rp773
(dp774
g11
I00
sg19
I01
sg37
S'CalibCalorimetry/HcalPlugins/data/meanenergiesHB.txt'
p775
sg20
I00
sbsg659
g0
(g13
g14
(lp776
S'GainWidths'
p777
atp778
Rp779
(dp780
g11
I00
sg19
I00
sg20
I00
sg21
I1
sbsg668
g0
(g33
g2
Ntp781
Rp782
(dp783
g11
I00
sg19
I01
sg37
I00
sg20
I00
sbsg669
g0
(g338
g2
Ntp784
Rp785
(dp786
g11
I00
sg19
I01
sg37
F20.0
sg20
I00
sbsg670
g0
(g33
g2
Ntp787
Rp788
(dp789
g11
I00
sg19
I01
sg37
I00
sg20
I00
sbsg671
g0
(g28
g2
Ntp790
Rp791
(dp792
g11
I00
sg19
I01
sg570
g0
(g103
g2
Ntp793
Rp794
(dp795
g11
I00
sg19
I01
sg37
I0
sg20
I00
sbsg20
I00
sg574
g0
(g338
g2
Ntp796
Rp797
(dp798
g11
I00
sg19
I01
sg37
F0.6285
sg20
I00
sbsg578
g0
(g103
g2
Ntp799
Rp800
(dp801
g11
I00
sg19
I01
sg37
I201
sg20
I00
sbsg582
g0
(g103
g2
Ntp802
Rp803
(dp804
g11
I00
sg19
I01
sg37
I24
sg20
I00
sbsg586
g0
(g452
g14
(lp805
F0.0
atp806
Rp807
(dp808
g11
I00
sg19
I01
sg20
I00
sbsg591
g0
(g452
g14
(lp809
F-0.44
aF1.4
aF7.1
aF38.5
atp810
Rp811
(dp812
g11
I00
sg19
I01
sg20
I00
sbsg596
g0
(g452
g14
(lp813
F0.907
aF0.915
aF0.92
aF0.921
atp814
Rp815
(dp816
g11
I00
sg19
I01
sg20
I00
sbsg640
g0
(g452
g14
(lp817
F0.006
aF0.0087
atp818
Rp819
(dp820
g11
I00
sg19
I01
sg20
I00
sbsg631
g0
(g33
g2
Ntp821
Rp822
(dp823
g11
I00
sg19
I01
sg37
I00
sg20
I00
sbsg38
(lp824
g570
ag574
ag578
ag582
ag636
ag591
ag596
ag640
ag631
ag586
ag637
ag638
ag639
asg636
g0
(g338
g2
Ntp825
Rp826
(dp827
g11
I00
sg19
I01
sg37
F4.0
sg20
I00
sbsg637
g0
(g338
g2
Ntp828
Rp829
(dp830
g11
I00
sg19
I01
sg37
F12.06
sg20
I00
sbsg638
g0
(g103
g2
Ntp831
Rp832
(dp833
g11
I00
sg19
I01
sg37
I201
sg20
I00
sbsg639
g0
(g452
g14
(lp834
F0.0
aF0.0
atp835
Rp836
(dp837
g11
I00
sg19
I01
sg20
I00
sbsbsg672
g0
(g28
g2
Ntp838
Rp839
(dp840
g11
I00
sg19
I01
sg570
g0
(g103
g2
Ntp841
Rp842
(dp843
g11
I00
sg19
I01
sg37
I0
sg20
I00
sbsg20
I00
sg574
g0
(g338
g2
Ntp844
Rp845
(dp846
g11
I00
sg19
I01
sg37
F0.809
sg20
I00
sbsg578
g0
(g103
g2
Ntp847
Rp848
(dp849
g11
I00
sg19
I01
sg37
I105
sg20
I00
sbsg582
g0
(g103
g2
Ntp850
Rp851
(dp852
g11
I00
sg19
I01
sg37
I8
sg20
I00
sbsg586
g0
(g452
g14
(lp853
F0.0
atp854
Rp855
(dp856
g11
I00
sg19
I01
sg20
I00
sbsg591
g0
(g452
g14
(lp857
F-0.49
aF1.8
aF7.2
aF37.9
atp858
Rp859
(dp860
g11
I00
sg19
I01
sg20
I00
sbsg596
g0
(g452
g14
(lp861
F0.912
aF0.917
aF0.922
aF0.923
atp862
Rp863
(dp864
g11
I00
sg19
I01
sg20
I00
sbsg640
g0
(g452
g14
(lp865
F0.19
atp866
Rp867
(dp868
g11
I00
sg19
I01
sg20
I00
sbsg631
g0
(g33
g2
Ntp869
Rp870
(dp871
g11
I00
sg19
I01
sg37
I00
sg20
I00
sbsg38
(lp872
g570
ag574
ag578
ag582
ag636
ag591
ag596
ag640
ag631
ag586
ag637
ag638
ag639
asg636
g0
(g338
g2
Ntp873
Rp874
(dp875
g11
I00
sg19
I01
sg37
F0.3305
sg20
I00
sbsg637
g0
(g338
g2
Ntp876
Rp877
(dp878
g11
I00
sg19
I01
sg37
F3.285
sg20
I00
sbsg638
g0
(g103
g2
Ntp879
Rp880
(dp881
g11
I00
sg19
I01
sg37
I125
sg20
I00
sbsg639
g0
(g452
g14
(lp882
F0.0
atp883
Rp884
(dp885
g11
I00
sg19
I01
sg20
I00
sbsbsg673
g0
(g28
g2
Ntp886
Rp887
(dp888
g11
I00
sg19
I01
sg570
g0
(g103
g2
Ntp889
Rp890
(dp891
g11
I00
sg19
I01
sg37
I0
sg20
I00
sbsg20
I00
sg574
g0
(g338
g2
Ntp892
Rp893
(dp894
g11
I00
sg19
I01
sg37
F2.516
sg20
I00
sbsg578
g0
(g103
g2
Ntp895
Rp896
(dp897
g11
I00
sg19
I01
sg37
I301
sg20
I00
sbsg582
g0
(g103
g2
Ntp898
Rp899
(dp900
g11
I00
sg19
I01
sg37
I-9999
sg20
I00
sbsg586
g0
(g452
g14
(lp901
F0.0
atp902
Rp903
(dp904
g11
I00
sg19
I01
sg20
I00
sbsg591
g0
(g452
g14
(lp905
F-0.87
aF1.4
aF7.8
aF-29.6
atp906
Rp907
(dp908
g11
I00
sg19
I01
sg20
I00
sbsg596
g0
(g452
g14
(lp909
F0.359
aF0.358
aF0.36
aF0.367
atp910
Rp911
(dp912
g11
I00
sg19
I01
sg20
I00
sbsg640
g0
(g452
g14
(lp913
F0.14
aF0.135
atp914
Rp915
(dp916
g11
I00
sg19
I01
sg20
I00
sbsg631
g0
(g33
g2
Ntp917
Rp918
(dp919
g11
I00
sg19
I01
sg37
I00
sg20
I00
sbsg38
(lp920
g570
ag574
ag578
ag582
ag636
ag591
ag596
ag640
ag631
ag586
ag637
ag638
ag639
asg636
g0
(g338
g2
Ntp921
Rp922
(dp923
g11
I00
sg19
I01
sg37
F0.0
sg20
I00
sbsg637
g0
(g338
g2
Ntp924
Rp925
(dp926
g11
I00
sg19
I01
sg37
F9.354
sg20
I00
sbsg638
g0
(g103
g2
Ntp927
Rp928
(dp929
g11
I00
sg19
I01
sg37
I301
sg20
I00
sbsg639
g0
(g452
g14
(lp930
F0.0
aF0.0
atp931
Rp932
(dp933
g11
I00
sg19
I01
sg20
I00
sbsbsg674
g0
(g28
g2
Ntp934
Rp935
(dp936
g11
I00
sg19
I01
sg570
g0
(g103
g2
Ntp937
Rp938
(dp939
g11
I00
sg19
I01
sg37
I0
sg20
I00
sbsg20
I00
sg574
g0
(g338
g2
Ntp940
Rp941
(dp942
g11
I00
sg19
I01
sg37
F0.9698
sg20
I00
sbsg578
g0
(g103
g2
Ntp943
Rp944
(dp945
g11
I00
sg19
I01
sg37
I105
sg20
I00
sbsg582
g0
(g103
g2
Ntp946
Rp947
(dp948
g11
I00
sg19
I01
sg37
I9
sg20
I00
sbsg586
g0
(g452
g14
(lp949
F0.0
atp950
Rp951
(dp952
g11
I00
sg19
I01
sg20
I00
sbsg591
g0
(g452
g14
(lp953
F-0.38
aF2.0
aF7.6
aF39.6
atp954
Rp955
(dp956
g11
I00
sg19
I01
sg20
I00
sbsg596
g0
(g452
g14
(lp957
F0.912
aF0.916
aF0.92
aF0.922
atp958
Rp959
(dp960
g11
I00
sg19
I01
sg20
I00
sbsg640
g0
(g452
g14
(lp961
F0.23
atp962
Rp963
(dp964
g11
I00
sg19
I01
sg20
I00
sbsg631
g0
(g33
g2
Ntp965
Rp966
(dp967
g11
I00
sg19
I01
sg37
I00
sg20
I00
sbsg38
(lp968
g570
ag574
ag578
ag582
ag636
ag591
ag596
ag640
ag631
ag586
ag637
ag638
ag639
asg636
g0
(g338
g2
Ntp969
Rp970
(dp971
g11
I00
sg19
I01
sg37
F0.3305
sg20
I00
sbsg637
g0
(g338
g2
Ntp972
Rp973
(dp974
g11
I00
sg19
I01
sg37
F3.163
sg20
I00
sbsg638
g0
(g103
g2
Ntp975
Rp976
(dp977
g11
I00
sg19
I01
sg37
I125
sg20
I00
sbsg639
g0
(g452
g14
(lp978
I0
atp979
Rp980
(dp981
g11
I00
sg19
I01
sg20
I00
sbsbsg20
I00
sg675
g0
(g33
g2
Ntp982
Rp983
(dp984
g11
I00
sg19
I01
sg37
I00
sg20
I00
sbsg676
g0
(g33
g2
Ntp985
Rp986
(dp987
g11
I00
sg19
I01
sg37
I00
sg20
I00
sbsg677
g0
(g338
g2
Ntp988
Rp989
(dp990
g11
I00
sg19
I01
sg37
F20.0
sg20
I00
sbsg678
g0
(cFWCore.ParameterSet.Types
VPSet
p991
g14
(lp992
g0
(g28
g2
Ntp993
Rp994
(dp995
g11
I00
sg19
I01
sg20
I00
sS'crosstalk'
p996
g0
(g338
g2
Ntp997
Rp998
(dp999
g11
I00
sg19
I01
sg37
F0.0
sg20
I00
sbsS'nonlin1'
p1000
g0
(g338
g2
Ntp1001
Rp1002
(dp1003
g11
I00
sg19
I01
sg37
F1.0
sg20
I00
sbsS'nonlin3'
p1004
g0
(g338
g2
Ntp1005
Rp1006
(dp1007
g11
I00
sg19
I01
sg37
F0.0
sg20
I00
sbsS'nonlin2'
p1008
g0
(g338
g2
Ntp1009
Rp1010
(dp1011
g11
I00
sg19
I01
sg37
F0.0
sg20
I00
sbsg38
(lp1012
g1000
ag1004
ag1008
aS'pixels'
p1013
ag996
asg1013
g0
(g103
g2
Ntp1014
Rp1015
(dp1016
g11
I00
sg19
I01
sg37
I36000
sg20
I00
sbsbag0
(g28
g2
Ntp1017
Rp1018
(dp1019
g11
I00
sg19
I01
sg20
I00
sg996
g0
(g338
g2
Ntp1020
Rp1021
(dp1022
g11
I00
sg19
I01
sg37
F0.0
sg20
I00
sbsg1000
g0
(g338
g2
Ntp1023
Rp1024
(dp1025
g11
I00
sg19
I01
sg37
F1.0
sg20
I00
sbsg1004
g0
(g338
g2
Ntp1026
Rp1027
(dp1028
g11
I00
sg19
I01
sg37
F0.0
sg20
I00
sbsg1008
g0
(g338
g2
Ntp1029
Rp1030
(dp1031
g11
I00
sg19
I01
sg37
F0.0
sg20
I00
sbsg38
(lp1032
g1000
ag1004
ag1008
ag1013
ag996
asg1013
g0
(g103
g2
Ntp1033
Rp1034
(dp1035
g11
I00
sg19
I01
sg37
I2500
sg20
I00
sbsbag0
(g28
g2
Ntp1036
Rp1037
(dp1038
g11
I00
sg19
I01
sg20
I00
sg996
g0
(g338
g2
Ntp1039
Rp1040
(dp1041
g11
I00
sg19
I01
sg37
F0.17
sg20
I00
sbsg1000
g0
(g338
g2
Ntp1042
Rp1043
(dp1044
g11
I00
sg19
I01
sg37
F1.00985
sg20
I00
sbsg1004
g0
(g338
g2
Ntp1045
Rp1046
(dp1047
g11
I00
sg19
I01
sg37
F2.86282e-10
sg20
I00
sbsg1008
g0
(g338
g2
Ntp1048
Rp1049
(dp1050
g11
I00
sg19
I01
sg37
F7.84089e-06
sg20
I00
sbsg38
(lp1051
g1000
ag1004
ag1008
ag1013
ag996
asg1013
g0
(g103
g2
Ntp1052
Rp1053
(dp1054
g11
I00
sg19
I01
sg37
I27370
sg20
I00
sbsbag0
(g28
g2
Ntp1055
Rp1056
(dp1057
g11
I00
sg19
I01
sg20
I00
sg996
g0
(g338
g2
Ntp1058
Rp1059
(dp1060
g11
I00
sg19
I01
sg37
F0.196
sg20
I00
sbsg1000
g0
(g338
g2
Ntp1061
Rp1062
(dp1063
g11
I00
sg19
I01
sg37
F1.00546
sg20
I00
sbsg1004
g0
(g338
g2
Ntp1064
Rp1065
(dp1066
g11
I00
sg19
I01
sg37
F1.27011e-10
sg20
I00
sbsg1008
g0
(g338
g2
Ntp1067
Rp1068
(dp1069
g11
I00
sg19
I01
sg37
F6.40239e-06
sg20
I00
sbsg38
(lp1070
g1000
ag1004
ag1008
ag1013
ag996
asg1013
g0
(g103
g2
Ntp1071
Rp1072
(dp1073
g11
I00
sg19
I01
sg37
I38018
sg20
I00
sbsbag0
(g28
g2
Ntp1074
Rp1075
(dp1076
g11
I00
sg19
I01
sg20
I00
sg996
g0
(g338
g2
Ntp1077
Rp1078
(dp1079
g11
I00
sg19
I01
sg37
F0.17
sg20
I00
sbsg1000
g0
(g338
g2
Ntp1080
Rp1081
(dp1082
g11
I00
sg19
I01
sg37
F1.00985
sg20
I00
sbsg1004
g0
(g338
g2
Ntp1083
Rp1084
(dp1085
g11
I00
sg19
I01
sg37
F2.86282e-10
sg20
I00
sbsg1008
g0
(g338
g2
Ntp1086
Rp1087
(dp1088
g11
I00
sg19
I01
sg37
F7.84089e-06
sg20
I00
sbsg38
(lp1089
g1000
ag1004
ag1008
ag1013
ag996
asg1013
g0
(g103
g2
Ntp1090
Rp1091
(dp1092
g11
I00
sg19
I01
sg37
I27370
sg20
I00
sbsbag0
(g28
g2
Ntp1093
Rp1094
(dp1095
g11
I00
sg19
I01
sg20
I00
sg996
g0
(g338
g2
Ntp1096
Rp1097
(dp1098
g11
I00
sg19
I01
sg37
F0.196
sg20
I00
sbsg1000
g0
(g338
g2
Ntp1099
Rp1100
(dp1101
g11
I00
sg19
I01
sg37
F1.00546
sg20
I00
sbsg1004
g0
(g338
g2
Ntp1102
Rp1103
(dp1104
g11
I00
sg19
I01
sg37
F1.27011e-10
sg20
I00
sbsg1008
g0
(g338
g2
Ntp1105
Rp1106
(dp1107
g11
I00
sg19
I01
sg37
F6.40239e-06
sg20
I00
sbsg38
(lp1108
g1000
ag1004
ag1008
ag1013
ag996
asg1013
g0
(g103
g2
Ntp1109
Rp1110
(dp1111
g11
I00
sg19
I01
sg37
I38018
sg20
I00
sbsbag0
(g28
g2
Ntp1112
Rp1113
(dp1114
g11
I00
sg19
I01
sg20
I00
sg996
g0
(g338
g2
Ntp1115
Rp1116
(dp1117
g11
I00
sg19
I01
sg37
F0.0
sg20
I00
sbsg1000
g0
(g338
g2
Ntp1118
Rp1119
(dp1120
g11
I00
sg19
I01
sg37
F1.0
sg20
I00
sbsg1004
g0
(g338
g2
Ntp1121
Rp1122
(dp1123
g11
I00
sg19
I01
sg37
F0.0
sg20
I00
sbsg1008
g0
(g338
g2
Ntp1124
Rp1125
(dp1126
g11
I00
sg19
I01
sg37
F0.0
sg20
I00
sbsg38
(lp1127
g1000
ag1004
ag1008
ag1013
ag996
asg1013
g0
(g103
g2
Ntp1128
Rp1129
(dp1130
g11
I00
sg19
I01
sg37
I0
sg20
I00
sbsbatp1131
Rp1132
(dp1133
g11
I00
sg19
I01
sg20
I00
sg21
I1
sbsg275
g545
sg679
g0
(g33
g2
Ntp1134
Rp1135
(dp1136
g11
I00
sg19
I01
sg37
I01
sg20
I00
sbsg680
g0
(g28
g2
Ntp1137
Rp1138
(dp1139
g11
I00
sg19
I01
sg570
g0
(g103
g2
Ntp1140
Rp1141
(dp1142
g11
I00
sg19
I01
sg37
I1
sg20
I00
sbsg20
I00
sg574
g0
(g338
g2
Ntp1143
Rp1144
(dp1145
g11
I00
sg19
I01
sg37
F3.33
sg20
I00
sbsg578
g0
(g103
g2
Ntp1146
Rp1147
(dp1148
g11
I00
sg19
I01
sg37
I301
sg20
I00
sbsg582
g0
(g103
g2
Ntp1149
Rp1150
(dp1151
g11
I00
sg19
I01
sg37
I-9999
sg20
I00
sbsg586
g0
(g452
g14
(lp1152
F0.0
atp1153
Rp1154
(dp1155
g11
I00
sg19
I01
sg20
I00
sbsg591
g0
(g452
g14
(lp1156
F0.0697
aF-0.7405
aF12.38
aF-671.9
atp1157
Rp1158
(dp1159
g11
I00
sg19
I01
sg20
I00
sbsg596
g0
(g452
g14
(lp1160
F0.297
aF0.298
aF0.298
aF0.313
atp1161
Rp1162
(dp1163
g11
I00
sg19
I01
sg20
I00
sbsg640
g0
(g452
g14
(lp1164
F0.14
aF0.135
atp1165
Rp1166
(dp1167
g11
I00
sg19
I01
sg20
I00
sbsg631
g0
(g33
g2
Ntp1168
Rp1169
(dp1170
g11
I00
sg19
I01
sg37
I00
sg20
I00
sbsg38
(lp1171
g570
ag574
ag578
ag582
ag636
ag591
ag596
ag640
ag631
ag586
ag637
ag638
ag639
asg636
g0
(g338
g2
Ntp1172
Rp1173
(dp1174
g11
I00
sg19
I01
sg37
F0.0
sg20
I00
sbsg637
g0
(g338
g2
Ntp1175
Rp1176
(dp1177
g11
I00
sg19
I01
sg37
F13.33
sg20
I00
sbsg638
g0
(g103
g2
Ntp1178
Rp1179
(dp1180
g11
I00
sg19
I01
sg37
I301
sg20
I00
sbsg639
g0
(g452
g14
(lp1181
F0.0
aF0.0
atp1182
Rp1183
(dp1184
g11
I00
sg19
I01
sg20
I00
sbsbsbsS'GlobalTag'
p1185
g0
(g533
g2
Ntp1186
Rp1187
(dp1188
g38
(lp1189
S'DBParameters'
p1190
aS'connect'
p1191
aS'globaltag'
p1192
aS'RefreshEachRun'
p1193
aS'pfnPrefix'
p1194
aS'snapshotTime'
p1195
ag659
aS'pfnPostfix'
p1196
aS'RefreshAlways'
p1197
aS'ReconnectEachRun'
p1198
aS'RefreshOpenIOVs'
p1199
aS'DumpStat'
p1200
asg11
I00
sg69
S'/cvmfs/cms.cern.ch/slc7_amd64_gcc820/cms/cmssw/CMSSW_10_6_0/python/CondCore/ESSources/CondDBESSource_cfi.py'
p1201
sg20
I01
sg1192
g0
(g164
g2
Ntp1202
Rp1203
(dp1204
g11
I00
sg19
I01
sg37
S'92X_dataRun2_Prompt_v4'
p1205
sg20
I01
sbsg1193
g0
(g33
g2
Ntp1206
Rp1207
(dp1208
g11
I00
sg19
I00
sg37
I00
sg20
I00
sbsg1194
g0
(g164
g2
Ntp1209
Rp1210
(dp1211
g11
I00
sg19
I00
sg37
g284
sg20
I00
sbsg1195
g0
(g164
g2
Ntp1212
Rp1213
(dp1214
g11
I00
sg19
I01
sg37
g284
sg20
I00
sbsg659
g0
(g991
g14
(lp1215
tp1216
Rp1217
(dp1218
g11
I00
sg19
I01
sg20
I00
sg21
I1
sbsg1196
g0
(g164
g2
Ntp1219
Rp1220
(dp1221
g11
I00
sg19
I00
sg37
g284
sg20
I00
sbsg1190
g0
(g28
g2
Ntp1222
Rp1223
(dp1224
g11
I00
sg19
I01
sS'authenticationPath'
p1225
g0
(g164
g2
Ntp1226
Rp1227
(dp1228
g11
I00
sg19
I00
sg37
g284
sg20
I00
sbsg20
I00
sS'messageLevel'
p1229
g0
(g103
g2
Ntp1230
Rp1231
(dp1232
g11
I00
sg19
I00
sg37
I0
sg20
I00
sbsg38
(lp1233
g1229
aS'security'
p1234
aS'authenticationSystem'
p1235
ag1225
asg1234
g0
(g164
g2
Ntp1236
Rp1237
(dp1238
g11
I00
sg19
I00
sg37
g284
sg20
I00
sbsg1235
g0
(g103
g2
Ntp1239
Rp1240
(dp1241
g11
I00
sg19
I00
sg37
I0
sg20
I00
sbsbsg1197
g0
(g33
g2
Ntp1242
Rp1243
(dp1244
g11
I00
sg19
I00
sg37
I00
sg20
I00
sbsg40
I19
sg1191
g0
(g164
g2
Ntp1245
Rp1246
(dp1247
g11
I00
sg19
I01
sg37
S'frontier://FrontierProd/CMS_CONDITIONS'
p1248
sg20
I00
sbsg1198
g0
(g33
g2
Ntp1249
Rp1250
(dp1251
g11
I00
sg19
I00
sg37
I00
sg20
I00
sbsg275
g1185
sg1199
g0
(g33
g2
Ntp1252
Rp1253
(dp1254
g11
I00
sg19
I00
sg37
I00
sg20
I00
sbsg1200
g0
(g33
g2
Ntp1255
Rp1256
(dp1257
g11
I00
sg19
I00
sg37
I00
sg20
I00
sbsg46
S'PoolDBESSource'
p1258
sbsS'HcalTimeSlewEP'
p1259
g0
(g533
g2
Ntp1260
Rp1261
(dp1262
g38
(lp1263
S'timeSlewParametersM3'
p1264
aS'timeSlewParametersM2'
p1265
aS'appendToDataLabel'
p1266
asg11
I00
sg1264
g0
(g991
g14
(lp1267
g0
(g28
g2
Ntp1268
Rp1269
(dp1270
g11
I00
sg19
I01
sS'tspar2'
p1271
g0
(g338
g2
Ntp1272
Rp1273
(dp1274
g11
I00
sg19
I01
sg37
F0.0
sg20
I00
sbsg20
I00
sS'tspar0'
p1275
g0
(g338
g2
Ntp1276
Rp1277
(dp1278
g11
I00
sg19
I01
sg37
F12.2999
sg20
I00
sbsS'tspar1'
p1279
g0
(g338
g2
Ntp1280
Rp1281
(dp1282
g11
I00
sg19
I01
sg37
F-2.19142
sg20
I00
sbsS'tspar1_siPM'
p1283
g0
(g338
g2
Ntp1284
Rp1285
(dp1286
g11
I00
sg19
I01
sg37
F0.0
sg20
I00
sbsS'cap'
p1287
g0
(g338
g2
Ntp1288
Rp1289
(dp1290
g11
I00
sg19
I01
sg37
F6.0
sg20
I00
sbsS'tspar0_siPM'
p1291
g0
(g338
g2
Ntp1292
Rp1293
(dp1294
g11
I00
sg19
I01
sg37
F0.0
sg20
I00
sbsg38
(lp1295
g1271
ag1275
ag1279
ag1283
ag1287
ag1291
aS'tspar2_siPM'
p1296
asg1296
g0
(g338
g2
Ntp1297
Rp1298
(dp1299
g11
I00
sg19
I01
sg37
F0.0
sg20
I00
sbsbag0
(g28
g2
Ntp1300
Rp1301
(dp1302
g11
I00
sg19
I01
sg1271
g0
(g338
g2
Ntp1303
Rp1304
(dp1305
g11
I00
sg19
I01
sg37
F32.0
sg20
I00
sbsg20
I00
sg1275
g0
(g338
g2
Ntp1306
Rp1307
(dp1308
g11
I00
sg19
I01
sg37
F15.5
sg20
I00
sbsg1279
g0
(g338
g2
Ntp1309
Rp1310
(dp1311
g11
I00
sg19
I01
sg37
F-3.2
sg20
I00
sbsg1283
g0
(g338
g2
Ntp1312
Rp1313
(dp1314
g11
I00
sg19
I01
sg37
F0.0
sg20
I00
sbsg1287
g0
(g338
g2
Ntp1315
Rp1316
(dp1317
g11
I00
sg19
I01
sg37
F6.0
sg20
I00
sbsg1291
g0
(g338
g2
Ntp1318
Rp1319
(dp1320
g11
I00
sg19
I01
sg37
F0.0
sg20
I00
sbsg38
(lp1321
g1271
ag1275
ag1279
ag1283
ag1287
ag1291
ag1296
asg1296
g0
(g338
g2
Ntp1322
Rp1323
(dp1324
g11
I00
sg19
I01
sg37
F0.0
sg20
I00
sbsbag0
(g28
g2
Ntp1325
Rp1326
(dp1327
g11
I00
sg19
I01
sg1271
g0
(g338
g2
Ntp1328
Rp1329
(dp1330
g11
I00
sg19
I01
sg37
F0.0
sg20
I00
sbsg20
I00
sg1275
g0
(g338
g2
Ntp1331
Rp1332
(dp1333
g11
I00
sg19
I01
sg37
F12.2999
sg20
I00
sbsg1279
g0
(g338
g2
Ntp1334
Rp1335
(dp1336
g11
I00
sg19
I01
sg37
F-2.19142
sg20
I00
sbsg1283
g0
(g338
g2
Ntp1337
Rp1338
(dp1339
g11
I00
sg19
I01
sg37
F0.0
sg20
I00
sbsg1287
g0
(g338
g2
Ntp1340
Rp1341
(dp1342
g11
I00
sg19
I01
sg37
F6.0
sg20
I00
sbsg1291
g0
(g338
g2
Ntp1343
Rp1344
(dp1345
g11
I00
sg19
I01
sg37
F0.0
sg20
I00
sbsg38
(lp1346
g1271
ag1275
ag1279
ag1283
ag1287
ag1291
ag1296
asg1296
g0
(g338
g2
Ntp1347
Rp1348
(dp1349
g11
I00
sg19
I01
sg37
F0.0
sg20
I00
sbsbag0
(g28
g2
Ntp1350
Rp1351
(dp1352
g11
I00
sg19
I01
sg1271
g0
(g338
g2
Ntp1353
Rp1354
(dp1355
g11
I00
sg19
I01
sg37
F0.0
sg20
I00
sbsg20
I00
sg1275
g0
(g338
g2
Ntp1356
Rp1357
(dp1358
g11
I00
sg19
I01
sg37
F12.2999
sg20
I00
sbsg1279
g0
(g338
g2
Ntp1359
Rp1360
(dp1361
g11
I00
sg19
I01
sg37
F-2.19142
sg20
I00
sbsg1283
g0
(g338
g2
Ntp1362
Rp1363
(dp1364
g11
I00
sg19
I01
sg37
F0.0
sg20
I00
sbsg1287
g0
(g338
g2
Ntp1365
Rp1366
(dp1367
g11
I00
sg19
I01
sg37
F6.0
sg20
I00
sbsg1291
g0
(g338
g2
Ntp1368
Rp1369
(dp1370
g11
I00
sg19
I01
sg37
F0.0
sg20
I00
sbsg38
(lp1371
g1271
ag1275
ag1279
ag1283
ag1287
ag1291
ag1296
asg1296
g0
(g338
g2
Ntp1372
Rp1373
(dp1374
g11
I00
sg19
I01
sg37
F0.0
sg20
I00
sbsbatp1375
Rp1376
(dp1377
g11
I00
sg19
I01
sg20
I00
sg21
I1
sbsg1265
g0
(g991
g14
(lp1378
g0
(g28
g2
Ntp1379
Rp1380
(dp1381
g11
I00
sg19
I01
sg20
I00
sS'slope'
p1382
g0
(g338
g2
Ntp1383
Rp1384
(dp1385
g11
I00
sg19
I01
sg37
F-3.178648
sg20
I00
sbsS'tmax'
p1386
g0
(g338
g2
Ntp1387
Rp1388
(dp1389
g11
I00
sg19
I01
sg37
F16.0
sg20
I00
sbsS'tzero'
p1390
g0
(g338
g2
Ntp1391
Rp1392
(dp1393
g11
I00
sg19
I01
sg37
F23.960177
sg20
I00
sbsg38
(lp1394
g1382
ag1386
ag1390
asbag0
(g28
g2
Ntp1395
Rp1396
(dp1397
g11
I00
sg19
I01
sg20
I00
sg1382
g0
(g338
g2
Ntp1398
Rp1399
(dp1400
g11
I00
sg19
I01
sg37
F-1.5610227
sg20
I00
sbsg1386
g0
(g338
g2
Ntp1401
Rp1402
(dp1403
g11
I00
sg19
I01
sg37
F10.0
sg20
I00
sbsg1390
g0
(g338
g2
Ntp1404
Rp1405
(dp1406
g11
I00
sg19
I01
sg37
F11.977461
sg20
I00
sbsg38
(lp1407
g1382
ag1386
ag1390
asbag0
(g28
g2
Ntp1408
Rp1409
(dp1410
g11
I00
sg19
I01
sg20
I00
sg1382
g0
(g338
g2
Ntp1411
Rp1412
(dp1413
g11
I00
sg19
I01
sg37
F-1.075824
sg20
I00
sbsg1386
g0
(g338
g2
Ntp1414
Rp1415
(dp1416
g11
I00
sg19
I01
sg37
F6.25
sg20
I00
sbsg1390
g0
(g338
g2
Ntp1417
Rp1418
(dp1419
g11
I00
sg19
I01
sg37
F9.109694
sg20
I00
sbsg38
(lp1420
g1382
ag1386
ag1390
asbatp1421
Rp1422
(dp1423
g11
I00
sg19
I01
sg20
I00
sg21
I1
sbsg20
I00
sg40
I23
sg69
S'/cvmfs/cms.cern.ch/slc7_amd64_gcc820/cms/cmssw/CMSSW_10_6_0/python/CalibCalorimetry/HcalPlugins/HcalTimeSlew_cff.py'
p1424
sg1266
g0
(g164
g2
Ntp1425
Rp1426
(dp1427
g11
I00
sg19
I01
sg37
S'HBHE'
p1428
sg20
I00
sbsg275
g1259
sg46
g1259
sbssg324
g315
sg497
g499
sS'source'
p1429
g315
sS'CastorDbProducer'
p1430
g0
(g326
g2
Ntp1431
Rp1432
(dp1433
g38
(lp1434
g1266
asg11
I00
sg1266
g0
(g164
g2
Ntp1435
Rp1436
(dp1437
g11
I00
sg19
I01
sg37
g284
sg20
I00
sbsg20
I00
sg40
I56
sg69
g70
sg275
g1430
sg46
g1430
sbsS'_Process__vpsets'
p1438
(dp1439
sS'_Process__name'
p1440
S'analysis'
p1441
sg1259
g1261
sS'es_prefer_hcalHardcode'
p1442
g0
(cFWCore.ParameterSet.Modules
ESPrefer
p1443
g2
Ntp1444
Rp1445
(dp1446
g38
(lp1447
sg11
I00
sg20
I00
sS'_targetLabel'
p1448
g545
sg40
I92
sg69
g70
sg275
g1442
sg46
g762
sbsS'_Process__subProcesses'
p1449
(lp1450
sS'_Process__switchproducers'
p1451
(dp1452
sS'_cloneToObjectDict'
p1453
(dp1454
I139692860818256
g535
sI139692860714000
g499
sI139692860818320
g258
sI139692861097360
g449
sI139692861097424
g517
sI139692860712464
g0
(g326
g2
Ntp1455
Rp1456
(dp1457
g38
(lp1458
S'PreFilter'
p1459
ag332
aS'NSigmaInside'
p1460
asg11
I00
sg20
I00
sg69
g70
sg332
g0
(g164
g2
Ntp1461
Rp1462
(dp1463
g11
I00
sg19
I01
sg37
S'StandardMatcher'
p1464
sg20
I00
sbsg1459
g0
(g33
g2
Ntp1465
Rp1466
(dp1467
g11
I00
sg19
I01
sg37
I00
sg20
I00
sbsg40
I56
sg1460
g0
(g338
g2
Ntp1468
Rp1469
(dp1470
g11
I00
sg19
I01
sg37
F3.0
sg20
I00
sbsg275
S'SiStripRecHitMatcherESProducer'
p1471
sg46
g1471
sbsI139692860712592
g0
(g326
g2
Ntp1472
Rp1473
(dp1474
g38
(lp1475
sg11
I00
sg20
I00
sg40
I56
sg69
g70
sg275
S'sistripconn'
p1476
sg46
S'SiStripConnectivity'
p1477
sbsI139692877023184
g1187
sI139692861155472
g547
sI139692860713168
g0
(g326
g2
Ntp1478
Rp1479
(dp1480
g38
(lp1481
S'siPixelQualityLabel'
p1482
aS'ListOfRecordToMerge'
p1483
asg11
I00
sg20
I01
sg40
I56
sg1482
g0
(g164
g2
Ntp1484
Rp1485
(dp1486
g11
I00
sg19
I01
sg37
g284
sg20
I00
sbsg69
g70
sg1483
g0
(g991
g14
(lp1487
g0
(g28
g2
Ntp1488
Rp1489
(dp1490
g11
I00
sg19
I01
sg20
I00
sg417
g0
(g164
g2
Ntp1491
Rp1492
(dp1493
g11
I00
sg19
I01
sg37
S'SiPixelQualityFromDbRcd'
p1494
sg20
I00
sbsS'tag'
p1495
g0
(g164
g2
Ntp1496
Rp1497
(dp1498
g11
I00
sg19
I01
sg37
g284
sg20
I00
sbsg38
(lp1499
g417
ag1495
asbag0
(g28
g2
Ntp1500
Rp1501
(dp1502
g11
I00
sg19
I01
sg20
I00
sg417
g0
(g164
g2
Ntp1503
Rp1504
(dp1505
g11
I00
sg19
I01
sg37
S'SiPixelDetVOffRcd'
p1506
sg20
I00
sbsg1495
g0
(g164
g2
Ntp1507
Rp1508
(dp1509
g11
I00
sg19
I01
sg37
g284
sg20
I00
sbsg38
(lp1510
g417
ag1495
asbatp1511
Rp1512
(dp1513
g11
I00
sg19
I01
sg20
I00
sg21
I1
sbsg275
S'siPixelQualityESProducer'
p1514
sg46
S'SiPixelQualityESProducer'
p1515
sbsI139692860713296
g269
sI139692860668944
g0
(g326
g2
Ntp1516
Rp1517
(dp1518
g38
(lp1519
g407
aS'LorentzAngleDeconvMode'
p1520
aS'LorentzAnglePeakMode'
p1521
asg11
I00
sg20
I00
sg40
I56
sg69
g70
sg407
g0
(g28
g2
Ntp1522
Rp1523
(dp1524
g11
I00
sg19
I01
sg20
I00
sg413
g0
(g164
g2
Ntp1525
Rp1526
(dp1527
g11
I00
sg19
I00
sg37
g284
sg20
I00
sbsg417
g0
(g164
g2
Ntp1528
Rp1529
(dp1530
g11
I00
sg19
I01
sg37
g421
sg20
I00
sbsg38
(lp1531
g417
ag413
asbsg275
S'siStripLorentzAngleDepESProducer'
p1532
sg1521
g0
(g28
g2
Ntp1533
Rp1534
(dp1535
g11
I00
sg19
I01
sg20
I00
sg413
g0
(g164
g2
Ntp1536
Rp1537
(dp1538
g11
I00
sg19
I00
sg37
g429
sg20
I00
sbsg417
g0
(g164
g2
Ntp1539
Rp1540
(dp1541
g11
I00
sg19
I01
sg37
S'SiStripLorentzAngleRcd'
p1542
sg20
I00
sbsg38
(lp1543
g417
ag413
asbsg46
S'SiStripLorentzAngleDepESProducer'
p1544
sg1520
g0
(g28
g2
Ntp1545
Rp1546
(dp1547
g11
I00
sg19
I01
sg20
I00
sg413
g0
(g164
g2
Ntp1548
Rp1549
(dp1550
g11
I00
sg19
I00
sg37
g441
sg20
I00
sbsg417
g0
(g164
g2
Ntp1551
Rp1552
(dp1553
g11
I00
sg19
I01
sg37
g1542
sg20
I00
sbsg38
(lp1554
g417
ag413
asbsbsI139692861156624
g1445
sI139692860748624
g508
sI139692860714384
g0
(g326
g2
Ntp1555
Rp1556
(dp1557
g38
(lp1558
g1266
aS'PrintDebugOutput'
p1559
aS'ThresholdForReducedGranularity'
p1560
aS'UseEmptyRunInfo'
p1561
aS'ReduceGranularity'
p1562
ag1483
asg11
I00
sg1266
g0
(g164
g2
Ntp1563
Rp1564
(dp1565
g11
I00
sg19
I01
sg37
g284
sg20
I00
sbsg20
I01
sg40
I56
sg69
g70
sg1560
g0
(g338
g2
Ntp1566
Rp1567
(dp1568
g11
I00
sg19
I01
sg37
F0.3
sg20
I00
sbsg275
S'siStripQualityESProducer'
p1569
sg1561
g0
(g33
g2
Ntp1570
Rp1571
(dp1572
g11
I00
sg19
I01
sg37
I00
sg20
I00
sbsg1562
g0
(g33
g2
Ntp1573
Rp1574
(dp1575
g11
I00
sg19
I01
sg37
I00
sg20
I00
sbsg1483
g0
(g991
g14
(lp1576
g0
(g28
g2
Ntp1577
Rp1578
(dp1579
g11
I00
sg19
I01
sg20
I00
sg417
g0
(g164
g2
Ntp1580
Rp1581
(dp1582
g11
I00
sg19
I01
sg37
S'SiStripDetVOffRcd'
p1583
sg20
I00
sbsg1495
g0
(g164
g2
Ntp1584
Rp1585
(dp1586
g11
I00
sg19
I01
sg37
g284
sg20
I00
sbsg38
(lp1587
g417
ag1495
asbag0
(g28
g2
Ntp1588
Rp1589
(dp1590
g11
I00
sg19
I01
sg20
I00
sg417
g0
(g164
g2
Ntp1591
Rp1592
(dp1593
g11
I00
sg19
I01
sg37
S'SiStripDetCablingRcd'
p1594
sg20
I00
sbsg1495
g0
(g164
g2
Ntp1595
Rp1596
(dp1597
g11
I00
sg19
I01
sg37
g284
sg20
I00
sbsg38
(lp1598
g417
ag1495
asbag0
(g28
g2
Ntp1599
Rp1600
(dp1601
g11
I00
sg19
I01
sg20
I00
sg417
g0
(g164
g2
Ntp1602
Rp1603
(dp1604
g11
I00
sg19
I01
sg37
S'RunInfoRcd'
p1605
sg20
I00
sbsg1495
g0
(g164
g2
Ntp1606
Rp1607
(dp1608
g11
I00
sg19
I01
sg37
g284
sg20
I00
sbsg38
(lp1609
g417
ag1495
asbag0
(g28
g2
Ntp1610
Rp1611
(dp1612
g11
I00
sg19
I01
sg20
I00
sg417
g0
(g164
g2
Ntp1613
Rp1614
(dp1615
g11
I00
sg19
I01
sg37
S'SiStripBadChannelRcd'
p1616
sg20
I00
sbsg1495
g0
(g164
g2
Ntp1617
Rp1618
(dp1619
g11
I00
sg19
I01
sg37
g284
sg20
I00
sbsg38
(lp1620
g417
ag1495
asbag0
(g28
g2
Ntp1621
Rp1622
(dp1623
g11
I00
sg19
I01
sg20
I00
sg417
g0
(g164
g2
Ntp1624
Rp1625
(dp1626
g11
I00
sg19
I01
sg37
S'SiStripBadFiberRcd'
p1627
sg20
I00
sbsg1495
g0
(g164
g2
Ntp1628
Rp1629
(dp1630
g11
I00
sg19
I01
sg37
g284
sg20
I00
sbsg38
(lp1631
g417
ag1495
asbag0
(g28
g2
Ntp1632
Rp1633
(dp1634
g11
I00
sg19
I01
sg20
I00
sg417
g0
(g164
g2
Ntp1635
Rp1636
(dp1637
g11
I00
sg19
I01
sg37
S'SiStripBadModuleRcd'
p1638
sg20
I00
sbsg1495
g0
(g164
g2
Ntp1639
Rp1640
(dp1641
g11
I00
sg19
I01
sg37
g284
sg20
I00
sbsg38
(lp1642
g417
ag1495
asbag0
(g28
g2
Ntp1643
Rp1644
(dp1645
g11
I00
sg19
I01
sg20
I00
sg417
g0
(g164
g2
Ntp1646
Rp1647
(dp1648
g11
I00
sg19
I01
sg37
S'SiStripBadStripRcd'
p1649
sg20
I00
sbsg1495
g0
(g164
g2
Ntp1650
Rp1651
(dp1652
g11
I00
sg19
I01
sg37
g284
sg20
I00
sbsg38
(lp1653
g417
ag1495
asbatp1654
Rp1655
(dp1656
g11
I00
sg19
I01
sg20
I00
sg21
I1
sbsg46
S'SiStripQualityESProducer'
p1657
sg1559
g0
(g33
g2
Ntp1658
Rp1659
(dp1660
g11
I00
sg19
I01
sg37
I00
sg20
I00
sbsbsI139692860669648
g404
sI139692877004496
g492
sI139692860710992
g475
sI139692860711120
g328
sI139692860668048
g0
(g326
g2
Ntp1661
Rp1662
(dp1663
g38
(lp1664
S'printDebug'
p1665
ag1266
aS'APVGain'
p1666
aS'AutomaticNormalization'
p1667
asg11
I00
sg1266
g0
(g164
g2
Ntp1668
Rp1669
(dp1670
g11
I00
sg19
I01
sg37
g284
sg20
I00
sbsg20
I00
sg1667
g0
(g33
g2
Ntp1671
Rp1672
(dp1673
g11
I00
sg19
I01
sg37
I00
sg20
I00
sbsg40
I56
sg1665
g0
(g33
g2
Ntp1674
Rp1675
(dp1676
g11
I00
sg19
I00
sg37
I00
sg20
I00
sbsg69
g70
sg1666
g0
(g991
g14
(lp1677
g0
(g28
g2
Ntp1678
Rp1679
(dp1680
g11
I00
sg19
I01
sg20
I00
sS'Label'
p1681
g0
(g164
g2
Ntp1682
Rp1683
(dp1684
g11
I00
sg19
I00
sg37
g284
sg20
I00
sbsS'Record'
p1685
g0
(g164
g2
Ntp1686
Rp1687
(dp1688
g11
I00
sg19
I01
sg37
S'SiStripApvGainRcd'
p1689
sg20
I00
sbsS'NormalizationFactor'
p1690
g0
(g338
g2
Ntp1691
Rp1692
(dp1693
g11
I00
sg19
I00
sg37
F1.0
sg20
I00
sbsg38
(lp1694
g1685
ag1690
ag1681
asbag0
(g28
g2
Ntp1695
Rp1696
(dp1697
g11
I00
sg19
I01
sg20
I00
sg1681
g0
(g164
g2
Ntp1698
Rp1699
(dp1700
g11
I00
sg19
I00
sg37
g284
sg20
I00
sbsg1685
g0
(g164
g2
Ntp1701
Rp1702
(dp1703
g11
I00
sg19
I01
sg37
S'SiStripApvGain2Rcd'
p1704
sg20
I00
sbsg1690
g0
(g338
g2
Ntp1705
Rp1706
(dp1707
g11
I00
sg19
I00
sg37
F1.0
sg20
I00
sbsg38
(lp1708
g1685
ag1690
ag1681
asbatp1709
Rp1710
(dp1711
g11
I00
sg19
I01
sg20
I00
sg21
I1
sbsg275
S'siStripGainESProducer'
p1712
sg46
S'SiStripGainESProducer'
p1713
sbsI139692860666448
g1432
sI139692861096656
g1261
ssg1712
g1662
sg1476
g1473
sS'_Process__esprefers'
p1714
(dp1715
g1442
g1445
ssg1471
g1456
sS'_Process__schedule'
p1716
Nsg1569
g1556
sg532
g535
sS'_Process__outputmodules'
p1717
(dp1718
sS'_Process__analyzers'
p1719
(dp1720
g276
g269
ssS'_Process__InExtendCall'
p1721
I00
sg1532
g1517
sS'_Process__modifiers'
p1722
(tsS'_Process__producers'
p1723
(dp1724
sg1514
g1479
sg1185
g1187
sS'_Process__filters'
p1725
(dp1726
sg545
g547
sS'_Process__looper'
p1727
NsS'_Process__endpaths'
p1728
g0
(cFWCore.ParameterSet.DictTypes
SortedKeysDict
p1729
c__builtin__
dict
p1730
(dp1731
tp1732
Rp1733
(dp1734
S'list'
p1735
(lp1736
sbsS'_Process__esproducers'
p1737
(dp1738
g1532
g1517
sg473
g475
sg1471
g1456
sg1514
g1479
sg515
g517
sg1712
g1662
sg1476
g1473
sg325
g328
sg1430
g1432
sg490
g492
sg402
g404
sg1569
g1556
ssS'_Process__tasks'
p1739
(dp1740
sS'_Process__paths'
p1741
g0
(g1729
g1730
(dp1742
g255
g258
stp1743
Rp1744
(dp1745
g1735
(lp1746
g255
asbsS'_Process__partialschedules'
p1747
(dp1748
sg506
g508
sS'_Process__isStrict'
p1749
I00
sb.