ccopy_reg
_reconstructor
p0
(cFWCore.ParameterSet.Config
Process
p1
c__builtin__
object
p2
Ntp3
Rp4
(dp5
S'MessageLogger'
p6
g0
(cFWCore.ParameterSet.Modules
Service
p7
g2
Ntp8
Rp9
(dp10
S'_isFrozen'
p11
I00
sS'suppressInfo'
p12
g0
(cFWCore.ParameterSet.Types
vstring
p13
c__builtin__
list
p14
(lp15
tp16
Rp17
(dp18
g11
I00
sS'_ParameterTypeBase__isTracked'
p19
I00
sS'_isModified'
p20
I00
sS'_nPerLine'
p21
I1
sbsS'suppressDebug'
p22
g0
(g13
g14
(lp23
tp24
Rp25
(dp26
g11
I00
sg19
I00
sg20
I00
sg21
I1
sbsS'cout'
p27
g0
(cFWCore.ParameterSet.Types
PSet
p28
g2
Ntp29
Rp30
(dp31
g11
I00
sg19
I00
sS'placeholder'
p32
g0
(cFWCore.ParameterSet.Types
bool
p33
g2
Ntp34
Rp35
(dp36
g11
I00
sg19
I00
sS'_value'
p37
I01
sg20
I00
sbsg20
I00
sS'_Parameterizable__parameterNames'
p38
(lp39
g32
asbsS'_lineNumber'
p40
I14
sS'debugModules'
p41
g0
(g13
g14
(lp42
tp43
Rp44
(dp45
g11
I00
sg19
I00
sg20
I00
sg21
I1
sbsS'_TypedParameterizable__type'
p46
g6
sS'fwkJobReports'
p47
g0
(g13
g14
(lp48
S'FrameworkJobReport'
p49
atp50
Rp51
(dp52
g11
I00
sg19
I00
sg20
I00
sg21
I1
sbsg38
(lp53
g12
aS'debugs'
p54
ag22
ag27
aS'cerr_stats'
p55
aS'warnings'
p56
aS'default'
p57
aS'statistics'
p58
aS'cerr'
p59
ag49
aS'suppressWarning'
p60
aS'errors'
p61
aS'destinations'
p62
ag41
aS'infos'
p63
aS'categories'
p64
ag47
asg58
g0
(g13
g14
(lp65
g55
atp66
Rp67
(dp68
g11
I00
sg19
I00
sg20
I00
sg21
I1
sbsS'_filename'
p69
S'/cvmfs/cms.cern.ch/slc7_amd64_gcc820/cms/cmssw/CMSSW_10_6_0/python/FWCore/ParameterSet/Modules.py'
p70
sg62
g0
(g13
g14
(lp71
g56
ag61
ag63
ag54
ag27
ag59
atp72
Rp73
(dp74
g11
I00
sg19
I00
sg20
I00
sg21
I1
sbsg54
g0
(g28
g2
Ntp75
Rp76
(dp77
g11
I00
sg19
I00
sg32
g0
(g33
g2
Ntp78
Rp79
(dp80
g11
I00
sg19
I00
sg37
I01
sg20
I00
sbsg20
I00
sg38
(lp81
g32
asbsg56
g0
(g28
g2
Ntp82
Rp83
(dp84
g11
I00
sg19
I00
sg32
g0
(g33
g2
Ntp85
Rp86
(dp87
g11
I00
sg19
I00
sg37
I01
sg20
I00
sbsg20
I00
sg38
(lp88
g32
asbsg61
g0
(g28
g2
Ntp89
Rp90
(dp91
g11
I00
sg19
I00
sg32
g0
(g33
g2
Ntp92
Rp93
(dp94
g11
I00
sg19
I00
sg37
I01
sg20
I00
sbsg20
I00
sg38
(lp95
g32
asbsg49
g0
(g28
g2
Ntp96
Rp97
(dp98
g11
I00
sg19
I00
sg20
I00
sg57
g0
(g28
g2
Ntp99
Rp100
(dp101
g11
I00
sg19
I00
sS'limit'
p102
g0
(cFWCore.ParameterSet.Types
int32
p103
g2
Ntp104
Rp105
(dp106
g11
I00
sg19
I00
sg37
I0
sg20
I00
sbsg20
I00
sg38
(lp107
g102
asbsS'FwkJob'
p108
g0
(g28
g2
Ntp109
Rp110
(dp111
g11
I00
sg19
I00
sg20
I00
sg102
g0
(g103
g2
Ntp112
Rp113
(dp114
g11
I00
sg19
I00
sg37
I10000000
sg20
I00
sbsg38
(lp115
S'optionalPSet'
p116
ag102
asg116
g0
(g33
g2
Ntp117
Rp118
(dp119
g11
I00
sg19
I00
sg37
I01
sg20
I00
sbsbsg38
(lp120
g57
ag116
ag108
asg116
g0
(g33
g2
Ntp121
Rp122
(dp123
g11
I00
sg19
I00
sg37
I01
sg20
I00
sbsbsg60
g0
(g13
g14
(lp124
tp125
Rp126
(dp127
g11
I00
sg19
I00
sg20
I00
sg21
I1
sbsg63
g0
(g28
g2
Ntp128
Rp129
(dp130
g11
I00
sg19
I00
sg20
I00
sS'Root_NoDictionary'
p131
g0
(g28
g2
Ntp132
Rp133
(dp134
g11
I00
sg19
I00
sg20
I00
sg102
g0
(g103
g2
Ntp135
Rp136
(dp137
g11
I00
sg19
I00
sg37
I0
sg20
I00
sbsg38
(lp138
g116
ag102
asg116
g0
(g33
g2
Ntp139
Rp140
(dp141
g11
I00
sg19
I00
sg37
I01
sg20
I00
sbsbsg38
(lp142
g116
ag131
ag32
asg116
g0
(g33
g2
Ntp143
Rp144
(dp145
g11
I00
sg19
I00
sg37
I01
sg20
I00
sbsg32
g0
(g33
g2
Ntp146
Rp147
(dp148
g11
I00
sg19
I00
sg37
I01
sg20
I00
sbsbsg64
g0
(g13
g14
(lp149
g108
aS'FwkReport'
p150
aS'FwkSummary'
p151
ag131
atp152
Rp153
(dp154
g11
I00
sg19
I00
sg20
I00
sg21
I1
sbsg20
I00
sg55
g0
(g28
g2
Ntp155
Rp156
(dp157
g11
I00
sg19
I00
sg20
I00
sg116
g0
(g33
g2
Ntp158
Rp159
(dp160
g11
I00
sg19
I00
sg37
I01
sg20
I00
sbsg38
(lp161
S'threshold'
p162
aS'output'
p163
ag116
asg162
g0
(cFWCore.ParameterSet.Types
string
p164
g2
Ntp165
Rp166
(dp167
g11
I00
sg19
I00
sg37
S'WARNING'
p168
sg20
I00
sbsg163
g0
(g164
g2
Ntp169
Rp170
(dp171
g11
I00
sg19
I00
sg37
g59
sg20
I00
sbsbsg57
g0
(g28
g2
Ntp172
Rp173
(dp174
g11
I00
sg19
I00
sg20
I00
sg38
(lp175
sbsS'_inProcess'
p176
I01
sg59
g0
(g28
g2
Ntp177
Rp178
(dp179
g11
I00
sg19
I00
sS'noTimeStamps'
p180
g0
(g33
g2
Ntp181
Rp182
(dp183
g11
I00
sg19
I00
sg37
I00
sg20
I00
sbsg150
g0
(g28
g2
Ntp184
Rp185
(dp186
g11
I00
sg19
I00
sg20
I01
sS'reportEvery'
p187
g0
(g103
g2
Ntp188
Rp189
(dp190
g11
I00
sg19
I00
sg37
I1000
sg20
I01
sbsg102
g0
(g103
g2
Ntp191
Rp192
(dp193
g11
I00
sg19
I00
sg37
I10000000
sg20
I00
sbsg38
(lp194
g187
ag116
ag102
asg116
g0
(g33
g2
Ntp195
Rp196
(dp197
g11
I00
sg19
I00
sg37
I01
sg20
I00
sbsbsg20
I00
sg57
g0
(g28
g2
Ntp198
Rp199
(dp200
g11
I00
sg19
I00
sg102
g0
(g103
g2
Ntp201
Rp202
(dp203
g11
I00
sg19
I00
sg37
I10000000
sg20
I00
sbsg20
I00
sg38
(lp204
g102
asbsg131
g0
(g28
g2
Ntp205
Rp206
(dp207
g11
I00
sg19
I00
sg20
I00
sg102
g0
(g103
g2
Ntp208
Rp209
(dp210
g11
I00
sg19
I00
sg37
I0
sg20
I00
sbsg38
(lp211
g116
ag102
asg116
g0
(g33
g2
Ntp212
Rp213
(dp214
g11
I00
sg19
I00
sg37
I01
sg20
I00
sbsbsS'INFO'
p215
g0
(g28
g2
Ntp216
Rp217
(dp218
g11
I00
sg19
I00
sg102
g0
(g103
g2
Ntp219
Rp220
(dp221
g11
I00
sg19
I00
sg37
I0
sg20
I00
sbsg20
I00
sg38
(lp222
g102
asbsg116
g0
(g33
g2
Ntp223
Rp224
(dp225
g11
I00
sg19
I00
sg37
I01
sg20
I00
sbsg108
g0
(g28
g2
Ntp226
Rp227
(dp228
g11
I00
sg19
I00
sg20
I00
sg102
g0
(g103
g2
Ntp229
Rp230
(dp231
g11
I00
sg19
I00
sg37
I0
sg20
I00
sbsg38
(lp232
g116
ag102
asg116
g0
(g33
g2
Ntp233
Rp234
(dp235
g11
I00
sg19
I00
sg37
I01
sg20
I00
sbsbsg151
g0
(g28
g2
Ntp236
Rp237
(dp238
g11
I00
sg19
I00
sg20
I00
sg187
g0
(g103
g2
Ntp239
Rp240
(dp241
g11
I00
sg19
I00
sg37
I1
sg20
I00
sbsg102
g0
(g103
g2
Ntp242
Rp243
(dp244
g11
I00
sg19
I00
sg37
I10000000
sg20
I00
sbsg38
(lp245
g187
ag116
ag102
asg116
g0
(g33
g2
Ntp246
Rp247
(dp248
g11
I00
sg19
I00
sg37
I01
sg20
I00
sbsbsg38
(lp249
g215
ag180
ag150
ag57
ag131
ag162
ag108
ag151
ag116
asg162
g0
(g164
g2
Ntp250
Rp251
(dp252
g11
I00
sg19
I00
sg37
g215
sg20
I00
sbsbsbsS'_Process__sequences'
p253
(dp254
sS'p'
p255
g0
(cFWCore.ParameterSet.SequenceTypes
Path
p256
g2
Ntp257
Rp258
(dp259
g11
I00
sS'_seq'
p260
g0
(cFWCore.ParameterSet.SequenceTypes
_SequenceCollection
p261
g2
Ntp262
Rp263
(dp264
S'_collection'
p265
(lp266
g0
(cFWCore.ParameterSet.Modules
EDAnalyzer
p267
g2
Ntp268
Rp269
(dp270
g38
(lp271
S'fatJetCollection'
p272
aS'bits'
p273
asg11
I00
sg20
I00
sg40
I11
sg69
S'/uscms_data/d3/cannaert/src/thrust/CMSSW_10_6_0/src/diquarkAnalyzerBR_cfg.py'
p274
sS'_Labelable__label'
p275
S'diquarkAnalyzerBR'
p276
sg272
g0
(cFWCore.ParameterSet.Types
InputTag
p277
g2
Ntp278
Rp279
(dp280
g11
I00
sg19
I01
sg20
I00
sS'_InputTag__moduleLabel'
p281
S'slimmedJetsAK8'
p282
sS'_InputTag__processName'
p283
S''
p284
sS'_InputTag__productInstance'
p285
g284
sbsg273
g0
(g277
g2
Ntp286
Rp287
(dp288
g11
I00
sg19
I01
sg20
I00
sg281
S'TriggerResults'
p289
sg283
S'HLT'
p290
sg285
g284
sbsg46
g276
sbasbsg275
g255
sg20
I00
sS'_tasks'
p291
g0
(cFWCore.ParameterSet.OrderedSet
OrderedSet
p292
g2
Ntp293
Rp294
(dp295
S'map'
p296
(dp297
sS'end'
p298
(lp299
Nag299
ag299
asbsbsS'_Process__services'
p300
(dp301
g6
g9
sS'TFileService'
p302
g0
(g7
g2
Ntp303
Rp304
(dp305
g38
(lp306
S'fileName'
p307
asg11
I00
sg176
I01
sg20
I00
sg40
I14
sg69
g70
sg307
g0
(g164
g2
Ntp308
Rp309
(dp310
g11
I00
sg19
I01
sg37
S'diquarkBR_500GeV.root'
p311
sg20
I00
sbsg46
g302
sbssS'_Process__source'
p312
g0
(cFWCore.ParameterSet.Modules
Source
p313
g2
Ntp314
Rp315
(dp316
g38
(lp317
S'fileNames'
p318
asg11
I00
sg20
I00
sg40
I196
sg69
g70
sg318
g0
(g13
g14
(lp319
S'root://cmsxrootd.fnal.gov//store/data/Run2018C/JetHT/MINIAOD/17Sep2018-v1/00000/F0ABAD2E-E61E-D84B-B977-5B996E44BB3C.root'
p320
aS'root://cmsxrootd.fnal.gov//store/data/Run2018C/JetHT/MINIAOD/17Sep2018-v1/00000/EFFA037F-2EAC-B242-ADE5-5399DDCEFA33.root'
p321
aS'root://cmsxrootd.fnal.gov//store/data/Run2018C/JetHT/MINIAOD/17Sep2018-v1/80000/DDC38B74-3A1C-BF4B-9B01-11A3A6A4078A.root'
p322
aS'root://cmsxrootd.fnal.gov//store/data/Run2018C/JetHT/MINIAOD/17Sep2018-v1/80000/D3CB5A51-1FAA-BC48-BAB6-4DED7307DB96.root'
p323
aS'root://cmsxrootd.fnal.gov//store/data/Run2018C/JetHT/MINIAOD/17Sep2018-v1/80000/AC59982E-1178-1F46-A9DE-FAC659B7F66D.root'
p324
aS'root://cmsxrootd.fnal.gov//store/data/Run2018C/JetHT/MINIAOD/17Sep2018-v1/80000/95480FB7-7FC3-2A48-9357-4126FBE2AFC9.root'
p325
aS'root://cmsxrootd.fnal.gov//store/data/Run2018C/JetHT/MINIAOD/17Sep2018-v1/80000/852DF889-62CC-9E43-A4CD-0A3C14C0B2E4.root'
p326
aS'root://cmsxrootd.fnal.gov//store/data/Run2018C/JetHT/MINIAOD/17Sep2018-v1/80000/85088B5A-2697-A242-B204-E1B409D9B2A5.roots'
p327
atp328
Rp329
(dp330
g11
I00
sg19
I00
sg20
I00
sg21
I1
sbsg46
S'PoolSource'
p331
sbsS'StripCPEfromTrackAngleESProducer'
p332
g0
(cFWCore.ParameterSet.Modules
ESProducer
p333
g2
Ntp334
Rp335
(dp336
g38
(lp337
S'ComponentType'
p338
aS'ComponentName'
p339
aS'parameters'
p340
asg11
I00
sg20
I01
sg340
g0
(g28
g2
Ntp341
Rp342
(dp343
g11
I00
sg19
I01
sS'maxChgOneMIP'
p344
g0
(cFWCore.ParameterSet.Types
double
p345
g2
Ntp346
Rp347
(dp348
g11
I00
sg19
I01
sg37
F6000.0
sg20
I00
sbsS'mLC_P2'
p349
g0
(g345
g2
Ntp350
Rp351
(dp352
g11
I00
sg19
I01
sg37
F0.3
sg20
I00
sbsS'mLC_P1'
p353
g0
(g345
g2
Ntp354
Rp355
(dp356
g11
I00
sg19
I01
sg37
F0.618
sg20
I00
sbsS'mLC_P0'
p357
g0
(g345
g2
Ntp358
Rp359
(dp360
g11
I00
sg19
I01
sg37
F-0.326
sg20
I00
sbsS'useLegacyError'
p361
g0
(g33
g2
Ntp362
Rp363
(dp364
g11
I00
sg19
I01
sg37
I00
sg20
I00
sbsS'mTIB_P1'
p365
g0
(g345
g2
Ntp366
Rp367
(dp368
g11
I00
sg19
I01
sg37
F0.202
sg20
I00
sbsS'mTEC_P1'
p369
g0
(g345
g2
Ntp370
Rp371
(dp372
g11
I00
sg19
I01
sg37
F0.471
sg20
I00
sbsS'mTEC_P0'
p373
g0
(g345
g2
Ntp374
Rp375
(dp376
g11
I00
sg19
I01
sg37
F-1.885
sg20
I00
sbsS'mTOB_P0'
p377
g0
(g345
g2
Ntp378
Rp379
(dp380
g11
I00
sg19
I01
sg37
F-1.026
sg20
I00
sbsS'mTOB_P1'
p381
g0
(g345
g2
Ntp382
Rp383
(dp384
g11
I00
sg19
I01
sg37
F0.253
sg20
I00
sbsS'mTIB_P0'
p385
g0
(g345
g2
Ntp386
Rp387
(dp388
g11
I00
sg19
I01
sg37
F-0.742
sg20
I00
sbsg38
(lp389
g344
ag349
ag353
ag357
ag361
ag369
ag373
ag377
ag381
ag385
ag365
aS'mTID_P0'
p390
aS'mTID_P1'
p391
asg390
g0
(g345
g2
Ntp392
Rp393
(dp394
g11
I00
sg19
I01
sg37
F-1.427
sg20
I00
sbsg391
g0
(g345
g2
Ntp395
Rp396
(dp397
g11
I00
sg19
I01
sg37
F0.433
sg20
I00
sbsg20
I00
sbsg40
I4
sg339
g0
(g164
g2
Ntp398
Rp399
(dp400
g11
I00
sg19
I01
sg37
S'StripCPEfromTrackAngle'
p401
sg20
I00
sbsg338
g0
(g164
g2
Ntp402
Rp403
(dp404
g11
I00
sg19
I01
sg37
g401
sg20
I00
sbsg69
S'/cvmfs/cms.cern.ch/slc7_amd64_gcc820/cms/cmssw/CMSSW_10_6_0/python/RecoLocalTracker/SiStripRecHitConverter/StripCPEfromTrackAngle_cfi.py'
p405
sg275
g332
sg46
S'StripCPEESProducer'
p406
sbsS'_Process__aliases'
p407
(dp408
sS'siStripBackPlaneCorrectionDepESProducer'
p409
g0
(g333
g2
Ntp410
Rp411
(dp412
g38
(lp413
S'LatencyRecord'
p414
aS'BackPlaneCorrectionDeconvMode'
p415
aS'BackPlaneCorrectionPeakMode'
p416
asg11
I00
sg20
I00
sg40
I56
sg69
g70
sg414
g0
(g28
g2
Ntp417
Rp418
(dp419
g11
I00
sg19
I01
sg20
I00
sS'label'
p420
g0
(g164
g2
Ntp421
Rp422
(dp423
g11
I00
sg19
I00
sg37
g284
sg20
I00
sbsS'record'
p424
g0
(g164
g2
Ntp425
Rp426
(dp427
g11
I00
sg19
I01
sg37
S'SiStripLatencyRcd'
p428
sg20
I00
sbsg38
(lp429
g424
ag420
asbsg416
g0
(g28
g2
Ntp430
Rp431
(dp432
g11
I00
sg19
I01
sg20
I00
sg420
g0
(g164
g2
Ntp433
Rp434
(dp435
g11
I00
sg19
I00
sg37
S'peak'
p436
sg20
I00
sbsg424
g0
(g164
g2
Ntp437
Rp438
(dp439
g11
I00
sg19
I01
sg37
S'SiStripBackPlaneCorrectionRcd'
p440
sg20
I00
sbsg38
(lp441
g424
ag420
asbsg275
g409
sg415
g0
(g28
g2
Ntp442
Rp443
(dp444
g11
I00
sg19
I01
sg20
I00
sg420
g0
(g164
g2
Ntp445
Rp446
(dp447
g11
I00
sg19
I00
sg37
S'deconvolution'
p448
sg20
I00
sbsg424
g0
(g164
g2
Ntp449
Rp450
(dp451
g11
I00
sg19
I01
sg37
g440
sg20
I00
sbsg38
(lp452
g424
ag420
asbsg46
S'SiStripBackPlaneCorrectionDepESProducer'
p453
sbsg276
g269
sS'HFRecalParameterBlock'
p454
g0
(g28
g2
Ntp455
Rp456
(dp457
g11
I00
sg19
I01
sg20
I00
sS'HFdepthTwoParameterA'
p458
g0
(cFWCore.ParameterSet.Types
vdouble
p459
g14
(lp460
F0.002861
aF0.004168
aF0.0064
aF0.008388
aF0.011601
aF0.014425
aF0.018633
aF0.023232
aF0.028274
aF0.035447
aF0.051579
aF0.086593
atp461
Rp462
(dp463
g11
I00
sg19
I01
sg20
I00
sbsS'HFdepthOneParameterA'
p464
g0
(g459
g14
(lp465
F0.004123
aF0.00602
aF0.008201
aF0.010489
aF0.013379
aF0.016997
aF0.021464
aF0.027371
aF0.034195
aF0.044807
aF0.058939
aF0.125497
atp466
Rp467
(dp468
g11
I00
sg19
I01
sg20
I00
sbsS'HFdepthOneParameterB'
p469
g0
(g459
g14
(lp470
F-4e-06
aF-2e-06
aF0.0
aF4e-06
aF1.5e-05
aF2.6e-05
aF6.3e-05
aF8.4e-05
aF0.00016
aF0.000107
aF0.000425
aF0.000209
atp471
Rp472
(dp473
g11
I00
sg19
I01
sg20
I00
sbsS'HFdepthTwoParameterB'
p474
g0
(g459
g14
(lp475
F-2e-06
aF-0.0
aF-7e-06
aF-6e-06
aF-2e-06
aF1e-06
aF1.9e-05
aF3.1e-05
aF6.7e-05
aF1.2e-05
aF0.000157
aF-3e-06
atp476
Rp477
(dp478
g11
I00
sg19
I01
sg20
I00
sbsg38
(lp479
g464
ag469
ag474
ag458
asg275
g454
sbsS'stripCPEESProducer'
p480
g0
(g333
g2
Ntp481
Rp482
(dp483
g38
(lp484
g338
ag339
ag340
asg11
I00
sg20
I00
sg340
g0
(g28
g2
Ntp485
Rp486
(dp487
g11
I00
sg19
I01
sg20
I00
sg38
(lp488
sbsg40
I56
sg339
g0
(g164
g2
Ntp489
Rp490
(dp491
g11
I00
sg19
I01
sg37
S'stripCPE'
p492
sg20
I00
sbsg338
g0
(g164
g2
Ntp493
Rp494
(dp495
g11
I00
sg19
I01
sg37
S'SimpleStripCPE'
p496
sg20
I00
sbsg69
g70
sg275
g480
sg46
g406
sbsS'EcalLaserCorrectionService'
p497
g0
(g333
g2
Ntp498
Rp499
(dp500
g38
(lp501
sg11
I00
sg20
I00
sg40
I56
sg69
g70
sg275
g497
sg46
g497
sbsS'_Process__psets'
p502
(dp503
S'maxEvents'
p504
g0
(g28
g2
Ntp505
Rp506
(dp507
g11
I00
sg19
I00
sg20
I00
sg38
(lp508
S'input'
p509
asg275
g504
sg509
g0
(g103
g2
Ntp510
Rp511
(dp512
g11
I00
sg19
I00
sg37
I500000
sg20
I00
sbsbsg454
g456
sS'options'
p513
g0
(g28
g2
Ntp514
Rp515
(dp516
g11
I00
sg19
I00
sg20
I00
sS'wantSummary'
p517
g0
(g33
g2
Ntp518
Rp519
(dp520
g11
I00
sg19
I00
sg37
I01
sg20
I00
sbsg38
(lp521
g517
asg275
g513
sbssS'hcal_db_producer'
p522
g0
(g333
g2
Ntp523
Rp524
(dp525
g38
(lp526
S'file'
p527
aS'dump'
p528
asg11
I00
sg20
I00
sg528
g0
(g13
g14
(lp529
g284
atp530
Rp531
(dp532
g11
I00
sg19
I00
sg20
I00
sg21
I1
sbsg40
I56
sg69
g70
sg527
g0
(g164
g2
Ntp533
Rp534
(dp535
g11
I00
sg19
I00
sg37
g284
sg20
I00
sbsg275
g522
sg46
S'HcalDbProducer'
p536
sbsg302
g304
sS'_Process__essources'
p537
(dp538
S'HepPDTESSource'
p539
g0
(cFWCore.ParameterSet.Modules
ESSource
p540
g2
Ntp541
Rp542
(dp543
g38
(lp544
S'pdtFileName'
p545
asg11
I00
sg545
g0
(cFWCore.ParameterSet.Types
FileInPath
p546
g2
Ntp547
Rp548
(dp549
g11
I00
sg19
I01
sg37
S'SimGeneral/HepPDTESSource/data/pythiaparticle.tbl'
p550
sg20
I00
sbsg20
I00
sg40
I4
sg69
S'/cvmfs/cms.cern.ch/slc7_amd64_gcc820/cms/cmssw/CMSSW_10_6_0/python/SimGeneral/HepPDTESSource/pythiapdt_cfi.py'
p551
sg275
g539
sg46
g539
sbsS'es_hardcode'
p552
g0
(g540
g2
Ntp553
Rp554
(dp555
g11
I00
sg40
I172
sS'useHEUpgrade'
p556
g0
(g33
g2
Ntp557
Rp558
(dp559
g11
I00
sg19
I01
sg37
I00
sg20
I00
sbsS'HBRecalibration'
p560
g0
(g33
g2
Ntp561
Rp562
(dp563
g11
I00
sg19
I01
sg37
I00
sg20
I00
sbsS'useLayer0Weight'
p564
g0
(g33
g2
Ntp565
Rp566
(dp567
g11
I00
sg19
I01
sg37
I00
sg20
I00
sbsS'HEmeanenergies'
p568
g0
(g546
g2
Ntp569
Rp570
(dp571
g11
I00
sg19
I01
sg37
S'CalibCalorimetry/HcalPlugins/data/meanenergiesHE.txt'
p572
sg20
I00
sbsg454
g456
sS'heUpgrade'
p573
g0
(g28
g2
Ntp574
Rp575
(dp576
g11
I00
sg19
I01
sS'qieType'
p577
g0
(g103
g2
Ntp578
Rp579
(dp580
g11
I00
sg19
I01
sg37
I2
sg20
I00
sbsg20
I00
sS'pedestalWidth'
p581
g0
(g345
g2
Ntp582
Rp583
(dp584
g11
I00
sg19
I01
sg37
F1.5
sg20
I00
sbsS'recoShape'
p585
g0
(g103
g2
Ntp586
Rp587
(dp588
g11
I00
sg19
I01
sg37
I206
sg20
I00
sbsS'zsThreshold'
p589
g0
(g103
g2
Ntp590
Rp591
(dp592
g11
I00
sg19
I01
sg37
I16
sg20
I00
sbsS'darkCurrent'
p593
g0
(g459
g14
(lp594
F0.01
aF0.015
atp595
Rp596
(dp597
g11
I00
sg19
I01
sg20
I00
sbsS'qieOffset'
p598
g0
(g459
g14
(lp599
F0.0
aF0.0
aF0.0
aF0.0
atp600
Rp601
(dp602
g11
I00
sg19
I01
sg20
I00
sbsS'qieSlope'
p603
g0
(g459
g14
(lp604
F0.05376
aF0.05376
aF0.05376
aF0.05376
atp605
Rp606
(dp607
g11
I00
sg19
I01
sg20
I00
sbsS'radiationDamage'
p608
g0
(g28
g2
Ntp609
Rp610
(dp611
g11
I00
sg19
I01
sS'temperatureNew'
p612
g0
(g345
g2
Ntp613
Rp614
(dp615
g11
I00
sg19
I01
sg37
I5
sg20
I00
sbsg20
I00
sS'depVsNeutrons'
p616
g0
(g459
g14
(lp617
F5.543e-10
aF8.012e-10
atp618
Rp619
(dp620
g11
I00
sg19
I01
sg20
I00
sbsS'temperatureBase'
p621
g0
(g345
g2
Ntp622
Rp623
(dp624
g11
I00
sg19
I01
sg37
I20
sg20
I00
sbsS'depVsTemp'
p625
g0
(g345
g2
Ntp626
Rp627
(dp628
g11
I00
sg19
I01
sg37
F0.0631
sg20
I00
sbsS'intlumiOffset'
p629
g0
(g345
g2
Ntp630
Rp631
(dp632
g11
I00
sg19
I01
sg37
I75
sg20
I00
sbsg38
(lp633
g612
ag616
ag621
ag625
ag629
aS'intlumiToNeutrons'
p634
asg634
g0
(g345
g2
Ntp635
Rp636
(dp637
g11
I00
sg19
I01
sg37
F29200000.0
sg20
I00
sbsbsS'doRadiationDamage'
p638
g0
(g33
g2
Ntp639
Rp640
(dp641
g11
I00
sg19
I01
sg37
I01
sg20
I00
sbsg38
(lp642
g577
ag581
ag585
ag589
aS'photoelectronsToAnalog'
p643
ag598
ag603
ag608
ag638
ag593
aS'pedestal'
p644
aS'mcShape'
p645
aS'gainWidth'
p646
aS'gain'
p647
asg643
g0
(g345
g2
Ntp648
Rp649
(dp650
g11
I00
sg19
I01
sg37
F40.0
sg20
I00
sbsg644
g0
(g345
g2
Ntp651
Rp652
(dp653
g11
I00
sg19
I01
sg37
F17.3
sg20
I00
sbsg645
g0
(g103
g2
Ntp654
Rp655
(dp656
g11
I00
sg19
I01
sg37
I206
sg20
I00
sbsg646
g0
(g459
g14
(lp657
I0
atp658
Rp659
(dp660
g11
I00
sg19
I01
sg20
I00
sbsg647
g0
(g459
g14
(lp661
F0.0006252
atp662
Rp663
(dp664
g11
I00
sg19
I01
sg20
I00
sbsbsg38
(lp665
S'toGet'
p666
ag560
ag564
ag568
ag454
ag573
aS'useIeta18depth1'
p667
aS'killHE'
p668
aS'useHBUpgrade'
p669
aS'hbUpgrade'
p670
aS'testHEPlan1'
p671
aS'iLumi'
p672
aS'testHFQIE10'
p673
aS'HBmeanenergies'
p674
ag556
aS'GainWidthsForTrigPrims'
p675
aS'HBreCalibCutoff'
p676
aS'HFRecalibration'
p677
aS'ho'
p678
aS'hb'
p679
aS'hf'
p680
aS'he'
p681
aS'HERecalibration'
p682
aS'useHFUpgrade'
p683
aS'HEreCalibCutoff'
p684
aS'SiPMCharacteristics'
p685
aS'useHOUpgrade'
p686
aS'hfUpgrade'
p687
asg69
S'/cvmfs/cms.cern.ch/slc7_amd64_gcc820/cms/cmssw/CMSSW_10_6_0/python/CalibCalorimetry/HcalPlugins/Hcal_Conditions_forGlobalTag_cff.py'
p688
sg667
g0
(g33
g2
Ntp689
Rp690
(dp691
g11
I00
sg19
I01
sg37
I01
sg20
I00
sbsg668
g0
(g33
g2
Ntp692
Rp693
(dp694
g11
I00
sg19
I01
sg37
I00
sg20
I00
sbsg669
g0
(g33
g2
Ntp695
Rp696
(dp697
g11
I00
sg19
I01
sg37
I00
sg20
I00
sbsg670
g0
(g28
g2
Ntp698
Rp699
(dp700
g11
I00
sg19
I01
sg577
g0
(g103
g2
Ntp701
Rp702
(dp703
g11
I00
sg19
I01
sg37
I2
sg20
I00
sbsg20
I00
sg581
g0
(g345
g2
Ntp704
Rp705
(dp706
g11
I00
sg19
I01
sg37
F1.5
sg20
I00
sbsg585
g0
(g103
g2
Ntp707
Rp708
(dp709
g11
I00
sg19
I01
sg37
I206
sg20
I00
sbsg589
g0
(g103
g2
Ntp710
Rp711
(dp712
g11
I00
sg19
I01
sg37
I16
sg20
I00
sbsg593
g0
(g459
g14
(lp713
F0.01
aF0.015
atp714
Rp715
(dp716
g11
I00
sg19
I01
sg20
I00
sbsg598
g0
(g459
g14
(lp717
F0.0
aF0.0
aF0.0
aF0.0
atp718
Rp719
(dp720
g11
I00
sg19
I01
sg20
I00
sbsg603
g0
(g459
g14
(lp721
F0.05376
aF0.05376
aF0.05376
aF0.05376
atp722
Rp723
(dp724
g11
I00
sg19
I01
sg20
I00
sbsg608
g0
(g28
g2
Ntp725
Rp726
(dp727
g11
I00
sg19
I01
sg612
g0
(g345
g2
Ntp728
Rp729
(dp730
g11
I00
sg19
I01
sg37
I-5
sg20
I00
sbsg20
I00
sg616
g0
(g459
g14
(lp731
F5.543e-10
aF8.012e-10
atp732
Rp733
(dp734
g11
I00
sg19
I01
sg20
I00
sbsg621
g0
(g345
g2
Ntp735
Rp736
(dp737
g11
I00
sg19
I01
sg37
I20
sg20
I00
sbsg625
g0
(g345
g2
Ntp738
Rp739
(dp740
g11
I00
sg19
I01
sg37
F0.0631
sg20
I00
sbsg629
g0
(g345
g2
Ntp741
Rp742
(dp743
g11
I00
sg19
I01
sg37
I150
sg20
I00
sbsg38
(lp744
g612
ag616
ag621
ag625
ag629
ag634
asg634
g0
(g345
g2
Ntp745
Rp746
(dp747
g11
I00
sg19
I01
sg37
F367000000.0
sg20
I00
sbsbsg638
g0
(g33
g2
Ntp748
Rp749
(dp750
g11
I00
sg19
I01
sg37
I01
sg20
I00
sbsg38
(lp751
g577
ag581
ag585
ag589
ag643
ag598
ag603
ag608
ag638
ag593
ag644
ag645
ag646
ag647
asg643
g0
(g345
g2
Ntp752
Rp753
(dp754
g11
I00
sg19
I01
sg37
F40.0
sg20
I00
sbsg644
g0
(g345
g2
Ntp755
Rp756
(dp757
g11
I00
sg19
I01
sg37
F17.3
sg20
I00
sbsg645
g0
(g103
g2
Ntp758
Rp759
(dp760
g11
I00
sg19
I01
sg37
I206
sg20
I00
sbsg646
g0
(g459
g14
(lp761
I0
atp762
Rp763
(dp764
g11
I00
sg19
I01
sg20
I00
sbsg647
g0
(g459
g14
(lp765
F0.0006252
atp766
Rp767
(dp768
g11
I00
sg19
I01
sg20
I00
sbsbsg46
S'HcalHardcodeCalibrations'
p769
sg671
g0
(g33
g2
Ntp770
Rp771
(dp772
g11
I00
sg19
I01
sg37
I00
sg20
I00
sbsg672
g0
(g345
g2
Ntp773
Rp774
(dp775
g11
I00
sg19
I01
sg37
F-1.0
sg20
I00
sbsg673
g0
(g33
g2
Ntp776
Rp777
(dp778
g11
I00
sg19
I01
sg37
I00
sg20
I00
sbsg674
g0
(g546
g2
Ntp779
Rp780
(dp781
g11
I00
sg19
I01
sg37
S'CalibCalorimetry/HcalPlugins/data/meanenergiesHB.txt'
p782
sg20
I00
sbsg666
g0
(g13
g14
(lp783
S'GainWidths'
p784
atp785
Rp786
(dp787
g11
I00
sg19
I00
sg20
I00
sg21
I1
sbsg675
g0
(g33
g2
Ntp788
Rp789
(dp790
g11
I00
sg19
I01
sg37
I00
sg20
I00
sbsg676
g0
(g345
g2
Ntp791
Rp792
(dp793
g11
I00
sg19
I01
sg37
F20.0
sg20
I00
sbsg677
g0
(g33
g2
Ntp794
Rp795
(dp796
g11
I00
sg19
I01
sg37
I00
sg20
I00
sbsg678
g0
(g28
g2
Ntp797
Rp798
(dp799
g11
I00
sg19
I01
sg577
g0
(g103
g2
Ntp800
Rp801
(dp802
g11
I00
sg19
I01
sg37
I0
sg20
I00
sbsg20
I00
sg581
g0
(g345
g2
Ntp803
Rp804
(dp805
g11
I00
sg19
I01
sg37
F0.6285
sg20
I00
sbsg585
g0
(g103
g2
Ntp806
Rp807
(dp808
g11
I00
sg19
I01
sg37
I201
sg20
I00
sbsg589
g0
(g103
g2
Ntp809
Rp810
(dp811
g11
I00
sg19
I01
sg37
I24
sg20
I00
sbsg593
g0
(g459
g14
(lp812
F0.0
atp813
Rp814
(dp815
g11
I00
sg19
I01
sg20
I00
sbsg598
g0
(g459
g14
(lp816
F-0.44
aF1.4
aF7.1
aF38.5
atp817
Rp818
(dp819
g11
I00
sg19
I01
sg20
I00
sbsg603
g0
(g459
g14
(lp820
F0.907
aF0.915
aF0.92
aF0.921
atp821
Rp822
(dp823
g11
I00
sg19
I01
sg20
I00
sbsg647
g0
(g459
g14
(lp824
F0.006
aF0.0087
atp825
Rp826
(dp827
g11
I00
sg19
I01
sg20
I00
sbsg638
g0
(g33
g2
Ntp828
Rp829
(dp830
g11
I00
sg19
I01
sg37
I00
sg20
I00
sbsg38
(lp831
g577
ag581
ag585
ag589
ag643
ag598
ag603
ag647
ag638
ag593
ag644
ag645
ag646
asg643
g0
(g345
g2
Ntp832
Rp833
(dp834
g11
I00
sg19
I01
sg37
F4.0
sg20
I00
sbsg644
g0
(g345
g2
Ntp835
Rp836
(dp837
g11
I00
sg19
I01
sg37
F12.06
sg20
I00
sbsg645
g0
(g103
g2
Ntp838
Rp839
(dp840
g11
I00
sg19
I01
sg37
I201
sg20
I00
sbsg646
g0
(g459
g14
(lp841
F0.0
aF0.0
atp842
Rp843
(dp844
g11
I00
sg19
I01
sg20
I00
sbsbsg679
g0
(g28
g2
Ntp845
Rp846
(dp847
g11
I00
sg19
I01
sg577
g0
(g103
g2
Ntp848
Rp849
(dp850
g11
I00
sg19
I01
sg37
I0
sg20
I00
sbsg20
I00
sg581
g0
(g345
g2
Ntp851
Rp852
(dp853
g11
I00
sg19
I01
sg37
F0.809
sg20
I00
sbsg585
g0
(g103
g2
Ntp854
Rp855
(dp856
g11
I00
sg19
I01
sg37
I105
sg20
I00
sbsg589
g0
(g103
g2
Ntp857
Rp858
(dp859
g11
I00
sg19
I01
sg37
I8
sg20
I00
sbsg593
g0
(g459
g14
(lp860
F0.0
atp861
Rp862
(dp863
g11
I00
sg19
I01
sg20
I00
sbsg598
g0
(g459
g14
(lp864
F-0.49
aF1.8
aF7.2
aF37.9
atp865
Rp866
(dp867
g11
I00
sg19
I01
sg20
I00
sbsg603
g0
(g459
g14
(lp868
F0.912
aF0.917
aF0.922
aF0.923
atp869
Rp870
(dp871
g11
I00
sg19
I01
sg20
I00
sbsg647
g0
(g459
g14
(lp872
F0.19
atp873
Rp874
(dp875
g11
I00
sg19
I01
sg20
I00
sbsg638
g0
(g33
g2
Ntp876
Rp877
(dp878
g11
I00
sg19
I01
sg37
I00
sg20
I00
sbsg38
(lp879
g577
ag581
ag585
ag589
ag643
ag598
ag603
ag647
ag638
ag593
ag644
ag645
ag646
asg643
g0
(g345
g2
Ntp880
Rp881
(dp882
g11
I00
sg19
I01
sg37
F0.3305
sg20
I00
sbsg644
g0
(g345
g2
Ntp883
Rp884
(dp885
g11
I00
sg19
I01
sg37
F3.285
sg20
I00
sbsg645
g0
(g103
g2
Ntp886
Rp887
(dp888
g11
I00
sg19
I01
sg37
I125
sg20
I00
sbsg646
g0
(g459
g14
(lp889
F0.0
atp890
Rp891
(dp892
g11
I00
sg19
I01
sg20
I00
sbsbsg680
g0
(g28
g2
Ntp893
Rp894
(dp895
g11
I00
sg19
I01
sg577
g0
(g103
g2
Ntp896
Rp897
(dp898
g11
I00
sg19
I01
sg37
I0
sg20
I00
sbsg20
I00
sg581
g0
(g345
g2
Ntp899
Rp900
(dp901
g11
I00
sg19
I01
sg37
F2.516
sg20
I00
sbsg585
g0
(g103
g2
Ntp902
Rp903
(dp904
g11
I00
sg19
I01
sg37
I301
sg20
I00
sbsg589
g0
(g103
g2
Ntp905
Rp906
(dp907
g11
I00
sg19
I01
sg37
I-9999
sg20
I00
sbsg593
g0
(g459
g14
(lp908
F0.0
atp909
Rp910
(dp911
g11
I00
sg19
I01
sg20
I00
sbsg598
g0
(g459
g14
(lp912
F-0.87
aF1.4
aF7.8
aF-29.6
atp913
Rp914
(dp915
g11
I00
sg19
I01
sg20
I00
sbsg603
g0
(g459
g14
(lp916
F0.359
aF0.358
aF0.36
aF0.367
atp917
Rp918
(dp919
g11
I00
sg19
I01
sg20
I00
sbsg647
g0
(g459
g14
(lp920
F0.14
aF0.135
atp921
Rp922
(dp923
g11
I00
sg19
I01
sg20
I00
sbsg638
g0
(g33
g2
Ntp924
Rp925
(dp926
g11
I00
sg19
I01
sg37
I00
sg20
I00
sbsg38
(lp927
g577
ag581
ag585
ag589
ag643
ag598
ag603
ag647
ag638
ag593
ag644
ag645
ag646
asg643
g0
(g345
g2
Ntp928
Rp929
(dp930
g11
I00
sg19
I01
sg37
F0.0
sg20
I00
sbsg644
g0
(g345
g2
Ntp931
Rp932
(dp933
g11
I00
sg19
I01
sg37
F9.354
sg20
I00
sbsg645
g0
(g103
g2
Ntp934
Rp935
(dp936
g11
I00
sg19
I01
sg37
I301
sg20
I00
sbsg646
g0
(g459
g14
(lp937
F0.0
aF0.0
atp938
Rp939
(dp940
g11
I00
sg19
I01
sg20
I00
sbsbsg681
g0
(g28
g2
Ntp941
Rp942
(dp943
g11
I00
sg19
I01
sg577
g0
(g103
g2
Ntp944
Rp945
(dp946
g11
I00
sg19
I01
sg37
I0
sg20
I00
sbsg20
I00
sg581
g0
(g345
g2
Ntp947
Rp948
(dp949
g11
I00
sg19
I01
sg37
F0.9698
sg20
I00
sbsg585
g0
(g103
g2
Ntp950
Rp951
(dp952
g11
I00
sg19
I01
sg37
I105
sg20
I00
sbsg589
g0
(g103
g2
Ntp953
Rp954
(dp955
g11
I00
sg19
I01
sg37
I9
sg20
I00
sbsg593
g0
(g459
g14
(lp956
F0.0
atp957
Rp958
(dp959
g11
I00
sg19
I01
sg20
I00
sbsg598
g0
(g459
g14
(lp960
F-0.38
aF2.0
aF7.6
aF39.6
atp961
Rp962
(dp963
g11
I00
sg19
I01
sg20
I00
sbsg603
g0
(g459
g14
(lp964
F0.912
aF0.916
aF0.92
aF0.922
atp965
Rp966
(dp967
g11
I00
sg19
I01
sg20
I00
sbsg647
g0
(g459
g14
(lp968
F0.23
atp969
Rp970
(dp971
g11
I00
sg19
I01
sg20
I00
sbsg638
g0
(g33
g2
Ntp972
Rp973
(dp974
g11
I00
sg19
I01
sg37
I00
sg20
I00
sbsg38
(lp975
g577
ag581
ag585
ag589
ag643
ag598
ag603
ag647
ag638
ag593
ag644
ag645
ag646
asg643
g0
(g345
g2
Ntp976
Rp977
(dp978
g11
I00
sg19
I01
sg37
F0.3305
sg20
I00
sbsg644
g0
(g345
g2
Ntp979
Rp980
(dp981
g11
I00
sg19
I01
sg37
F3.163
sg20
I00
sbsg645
g0
(g103
g2
Ntp982
Rp983
(dp984
g11
I00
sg19
I01
sg37
I125
sg20
I00
sbsg646
g0
(g459
g14
(lp985
I0
atp986
Rp987
(dp988
g11
I00
sg19
I01
sg20
I00
sbsbsg20
I00
sg682
g0
(g33
g2
Ntp989
Rp990
(dp991
g11
I00
sg19
I01
sg37
I00
sg20
I00
sbsg683
g0
(g33
g2
Ntp992
Rp993
(dp994
g11
I00
sg19
I01
sg37
I00
sg20
I00
sbsg684
g0
(g345
g2
Ntp995
Rp996
(dp997
g11
I00
sg19
I01
sg37
F20.0
sg20
I00
sbsg685
g0
(cFWCore.ParameterSet.Types
VPSet
p998
g14
(lp999
g0
(g28
g2
Ntp1000
Rp1001
(dp1002
g11
I00
sg19
I01
sg20
I00
sS'crosstalk'
p1003
g0
(g345
g2
Ntp1004
Rp1005
(dp1006
g11
I00
sg19
I01
sg37
F0.0
sg20
I00
sbsS'nonlin1'
p1007
g0
(g345
g2
Ntp1008
Rp1009
(dp1010
g11
I00
sg19
I01
sg37
F1.0
sg20
I00
sbsS'nonlin3'
p1011
g0
(g345
g2
Ntp1012
Rp1013
(dp1014
g11
I00
sg19
I01
sg37
F0.0
sg20
I00
sbsS'nonlin2'
p1015
g0
(g345
g2
Ntp1016
Rp1017
(dp1018
g11
I00
sg19
I01
sg37
F0.0
sg20
I00
sbsg38
(lp1019
g1007
ag1011
ag1015
aS'pixels'
p1020
ag1003
asg1020
g0
(g103
g2
Ntp1021
Rp1022
(dp1023
g11
I00
sg19
I01
sg37
I36000
sg20
I00
sbsbag0
(g28
g2
Ntp1024
Rp1025
(dp1026
g11
I00
sg19
I01
sg20
I00
sg1003
g0
(g345
g2
Ntp1027
Rp1028
(dp1029
g11
I00
sg19
I01
sg37
F0.0
sg20
I00
sbsg1007
g0
(g345
g2
Ntp1030
Rp1031
(dp1032
g11
I00
sg19
I01
sg37
F1.0
sg20
I00
sbsg1011
g0
(g345
g2
Ntp1033
Rp1034
(dp1035
g11
I00
sg19
I01
sg37
F0.0
sg20
I00
sbsg1015
g0
(g345
g2
Ntp1036
Rp1037
(dp1038
g11
I00
sg19
I01
sg37
F0.0
sg20
I00
sbsg38
(lp1039
g1007
ag1011
ag1015
ag1020
ag1003
asg1020
g0
(g103
g2
Ntp1040
Rp1041
(dp1042
g11
I00
sg19
I01
sg37
I2500
sg20
I00
sbsbag0
(g28
g2
Ntp1043
Rp1044
(dp1045
g11
I00
sg19
I01
sg20
I00
sg1003
g0
(g345
g2
Ntp1046
Rp1047
(dp1048
g11
I00
sg19
I01
sg37
F0.17
sg20
I00
sbsg1007
g0
(g345
g2
Ntp1049
Rp1050
(dp1051
g11
I00
sg19
I01
sg37
F1.00985
sg20
I00
sbsg1011
g0
(g345
g2
Ntp1052
Rp1053
(dp1054
g11
I00
sg19
I01
sg37
F2.86282e-10
sg20
I00
sbsg1015
g0
(g345
g2
Ntp1055
Rp1056
(dp1057
g11
I00
sg19
I01
sg37
F7.84089e-06
sg20
I00
sbsg38
(lp1058
g1007
ag1011
ag1015
ag1020
ag1003
asg1020
g0
(g103
g2
Ntp1059
Rp1060
(dp1061
g11
I00
sg19
I01
sg37
I27370
sg20
I00
sbsbag0
(g28
g2
Ntp1062
Rp1063
(dp1064
g11
I00
sg19
I01
sg20
I00
sg1003
g0
(g345
g2
Ntp1065
Rp1066
(dp1067
g11
I00
sg19
I01
sg37
F0.196
sg20
I00
sbsg1007
g0
(g345
g2
Ntp1068
Rp1069
(dp1070
g11
I00
sg19
I01
sg37
F1.00546
sg20
I00
sbsg1011
g0
(g345
g2
Ntp1071
Rp1072
(dp1073
g11
I00
sg19
I01
sg37
F1.27011e-10
sg20
I00
sbsg1015
g0
(g345
g2
Ntp1074
Rp1075
(dp1076
g11
I00
sg19
I01
sg37
F6.40239e-06
sg20
I00
sbsg38
(lp1077
g1007
ag1011
ag1015
ag1020
ag1003
asg1020
g0
(g103
g2
Ntp1078
Rp1079
(dp1080
g11
I00
sg19
I01
sg37
I38018
sg20
I00
sbsbag0
(g28
g2
Ntp1081
Rp1082
(dp1083
g11
I00
sg19
I01
sg20
I00
sg1003
g0
(g345
g2
Ntp1084
Rp1085
(dp1086
g11
I00
sg19
I01
sg37
F0.17
sg20
I00
sbsg1007
g0
(g345
g2
Ntp1087
Rp1088
(dp1089
g11
I00
sg19
I01
sg37
F1.00985
sg20
I00
sbsg1011
g0
(g345
g2
Ntp1090
Rp1091
(dp1092
g11
I00
sg19
I01
sg37
F2.86282e-10
sg20
I00
sbsg1015
g0
(g345
g2
Ntp1093
Rp1094
(dp1095
g11
I00
sg19
I01
sg37
F7.84089e-06
sg20
I00
sbsg38
(lp1096
g1007
ag1011
ag1015
ag1020
ag1003
asg1020
g0
(g103
g2
Ntp1097
Rp1098
(dp1099
g11
I00
sg19
I01
sg37
I27370
sg20
I00
sbsbag0
(g28
g2
Ntp1100
Rp1101
(dp1102
g11
I00
sg19
I01
sg20
I00
sg1003
g0
(g345
g2
Ntp1103
Rp1104
(dp1105
g11
I00
sg19
I01
sg37
F0.196
sg20
I00
sbsg1007
g0
(g345
g2
Ntp1106
Rp1107
(dp1108
g11
I00
sg19
I01
sg37
F1.00546
sg20
I00
sbsg1011
g0
(g345
g2
Ntp1109
Rp1110
(dp1111
g11
I00
sg19
I01
sg37
F1.27011e-10
sg20
I00
sbsg1015
g0
(g345
g2
Ntp1112
Rp1113
(dp1114
g11
I00
sg19
I01
sg37
F6.40239e-06
sg20
I00
sbsg38
(lp1115
g1007
ag1011
ag1015
ag1020
ag1003
asg1020
g0
(g103
g2
Ntp1116
Rp1117
(dp1118
g11
I00
sg19
I01
sg37
I38018
sg20
I00
sbsbag0
(g28
g2
Ntp1119
Rp1120
(dp1121
g11
I00
sg19
I01
sg20
I00
sg1003
g0
(g345
g2
Ntp1122
Rp1123
(dp1124
g11
I00
sg19
I01
sg37
F0.0
sg20
I00
sbsg1007
g0
(g345
g2
Ntp1125
Rp1126
(dp1127
g11
I00
sg19
I01
sg37
F1.0
sg20
I00
sbsg1011
g0
(g345
g2
Ntp1128
Rp1129
(dp1130
g11
I00
sg19
I01
sg37
F0.0
sg20
I00
sbsg1015
g0
(g345
g2
Ntp1131
Rp1132
(dp1133
g11
I00
sg19
I01
sg37
F0.0
sg20
I00
sbsg38
(lp1134
g1007
ag1011
ag1015
ag1020
ag1003
asg1020
g0
(g103
g2
Ntp1135
Rp1136
(dp1137
g11
I00
sg19
I01
sg37
I0
sg20
I00
sbsbatp1138
Rp1139
(dp1140
g11
I00
sg19
I01
sg20
I00
sg21
I1
sbsg275
g552
sg686
g0
(g33
g2
Ntp1141
Rp1142
(dp1143
g11
I00
sg19
I01
sg37
I01
sg20
I00
sbsg687
g0
(g28
g2
Ntp1144
Rp1145
(dp1146
g11
I00
sg19
I01
sg577
g0
(g103
g2
Ntp1147
Rp1148
(dp1149
g11
I00
sg19
I01
sg37
I1
sg20
I00
sbsg20
I00
sg581
g0
(g345
g2
Ntp1150
Rp1151
(dp1152
g11
I00
sg19
I01
sg37
F3.33
sg20
I00
sbsg585
g0
(g103
g2
Ntp1153
Rp1154
(dp1155
g11
I00
sg19
I01
sg37
I301
sg20
I00
sbsg589
g0
(g103
g2
Ntp1156
Rp1157
(dp1158
g11
I00
sg19
I01
sg37
I-9999
sg20
I00
sbsg593
g0
(g459
g14
(lp1159
F0.0
atp1160
Rp1161
(dp1162
g11
I00
sg19
I01
sg20
I00
sbsg598
g0
(g459
g14
(lp1163
F0.0697
aF-0.7405
aF12.38
aF-671.9
atp1164
Rp1165
(dp1166
g11
I00
sg19
I01
sg20
I00
sbsg603
g0
(g459
g14
(lp1167
F0.297
aF0.298
aF0.298
aF0.313
atp1168
Rp1169
(dp1170
g11
I00
sg19
I01
sg20
I00
sbsg647
g0
(g459
g14
(lp1171
F0.14
aF0.135
atp1172
Rp1173
(dp1174
g11
I00
sg19
I01
sg20
I00
sbsg638
g0
(g33
g2
Ntp1175
Rp1176
(dp1177
g11
I00
sg19
I01
sg37
I00
sg20
I00
sbsg38
(lp1178
g577
ag581
ag585
ag589
ag643
ag598
ag603
ag647
ag638
ag593
ag644
ag645
ag646
asg643
g0
(g345
g2
Ntp1179
Rp1180
(dp1181
g11
I00
sg19
I01
sg37
F0.0
sg20
I00
sbsg644
g0
(g345
g2
Ntp1182
Rp1183
(dp1184
g11
I00
sg19
I01
sg37
F13.33
sg20
I00
sbsg645
g0
(g103
g2
Ntp1185
Rp1186
(dp1187
g11
I00
sg19
I01
sg37
I301
sg20
I00
sbsg646
g0
(g459
g14
(lp1188
F0.0
aF0.0
atp1189
Rp1190
(dp1191
g11
I00
sg19
I01
sg20
I00
sbsbsbsS'GlobalTag'
p1192
g0
(g540
g2
Ntp1193
Rp1194
(dp1195
g38
(lp1196
S'DBParameters'
p1197
aS'connect'
p1198
aS'globaltag'
p1199
aS'RefreshEachRun'
p1200
aS'pfnPrefix'
p1201
aS'snapshotTime'
p1202
ag666
aS'pfnPostfix'
p1203
aS'RefreshAlways'
p1204
aS'ReconnectEachRun'
p1205
aS'RefreshOpenIOVs'
p1206
aS'DumpStat'
p1207
asg11
I00
sg69
S'/cvmfs/cms.cern.ch/slc7_amd64_gcc820/cms/cmssw/CMSSW_10_6_0/python/CondCore/ESSources/CondDBESSource_cfi.py'
p1208
sg20
I01
sg1199
g0
(g164
g2
Ntp1209
Rp1210
(dp1211
g11
I00
sg19
I01
sg37
S'92X_dataRun2_Prompt_v4'
p1212
sg20
I01
sbsg1200
g0
(g33
g2
Ntp1213
Rp1214
(dp1215
g11
I00
sg19
I00
sg37
I00
sg20
I00
sbsg1201
g0
(g164
g2
Ntp1216
Rp1217
(dp1218
g11
I00
sg19
I00
sg37
g284
sg20
I00
sbsg1202
g0
(g164
g2
Ntp1219
Rp1220
(dp1221
g11
I00
sg19
I01
sg37
g284
sg20
I00
sbsg666
g0
(g998
g14
(lp1222
tp1223
Rp1224
(dp1225
g11
I00
sg19
I01
sg20
I00
sg21
I1
sbsg1203
g0
(g164
g2
Ntp1226
Rp1227
(dp1228
g11
I00
sg19
I00
sg37
g284
sg20
I00
sbsg1197
g0
(g28
g2
Ntp1229
Rp1230
(dp1231
g11
I00
sg19
I01
sS'authenticationPath'
p1232
g0
(g164
g2
Ntp1233
Rp1234
(dp1235
g11
I00
sg19
I00
sg37
g284
sg20
I00
sbsg20
I00
sS'messageLevel'
p1236
g0
(g103
g2
Ntp1237
Rp1238
(dp1239
g11
I00
sg19
I00
sg37
I0
sg20
I00
sbsg38
(lp1240
g1236
aS'security'
p1241
aS'authenticationSystem'
p1242
ag1232
asg1241
g0
(g164
g2
Ntp1243
Rp1244
(dp1245
g11
I00
sg19
I00
sg37
g284
sg20
I00
sbsg1242
g0
(g103
g2
Ntp1246
Rp1247
(dp1248
g11
I00
sg19
I00
sg37
I0
sg20
I00
sbsbsg1204
g0
(g33
g2
Ntp1249
Rp1250
(dp1251
g11
I00
sg19
I00
sg37
I00
sg20
I00
sbsg40
I19
sg1198
g0
(g164
g2
Ntp1252
Rp1253
(dp1254
g11
I00
sg19
I01
sg37
S'frontier://FrontierProd/CMS_CONDITIONS'
p1255
sg20
I00
sbsg1205
g0
(g33
g2
Ntp1256
Rp1257
(dp1258
g11
I00
sg19
I00
sg37
I00
sg20
I00
sbsg275
g1192
sg1206
g0
(g33
g2
Ntp1259
Rp1260
(dp1261
g11
I00
sg19
I00
sg37
I00
sg20
I00
sbsg1207
g0
(g33
g2
Ntp1262
Rp1263
(dp1264
g11
I00
sg19
I00
sg37
I00
sg20
I00
sbsg46
S'PoolDBESSource'
p1265
sbsS'HcalTimeSlewEP'
p1266
g0
(g540
g2
Ntp1267
Rp1268
(dp1269
g38
(lp1270
S'timeSlewParametersM3'
p1271
aS'timeSlewParametersM2'
p1272
aS'appendToDataLabel'
p1273
asg11
I00
sg1271
g0
(g998
g14
(lp1274
g0
(g28
g2
Ntp1275
Rp1276
(dp1277
g11
I00
sg19
I01
sS'tspar2'
p1278
g0
(g345
g2
Ntp1279
Rp1280
(dp1281
g11
I00
sg19
I01
sg37
F0.0
sg20
I00
sbsg20
I00
sS'tspar0'
p1282
g0
(g345
g2
Ntp1283
Rp1284
(dp1285
g11
I00
sg19
I01
sg37
F12.2999
sg20
I00
sbsS'tspar1'
p1286
g0
(g345
g2
Ntp1287
Rp1288
(dp1289
g11
I00
sg19
I01
sg37
F-2.19142
sg20
I00
sbsS'tspar1_siPM'
p1290
g0
(g345
g2
Ntp1291
Rp1292
(dp1293
g11
I00
sg19
I01
sg37
F0.0
sg20
I00
sbsS'cap'
p1294
g0
(g345
g2
Ntp1295
Rp1296
(dp1297
g11
I00
sg19
I01
sg37
F6.0
sg20
I00
sbsS'tspar0_siPM'
p1298
g0
(g345
g2
Ntp1299
Rp1300
(dp1301
g11
I00
sg19
I01
sg37
F0.0
sg20
I00
sbsg38
(lp1302
g1278
ag1282
ag1286
ag1290
ag1294
ag1298
aS'tspar2_siPM'
p1303
asg1303
g0
(g345
g2
Ntp1304
Rp1305
(dp1306
g11
I00
sg19
I01
sg37
F0.0
sg20
I00
sbsbag0
(g28
g2
Ntp1307
Rp1308
(dp1309
g11
I00
sg19
I01
sg1278
g0
(g345
g2
Ntp1310
Rp1311
(dp1312
g11
I00
sg19
I01
sg37
F32.0
sg20
I00
sbsg20
I00
sg1282
g0
(g345
g2
Ntp1313
Rp1314
(dp1315
g11
I00
sg19
I01
sg37
F15.5
sg20
I00
sbsg1286
g0
(g345
g2
Ntp1316
Rp1317
(dp1318
g11
I00
sg19
I01
sg37
F-3.2
sg20
I00
sbsg1290
g0
(g345
g2
Ntp1319
Rp1320
(dp1321
g11
I00
sg19
I01
sg37
F0.0
sg20
I00
sbsg1294
g0
(g345
g2
Ntp1322
Rp1323
(dp1324
g11
I00
sg19
I01
sg37
F6.0
sg20
I00
sbsg1298
g0
(g345
g2
Ntp1325
Rp1326
(dp1327
g11
I00
sg19
I01
sg37
F0.0
sg20
I00
sbsg38
(lp1328
g1278
ag1282
ag1286
ag1290
ag1294
ag1298
ag1303
asg1303
g0
(g345
g2
Ntp1329
Rp1330
(dp1331
g11
I00
sg19
I01
sg37
F0.0
sg20
I00
sbsbag0
(g28
g2
Ntp1332
Rp1333
(dp1334
g11
I00
sg19
I01
sg1278
g0
(g345
g2
Ntp1335
Rp1336
(dp1337
g11
I00
sg19
I01
sg37
F0.0
sg20
I00
sbsg20
I00
sg1282
g0
(g345
g2
Ntp1338
Rp1339
(dp1340
g11
I00
sg19
I01
sg37
F12.2999
sg20
I00
sbsg1286
g0
(g345
g2
Ntp1341
Rp1342
(dp1343
g11
I00
sg19
I01
sg37
F-2.19142
sg20
I00
sbsg1290
g0
(g345
g2
Ntp1344
Rp1345
(dp1346
g11
I00
sg19
I01
sg37
F0.0
sg20
I00
sbsg1294
g0
(g345
g2
Ntp1347
Rp1348
(dp1349
g11
I00
sg19
I01
sg37
F6.0
sg20
I00
sbsg1298
g0
(g345
g2
Ntp1350
Rp1351
(dp1352
g11
I00
sg19
I01
sg37
F0.0
sg20
I00
sbsg38
(lp1353
g1278
ag1282
ag1286
ag1290
ag1294
ag1298
ag1303
asg1303
g0
(g345
g2
Ntp1354
Rp1355
(dp1356
g11
I00
sg19
I01
sg37
F0.0
sg20
I00
sbsbag0
(g28
g2
Ntp1357
Rp1358
(dp1359
g11
I00
sg19
I01
sg1278
g0
(g345
g2
Ntp1360
Rp1361
(dp1362
g11
I00
sg19
I01
sg37
F0.0
sg20
I00
sbsg20
I00
sg1282
g0
(g345
g2
Ntp1363
Rp1364
(dp1365
g11
I00
sg19
I01
sg37
F12.2999
sg20
I00
sbsg1286
g0
(g345
g2
Ntp1366
Rp1367
(dp1368
g11
I00
sg19
I01
sg37
F-2.19142
sg20
I00
sbsg1290
g0
(g345
g2
Ntp1369
Rp1370
(dp1371
g11
I00
sg19
I01
sg37
F0.0
sg20
I00
sbsg1294
g0
(g345
g2
Ntp1372
Rp1373
(dp1374
g11
I00
sg19
I01
sg37
F6.0
sg20
I00
sbsg1298
g0
(g345
g2
Ntp1375
Rp1376
(dp1377
g11
I00
sg19
I01
sg37
F0.0
sg20
I00
sbsg38
(lp1378
g1278
ag1282
ag1286
ag1290
ag1294
ag1298
ag1303
asg1303
g0
(g345
g2
Ntp1379
Rp1380
(dp1381
g11
I00
sg19
I01
sg37
F0.0
sg20
I00
sbsbatp1382
Rp1383
(dp1384
g11
I00
sg19
I01
sg20
I00
sg21
I1
sbsg1272
g0
(g998
g14
(lp1385
g0
(g28
g2
Ntp1386
Rp1387
(dp1388
g11
I00
sg19
I01
sg20
I00
sS'slope'
p1389
g0
(g345
g2
Ntp1390
Rp1391
(dp1392
g11
I00
sg19
I01
sg37
F-3.178648
sg20
I00
sbsS'tmax'
p1393
g0
(g345
g2
Ntp1394
Rp1395
(dp1396
g11
I00
sg19
I01
sg37
F16.0
sg20
I00
sbsS'tzero'
p1397
g0
(g345
g2
Ntp1398
Rp1399
(dp1400
g11
I00
sg19
I01
sg37
F23.960177
sg20
I00
sbsg38
(lp1401
g1389
ag1393
ag1397
asbag0
(g28
g2
Ntp1402
Rp1403
(dp1404
g11
I00
sg19
I01
sg20
I00
sg1389
g0
(g345
g2
Ntp1405
Rp1406
(dp1407
g11
I00
sg19
I01
sg37
F-1.5610227
sg20
I00
sbsg1393
g0
(g345
g2
Ntp1408
Rp1409
(dp1410
g11
I00
sg19
I01
sg37
F10.0
sg20
I00
sbsg1397
g0
(g345
g2
Ntp1411
Rp1412
(dp1413
g11
I00
sg19
I01
sg37
F11.977461
sg20
I00
sbsg38
(lp1414
g1389
ag1393
ag1397
asbag0
(g28
g2
Ntp1415
Rp1416
(dp1417
g11
I00
sg19
I01
sg20
I00
sg1389
g0
(g345
g2
Ntp1418
Rp1419
(dp1420
g11
I00
sg19
I01
sg37
F-1.075824
sg20
I00
sbsg1393
g0
(g345
g2
Ntp1421
Rp1422
(dp1423
g11
I00
sg19
I01
sg37
F6.25
sg20
I00
sbsg1397
g0
(g345
g2
Ntp1424
Rp1425
(dp1426
g11
I00
sg19
I01
sg37
F9.109694
sg20
I00
sbsg38
(lp1427
g1389
ag1393
ag1397
asbatp1428
Rp1429
(dp1430
g11
I00
sg19
I01
sg20
I00
sg21
I1
sbsg20
I00
sg40
I23
sg69
S'/cvmfs/cms.cern.ch/slc7_amd64_gcc820/cms/cmssw/CMSSW_10_6_0/python/CalibCalorimetry/HcalPlugins/HcalTimeSlew_cff.py'
p1431
sg1273
g0
(g164
g2
Ntp1432
Rp1433
(dp1434
g11
I00
sg19
I01
sg37
S'HBHE'
p1435
sg20
I00
sbsg275
g1266
sg46
g1266
sbssg331
g315
sg504
g506
sS'source'
p1436
g315
sS'CastorDbProducer'
p1437
g0
(g333
g2
Ntp1438
Rp1439
(dp1440
g38
(lp1441
g1273
asg11
I00
sg1273
g0
(g164
g2
Ntp1442
Rp1443
(dp1444
g11
I00
sg19
I01
sg37
g284
sg20
I00
sbsg20
I00
sg40
I56
sg69
g70
sg275
g1437
sg46
g1437
sbsS'_Process__vpsets'
p1445
(dp1446
sS'_Process__name'
p1447
S'analysis'
p1448
sg1266
g1268
sS'es_prefer_hcalHardcode'
p1449
g0
(cFWCore.ParameterSet.Modules
ESPrefer
p1450
g2
Ntp1451
Rp1452
(dp1453
g38
(lp1454
sg11
I00
sg20
I00
sS'_targetLabel'
p1455
g552
sg40
I92
sg69
g70
sg275
g1449
sg46
g769
sbsS'_Process__subProcesses'
p1456
(lp1457
sS'_Process__switchproducers'
p1458
(dp1459
sS'_cloneToObjectDict'
p1460
(dp1461
I140511721022288
g0
(g333
g2
Ntp1462
Rp1463
(dp1464
g38
(lp1465
sg11
I00
sg20
I00
sg40
I56
sg69
g70
sg275
S'sistripconn'
p1466
sg46
S'SiStripConnectivity'
p1467
sbsI140511737005328
g1194
sI140511736990736
g499
sI140511721022864
g0
(g333
g2
Ntp1468
Rp1469
(dp1470
g38
(lp1471
S'siPixelQualityLabel'
p1472
aS'ListOfRecordToMerge'
p1473
asg11
I00
sg20
I01
sg40
I56
sg1472
g0
(g164
g2
Ntp1474
Rp1475
(dp1476
g11
I00
sg19
I01
sg37
g284
sg20
I00
sbsg69
g70
sg1473
g0
(g998
g14
(lp1477
g0
(g28
g2
Ntp1478
Rp1479
(dp1480
g11
I00
sg19
I01
sg20
I00
sg424
g0
(g164
g2
Ntp1481
Rp1482
(dp1483
g11
I00
sg19
I01
sg37
S'SiPixelQualityFromDbRcd'
p1484
sg20
I00
sbsS'tag'
p1485
g0
(g164
g2
Ntp1486
Rp1487
(dp1488
g11
I00
sg19
I01
sg37
g284
sg20
I00
sbsg38
(lp1489
g424
ag1485
asbag0
(g28
g2
Ntp1490
Rp1491
(dp1492
g11
I00
sg19
I01
sg20
I00
sg424
g0
(g164
g2
Ntp1493
Rp1494
(dp1495
g11
I00
sg19
I01
sg37
S'SiPixelDetVOffRcd'
p1496
sg20
I00
sbsg1485
g0
(g164
g2
Ntp1497
Rp1498
(dp1499
g11
I00
sg19
I01
sg37
g284
sg20
I00
sbsg38
(lp1500
g424
ag1485
asbatp1501
Rp1502
(dp1503
g11
I00
sg19
I01
sg20
I00
sg21
I1
sbsg275
S'siPixelQualityESProducer'
p1504
sg46
S'SiPixelQualityESProducer'
p1505
sbsI140511721022992
g269
sI140511720973648
g0
(g333
g2
Ntp1506
Rp1507
(dp1508
g38
(lp1509
S'printDebug'
p1510
ag1273
aS'APVGain'
p1511
aS'AutomaticNormalization'
p1512
asg11
I00
sg1273
g0
(g164
g2
Ntp1513
Rp1514
(dp1515
g11
I00
sg19
I01
sg37
g284
sg20
I00
sbsg20
I00
sg1512
g0
(g33
g2
Ntp1516
Rp1517
(dp1518
g11
I00
sg19
I01
sg37
I00
sg20
I00
sbsg40
I56
sg1510
g0
(g33
g2
Ntp1519
Rp1520
(dp1521
g11
I00
sg19
I00
sg37
I00
sg20
I00
sbsg69
g70
sg1511
g0
(g998
g14
(lp1522
g0
(g28
g2
Ntp1523
Rp1524
(dp1525
g11
I00
sg19
I01
sg20
I00
sS'Label'
p1526
g0
(g164
g2
Ntp1527
Rp1528
(dp1529
g11
I00
sg19
I00
sg37
g284
sg20
I00
sbsS'Record'
p1530
g0
(g164
g2
Ntp1531
Rp1532
(dp1533
g11
I00
sg19
I01
sg37
S'SiStripApvGainRcd'
p1534
sg20
I00
sbsS'NormalizationFactor'
p1535
g0
(g345
g2
Ntp1536
Rp1537
(dp1538
g11
I00
sg19
I00
sg37
F1.0
sg20
I00
sbsg38
(lp1539
g1530
ag1535
ag1526
asbag0
(g28
g2
Ntp1540
Rp1541
(dp1542
g11
I00
sg19
I01
sg20
I00
sg1526
g0
(g164
g2
Ntp1543
Rp1544
(dp1545
g11
I00
sg19
I00
sg37
g284
sg20
I00
sbsg1530
g0
(g164
g2
Ntp1546
Rp1547
(dp1548
g11
I00
sg19
I01
sg37
S'SiStripApvGain2Rcd'
p1549
sg20
I00
sbsg1535
g0
(g345
g2
Ntp1550
Rp1551
(dp1552
g11
I00
sg19
I00
sg37
F1.0
sg20
I00
sbsg38
(lp1553
g1530
ag1535
ag1526
asbatp1554
Rp1555
(dp1556
g11
I00
sg19
I01
sg20
I00
sg21
I1
sbsg275
S'siStripGainESProducer'
p1557
sg46
S'SiStripGainESProducer'
p1558
sbsI140511721078736
g542
sI140511720974544
g0
(g333
g2
Ntp1559
Rp1560
(dp1561
g38
(lp1562
g414
aS'LorentzAngleDeconvMode'
p1563
aS'LorentzAnglePeakMode'
p1564
asg11
I00
sg20
I00
sg40
I56
sg69
g70
sg414
g0
(g28
g2
Ntp1565
Rp1566
(dp1567
g11
I00
sg19
I01
sg20
I00
sg420
g0
(g164
g2
Ntp1568
Rp1569
(dp1570
g11
I00
sg19
I00
sg37
g284
sg20
I00
sbsg424
g0
(g164
g2
Ntp1571
Rp1572
(dp1573
g11
I00
sg19
I01
sg37
g428
sg20
I00
sbsg38
(lp1574
g424
ag420
asbsg275
S'siStripLorentzAngleDepESProducer'
p1575
sg1564
g0
(g28
g2
Ntp1576
Rp1577
(dp1578
g11
I00
sg19
I01
sg20
I00
sg420
g0
(g164
g2
Ntp1579
Rp1580
(dp1581
g11
I00
sg19
I00
sg37
g436
sg20
I00
sbsg424
g0
(g164
g2
Ntp1582
Rp1583
(dp1584
g11
I00
sg19
I01
sg37
S'SiStripLorentzAngleRcd'
p1585
sg20
I00
sbsg38
(lp1586
g424
ag420
asbsg46
S'SiStripLorentzAngleDepESProducer'
p1587
sg1563
g0
(g28
g2
Ntp1588
Rp1589
(dp1590
g11
I00
sg19
I01
sg20
I00
sg420
g0
(g164
g2
Ntp1591
Rp1592
(dp1593
g11
I00
sg19
I00
sg37
g448
sg20
I00
sbsg424
g0
(g164
g2
Ntp1594
Rp1595
(dp1596
g11
I00
sg19
I01
sg37
g1585
sg20
I00
sbsg38
(lp1597
g424
ag420
asbsbsI140511720929744
g1452
sI140511721024080
g0
(g333
g2
Ntp1598
Rp1599
(dp1600
g38
(lp1601
g1273
aS'PrintDebugOutput'
p1602
aS'ThresholdForReducedGranularity'
p1603
aS'UseEmptyRunInfo'
p1604
aS'ReduceGranularity'
p1605
ag1473
asg11
I00
sg1273
g0
(g164
g2
Ntp1606
Rp1607
(dp1608
g11
I00
sg19
I01
sg37
g284
sg20
I00
sbsg20
I01
sg40
I56
sg69
g70
sg1603
g0
(g345
g2
Ntp1609
Rp1610
(dp1611
g11
I00
sg19
I01
sg37
F0.3
sg20
I00
sbsg275
S'siStripQualityESProducer'
p1612
sg1604
g0
(g33
g2
Ntp1613
Rp1614
(dp1615
g11
I00
sg19
I01
sg37
I00
sg20
I00
sbsg1605
g0
(g33
g2
Ntp1616
Rp1617
(dp1618
g11
I00
sg19
I01
sg37
I00
sg20
I00
sbsg1473
g0
(g998
g14
(lp1619
g0
(g28
g2
Ntp1620
Rp1621
(dp1622
g11
I00
sg19
I01
sg20
I00
sg424
g0
(g164
g2
Ntp1623
Rp1624
(dp1625
g11
I00
sg19
I01
sg37
S'SiStripDetVOffRcd'
p1626
sg20
I00
sbsg1485
g0
(g164
g2
Ntp1627
Rp1628
(dp1629
g11
I00
sg19
I01
sg37
g284
sg20
I00
sbsg38
(lp1630
g424
ag1485
asbag0
(g28
g2
Ntp1631
Rp1632
(dp1633
g11
I00
sg19
I01
sg20
I00
sg424
g0
(g164
g2
Ntp1634
Rp1635
(dp1636
g11
I00
sg19
I01
sg37
S'SiStripDetCablingRcd'
p1637
sg20
I00
sbsg1485
g0
(g164
g2
Ntp1638
Rp1639
(dp1640
g11
I00
sg19
I01
sg37
g284
sg20
I00
sbsg38
(lp1641
g424
ag1485
asbag0
(g28
g2
Ntp1642
Rp1643
(dp1644
g11
I00
sg19
I01
sg20
I00
sg424
g0
(g164
g2
Ntp1645
Rp1646
(dp1647
g11
I00
sg19
I01
sg37
S'RunInfoRcd'
p1648
sg20
I00
sbsg1485
g0
(g164
g2
Ntp1649
Rp1650
(dp1651
g11
I00
sg19
I01
sg37
g284
sg20
I00
sbsg38
(lp1652
g424
ag1485
asbag0
(g28
g2
Ntp1653
Rp1654
(dp1655
g11
I00
sg19
I01
sg20
I00
sg424
g0
(g164
g2
Ntp1656
Rp1657
(dp1658
g11
I00
sg19
I01
sg37
S'SiStripBadChannelRcd'
p1659
sg20
I00
sbsg1485
g0
(g164
g2
Ntp1660
Rp1661
(dp1662
g11
I00
sg19
I01
sg37
g284
sg20
I00
sbsg38
(lp1663
g424
ag1485
asbag0
(g28
g2
Ntp1664
Rp1665
(dp1666
g11
I00
sg19
I01
sg20
I00
sg424
g0
(g164
g2
Ntp1667
Rp1668
(dp1669
g11
I00
sg19
I01
sg37
S'SiStripBadFiberRcd'
p1670
sg20
I00
sbsg1485
g0
(g164
g2
Ntp1671
Rp1672
(dp1673
g11
I00
sg19
I01
sg37
g284
sg20
I00
sbsg38
(lp1674
g424
ag1485
asbag0
(g28
g2
Ntp1675
Rp1676
(dp1677
g11
I00
sg19
I01
sg20
I00
sg424
g0
(g164
g2
Ntp1678
Rp1679
(dp1680
g11
I00
sg19
I01
sg37
S'SiStripBadModuleRcd'
p1681
sg20
I00
sbsg1485
g0
(g164
g2
Ntp1682
Rp1683
(dp1684
g11
I00
sg19
I01
sg37
g284
sg20
I00
sbsg38
(lp1685
g424
ag1485
asbag0
(g28
g2
Ntp1686
Rp1687
(dp1688
g11
I00
sg19
I01
sg20
I00
sg424
g0
(g164
g2
Ntp1689
Rp1690
(dp1691
g11
I00
sg19
I01
sg37
S'SiStripBadStripRcd'
p1692
sg20
I00
sbsg1485
g0
(g164
g2
Ntp1693
Rp1694
(dp1695
g11
I00
sg19
I01
sg37
g284
sg20
I00
sbsg38
(lp1696
g424
ag1485
asbatp1697
Rp1698
(dp1699
g11
I00
sg19
I01
sg20
I00
sg21
I1
sbsg46
S'SiStripQualityESProducer'
p1700
sg1602
g0
(g33
g2
Ntp1701
Rp1702
(dp1703
g11
I00
sg19
I01
sg37
I00
sg20
I00
sbsbsI140511720975696
g335
sI140511720975568
g482
sI140511721369424
g1268
sI140511721023696
g506
sI140511720931024
g1439
sI140511720975248
g411
sI140511721025488
g515
sI140511721123920
g258
sI140511720928592
g554
sI140511721394768
g456
sI140511721394832
g524
sI140511721022160
g0
(g333
g2
Ntp1704
Rp1705
(dp1706
g38
(lp1707
S'PreFilter'
p1708
ag339
aS'NSigmaInside'
p1709
asg11
I00
sg20
I00
sg69
g70
sg339
g0
(g164
g2
Ntp1710
Rp1711
(dp1712
g11
I00
sg19
I01
sg37
S'StandardMatcher'
p1713
sg20
I00
sbsg1708
g0
(g33
g2
Ntp1714
Rp1715
(dp1716
g11
I00
sg19
I01
sg37
I00
sg20
I00
sbsg40
I56
sg1709
g0
(g345
g2
Ntp1717
Rp1718
(dp1719
g11
I00
sg19
I01
sg37
F3.0
sg20
I00
sbsg275
S'SiStripRecHitMatcherESProducer'
p1720
sg46
g1720
sbssg1557
g1507
sg1466
g1463
sS'_Process__esprefers'
p1721
(dp1722
g1449
g1452
ssg1720
g1705
sS'_Process__schedule'
p1723
Nsg1612
g1599
sg539
g542
sS'_Process__outputmodules'
p1724
(dp1725
sS'_Process__analyzers'
p1726
(dp1727
g276
g269
ssS'_Process__InExtendCall'
p1728
I00
sg1575
g1560
sS'_Process__modifiers'
p1729
(tsS'_Process__producers'
p1730
(dp1731
sg1504
g1469
sg1192
g1194
sS'_Process__filters'
p1732
(dp1733
sg552
g554
sS'_Process__looper'
p1734
NsS'_Process__endpaths'
p1735
g0
(cFWCore.ParameterSet.DictTypes
SortedKeysDict
p1736
c__builtin__
dict
p1737
(dp1738
tp1739
Rp1740
(dp1741
S'list'
p1742
(lp1743
sbsS'_Process__esproducers'
p1744
(dp1745
g1575
g1560
sg480
g482
sg1720
g1705
sg1504
g1469
sg522
g524
sg1557
g1507
sg1466
g1463
sg332
g335
sg1437
g1439
sg497
g499
sg409
g411
sg1612
g1599
ssS'_Process__tasks'
p1746
(dp1747
sS'_Process__paths'
p1748
g0
(g1736
g1737
(dp1749
g255
g258
stp1750
Rp1751
(dp1752
g1742
(lp1753
g255
asbsS'_Process__partialschedules'
p1754
(dp1755
sg513
g515
sS'_Process__isStrict'
p1756
I00
sb.